   1              		.syntax unified
   2              		.cpu cortex-m4
   3              		.fpu softvfp
   4              		.eabi_attribute 23, 1
   5              		.eabi_attribute 24, 1
   6              		.eabi_attribute 25, 1
   7              		.eabi_attribute 26, 1
   8              		.eabi_attribute 30, 2
   9              		.eabi_attribute 34, 1
  10              		.eabi_attribute 18, 4
  11              		.thumb
  12              		.file	"stm32f4xx_syscfg.c"
  13              		.text
  14              	.Ltext0:
  15              		.cfi_sections	.debug_frame
  16              		.section	.text.SYSCFG_DeInit,"ax",%progbits
  17              		.align	2
  18              		.global	SYSCFG_DeInit
  19              		.thumb
  20              		.thumb_func
  22              	SYSCFG_DeInit:
  23              	.LFB110:
  24              		.file 1 "../../lib/STM32F4xx_StdPeriph_Driver/src/stm32f4xx_syscfg.c"
   1:../../lib/STM32F4xx_StdPeriph_Driver/src/stm32f4xx_syscfg.c **** /**
   2:../../lib/STM32F4xx_StdPeriph_Driver/src/stm32f4xx_syscfg.c ****   ******************************************************************************
   3:../../lib/STM32F4xx_StdPeriph_Driver/src/stm32f4xx_syscfg.c ****   * @file    stm32f4xx_syscfg.c
   4:../../lib/STM32F4xx_StdPeriph_Driver/src/stm32f4xx_syscfg.c ****   * @author  MCD Application Team
   5:../../lib/STM32F4xx_StdPeriph_Driver/src/stm32f4xx_syscfg.c ****   * @version V1.0.2
   6:../../lib/STM32F4xx_StdPeriph_Driver/src/stm32f4xx_syscfg.c ****   * @date    05-March-2012
   7:../../lib/STM32F4xx_StdPeriph_Driver/src/stm32f4xx_syscfg.c ****   * @brief   This file provides firmware functions to manage the SYSCFG peripheral.
   8:../../lib/STM32F4xx_StdPeriph_Driver/src/stm32f4xx_syscfg.c ****   *
   9:../../lib/STM32F4xx_StdPeriph_Driver/src/stm32f4xx_syscfg.c ****   *  @verbatim
  10:../../lib/STM32F4xx_StdPeriph_Driver/src/stm32f4xx_syscfg.c ****   *  
  11:../../lib/STM32F4xx_StdPeriph_Driver/src/stm32f4xx_syscfg.c ****   *          ===================================================================
  12:../../lib/STM32F4xx_StdPeriph_Driver/src/stm32f4xx_syscfg.c ****   *                                 How to use this driver
  13:../../lib/STM32F4xx_StdPeriph_Driver/src/stm32f4xx_syscfg.c ****   *          ===================================================================
  14:../../lib/STM32F4xx_StdPeriph_Driver/src/stm32f4xx_syscfg.c ****   *                  
  15:../../lib/STM32F4xx_StdPeriph_Driver/src/stm32f4xx_syscfg.c ****   *          This driver provides functions for:
  16:../../lib/STM32F4xx_StdPeriph_Driver/src/stm32f4xx_syscfg.c ****   *          
  17:../../lib/STM32F4xx_StdPeriph_Driver/src/stm32f4xx_syscfg.c ****   *          1. Remapping the memory accessible in the code area using SYSCFG_MemoryRemapConfig()
  18:../../lib/STM32F4xx_StdPeriph_Driver/src/stm32f4xx_syscfg.c ****   *              
  19:../../lib/STM32F4xx_StdPeriph_Driver/src/stm32f4xx_syscfg.c ****   *          2. Manage the EXTI lines connection to the GPIOs using SYSCFG_EXTILineConfig()
  20:../../lib/STM32F4xx_StdPeriph_Driver/src/stm32f4xx_syscfg.c ****   *            
  21:../../lib/STM32F4xx_StdPeriph_Driver/src/stm32f4xx_syscfg.c ****   *          3. Select the ETHERNET media interface (RMII/RII) using SYSCFG_ETH_MediaInterfaceConfi
  22:../../lib/STM32F4xx_StdPeriph_Driver/src/stm32f4xx_syscfg.c ****   *
  23:../../lib/STM32F4xx_StdPeriph_Driver/src/stm32f4xx_syscfg.c ****   *  @note  SYSCFG APB clock must be enabled to get write access to SYSCFG registers,
  24:../../lib/STM32F4xx_StdPeriph_Driver/src/stm32f4xx_syscfg.c ****   *         using RCC_APB2PeriphClockCmd(RCC_APB2Periph_SYSCFG, ENABLE);
  25:../../lib/STM32F4xx_StdPeriph_Driver/src/stm32f4xx_syscfg.c ****   *                 
  26:../../lib/STM32F4xx_StdPeriph_Driver/src/stm32f4xx_syscfg.c ****   *  @endverbatim
  27:../../lib/STM32F4xx_StdPeriph_Driver/src/stm32f4xx_syscfg.c ****   *      
  28:../../lib/STM32F4xx_StdPeriph_Driver/src/stm32f4xx_syscfg.c ****   ******************************************************************************
  29:../../lib/STM32F4xx_StdPeriph_Driver/src/stm32f4xx_syscfg.c ****   * @attention
  30:../../lib/STM32F4xx_StdPeriph_Driver/src/stm32f4xx_syscfg.c ****   *
  31:../../lib/STM32F4xx_StdPeriph_Driver/src/stm32f4xx_syscfg.c ****   * <h2><center>&copy; COPYRIGHT 2012 STMicroelectronics</center></h2>
  32:../../lib/STM32F4xx_StdPeriph_Driver/src/stm32f4xx_syscfg.c ****   *
  33:../../lib/STM32F4xx_StdPeriph_Driver/src/stm32f4xx_syscfg.c ****   * Licensed under MCD-ST Liberty SW License Agreement V2, (the "License");
  34:../../lib/STM32F4xx_StdPeriph_Driver/src/stm32f4xx_syscfg.c ****   * You may not use this file except in compliance with the License.
  35:../../lib/STM32F4xx_StdPeriph_Driver/src/stm32f4xx_syscfg.c ****   * You may obtain a copy of the License at:
  36:../../lib/STM32F4xx_StdPeriph_Driver/src/stm32f4xx_syscfg.c ****   *
  37:../../lib/STM32F4xx_StdPeriph_Driver/src/stm32f4xx_syscfg.c ****   *        http://www.st.com/software_license_agreement_liberty_v2
  38:../../lib/STM32F4xx_StdPeriph_Driver/src/stm32f4xx_syscfg.c ****   *
  39:../../lib/STM32F4xx_StdPeriph_Driver/src/stm32f4xx_syscfg.c ****   * Unless required by applicable law or agreed to in writing, software 
  40:../../lib/STM32F4xx_StdPeriph_Driver/src/stm32f4xx_syscfg.c ****   * distributed under the License is distributed on an "AS IS" BASIS, 
  41:../../lib/STM32F4xx_StdPeriph_Driver/src/stm32f4xx_syscfg.c ****   * WITHOUT WARRANTIES OR CONDITIONS OF ANY KIND, either express or implied.
  42:../../lib/STM32F4xx_StdPeriph_Driver/src/stm32f4xx_syscfg.c ****   * See the License for the specific language governing permissions and
  43:../../lib/STM32F4xx_StdPeriph_Driver/src/stm32f4xx_syscfg.c ****   * limitations under the License.
  44:../../lib/STM32F4xx_StdPeriph_Driver/src/stm32f4xx_syscfg.c ****   *
  45:../../lib/STM32F4xx_StdPeriph_Driver/src/stm32f4xx_syscfg.c ****   ******************************************************************************
  46:../../lib/STM32F4xx_StdPeriph_Driver/src/stm32f4xx_syscfg.c ****   */
  47:../../lib/STM32F4xx_StdPeriph_Driver/src/stm32f4xx_syscfg.c **** 
  48:../../lib/STM32F4xx_StdPeriph_Driver/src/stm32f4xx_syscfg.c **** /* Includes ------------------------------------------------------------------*/
  49:../../lib/STM32F4xx_StdPeriph_Driver/src/stm32f4xx_syscfg.c **** #include "stm32f4xx_syscfg.h"
  50:../../lib/STM32F4xx_StdPeriph_Driver/src/stm32f4xx_syscfg.c **** #include "stm32f4xx_rcc.h"
  51:../../lib/STM32F4xx_StdPeriph_Driver/src/stm32f4xx_syscfg.c **** 
  52:../../lib/STM32F4xx_StdPeriph_Driver/src/stm32f4xx_syscfg.c **** /** @addtogroup STM32F4xx_StdPeriph_Driver
  53:../../lib/STM32F4xx_StdPeriph_Driver/src/stm32f4xx_syscfg.c ****   * @{
  54:../../lib/STM32F4xx_StdPeriph_Driver/src/stm32f4xx_syscfg.c ****   */
  55:../../lib/STM32F4xx_StdPeriph_Driver/src/stm32f4xx_syscfg.c **** 
  56:../../lib/STM32F4xx_StdPeriph_Driver/src/stm32f4xx_syscfg.c **** /** @defgroup SYSCFG 
  57:../../lib/STM32F4xx_StdPeriph_Driver/src/stm32f4xx_syscfg.c ****   * @brief SYSCFG driver modules
  58:../../lib/STM32F4xx_StdPeriph_Driver/src/stm32f4xx_syscfg.c ****   * @{
  59:../../lib/STM32F4xx_StdPeriph_Driver/src/stm32f4xx_syscfg.c ****   */ 
  60:../../lib/STM32F4xx_StdPeriph_Driver/src/stm32f4xx_syscfg.c **** 
  61:../../lib/STM32F4xx_StdPeriph_Driver/src/stm32f4xx_syscfg.c **** /* Private typedef -----------------------------------------------------------*/
  62:../../lib/STM32F4xx_StdPeriph_Driver/src/stm32f4xx_syscfg.c **** /* Private define ------------------------------------------------------------*/
  63:../../lib/STM32F4xx_StdPeriph_Driver/src/stm32f4xx_syscfg.c **** /* ------------ RCC registers bit address in the alias region ----------- */
  64:../../lib/STM32F4xx_StdPeriph_Driver/src/stm32f4xx_syscfg.c **** #define SYSCFG_OFFSET             (SYSCFG_BASE - PERIPH_BASE)
  65:../../lib/STM32F4xx_StdPeriph_Driver/src/stm32f4xx_syscfg.c **** /* ---  PMC Register ---*/ 
  66:../../lib/STM32F4xx_StdPeriph_Driver/src/stm32f4xx_syscfg.c **** /* Alias word address of MII_RMII_SEL bit */ 
  67:../../lib/STM32F4xx_StdPeriph_Driver/src/stm32f4xx_syscfg.c **** #define PMC_OFFSET                (SYSCFG_OFFSET + 0x04) 
  68:../../lib/STM32F4xx_StdPeriph_Driver/src/stm32f4xx_syscfg.c **** #define MII_RMII_SEL_BitNumber    ((uint8_t)0x17) 
  69:../../lib/STM32F4xx_StdPeriph_Driver/src/stm32f4xx_syscfg.c **** #define PMC_MII_RMII_SEL_BB       (PERIPH_BB_BASE + (PMC_OFFSET * 32) + (MII_RMII_SEL_BitNumber * 4
  70:../../lib/STM32F4xx_StdPeriph_Driver/src/stm32f4xx_syscfg.c **** 
  71:../../lib/STM32F4xx_StdPeriph_Driver/src/stm32f4xx_syscfg.c **** /* ---  CMPCR Register ---*/ 
  72:../../lib/STM32F4xx_StdPeriph_Driver/src/stm32f4xx_syscfg.c **** /* Alias word address of CMP_PD bit */ 
  73:../../lib/STM32F4xx_StdPeriph_Driver/src/stm32f4xx_syscfg.c **** #define CMPCR_OFFSET              (SYSCFG_OFFSET + 0x20) 
  74:../../lib/STM32F4xx_StdPeriph_Driver/src/stm32f4xx_syscfg.c **** #define CMP_PD_BitNumber          ((uint8_t)0x00) 
  75:../../lib/STM32F4xx_StdPeriph_Driver/src/stm32f4xx_syscfg.c **** #define CMPCR_CMP_PD_BB           (PERIPH_BB_BASE + (CMPCR_OFFSET * 32) + (CMP_PD_BitNumber * 4)) 
  76:../../lib/STM32F4xx_StdPeriph_Driver/src/stm32f4xx_syscfg.c **** 
  77:../../lib/STM32F4xx_StdPeriph_Driver/src/stm32f4xx_syscfg.c **** /* Private macro -------------------------------------------------------------*/
  78:../../lib/STM32F4xx_StdPeriph_Driver/src/stm32f4xx_syscfg.c **** /* Private variables ---------------------------------------------------------*/
  79:../../lib/STM32F4xx_StdPeriph_Driver/src/stm32f4xx_syscfg.c **** /* Private function prototypes -----------------------------------------------*/
  80:../../lib/STM32F4xx_StdPeriph_Driver/src/stm32f4xx_syscfg.c **** /* Private functions ---------------------------------------------------------*/
  81:../../lib/STM32F4xx_StdPeriph_Driver/src/stm32f4xx_syscfg.c **** 
  82:../../lib/STM32F4xx_StdPeriph_Driver/src/stm32f4xx_syscfg.c **** /** @defgroup SYSCFG_Private_Functions
  83:../../lib/STM32F4xx_StdPeriph_Driver/src/stm32f4xx_syscfg.c ****   * @{
  84:../../lib/STM32F4xx_StdPeriph_Driver/src/stm32f4xx_syscfg.c ****   */ 
  85:../../lib/STM32F4xx_StdPeriph_Driver/src/stm32f4xx_syscfg.c **** 
  86:../../lib/STM32F4xx_StdPeriph_Driver/src/stm32f4xx_syscfg.c **** /**
  87:../../lib/STM32F4xx_StdPeriph_Driver/src/stm32f4xx_syscfg.c ****   * @brief  Deinitializes the Alternate Functions (remap and EXTI configuration)
  88:../../lib/STM32F4xx_StdPeriph_Driver/src/stm32f4xx_syscfg.c ****   *   registers to their default reset values.
  89:../../lib/STM32F4xx_StdPeriph_Driver/src/stm32f4xx_syscfg.c ****   * @param  None
  90:../../lib/STM32F4xx_StdPeriph_Driver/src/stm32f4xx_syscfg.c ****   * @retval None
  91:../../lib/STM32F4xx_StdPeriph_Driver/src/stm32f4xx_syscfg.c ****   */
  92:../../lib/STM32F4xx_StdPeriph_Driver/src/stm32f4xx_syscfg.c **** void SYSCFG_DeInit(void)
  93:../../lib/STM32F4xx_StdPeriph_Driver/src/stm32f4xx_syscfg.c **** {
  25              		.loc 1 93 0
  26              		.cfi_startproc
  27              		@ args = 0, pretend = 0, frame = 0
  28              		@ frame_needed = 0, uses_anonymous_args = 0
  29 0000 08B5     		push	{r3, lr}
  30              	.LCFI0:
  31              		.cfi_def_cfa_offset 8
  32              		.cfi_offset 3, -8
  33              		.cfi_offset 14, -4
  94:../../lib/STM32F4xx_StdPeriph_Driver/src/stm32f4xx_syscfg.c ****    RCC_APB2PeriphResetCmd(RCC_APB2Periph_SYSCFG, ENABLE);
  34              		.loc 1 94 0
  35 0002 4FF48040 		mov	r0, #16384
  36 0006 0121     		movs	r1, #1
  37 0008 FFF7FEFF 		bl	RCC_APB2PeriphResetCmd
  38              	.LVL0:
  95:../../lib/STM32F4xx_StdPeriph_Driver/src/stm32f4xx_syscfg.c ****    RCC_APB2PeriphResetCmd(RCC_APB2Periph_SYSCFG, DISABLE);
  39              		.loc 1 95 0
  40 000c 4FF48040 		mov	r0, #16384
  41 0010 0021     		movs	r1, #0
  96:../../lib/STM32F4xx_StdPeriph_Driver/src/stm32f4xx_syscfg.c **** }
  42              		.loc 1 96 0
  43 0012 BDE80840 		pop	{r3, lr}
  95:../../lib/STM32F4xx_StdPeriph_Driver/src/stm32f4xx_syscfg.c ****    RCC_APB2PeriphResetCmd(RCC_APB2Periph_SYSCFG, DISABLE);
  44              		.loc 1 95 0
  45 0016 FFF7FEBF 		b	RCC_APB2PeriphResetCmd
  46              	.LVL1:
  47              		.cfi_endproc
  48              	.LFE110:
  50 001a 00BF     		.section	.text.SYSCFG_MemoryRemapConfig,"ax",%progbits
  51              		.align	2
  52              		.global	SYSCFG_MemoryRemapConfig
  53              		.thumb
  54              		.thumb_func
  56              	SYSCFG_MemoryRemapConfig:
  57              	.LFB111:
  97:../../lib/STM32F4xx_StdPeriph_Driver/src/stm32f4xx_syscfg.c **** 
  98:../../lib/STM32F4xx_StdPeriph_Driver/src/stm32f4xx_syscfg.c **** /**
  99:../../lib/STM32F4xx_StdPeriph_Driver/src/stm32f4xx_syscfg.c ****   * @brief  Changes the mapping of the specified pin.
 100:../../lib/STM32F4xx_StdPeriph_Driver/src/stm32f4xx_syscfg.c ****   * @param  SYSCFG_Memory: selects the memory remapping.
 101:../../lib/STM32F4xx_StdPeriph_Driver/src/stm32f4xx_syscfg.c ****   *         This parameter can be one of the following values:
 102:../../lib/STM32F4xx_StdPeriph_Driver/src/stm32f4xx_syscfg.c ****   *            @arg SYSCFG_MemoryRemap_Flash:       Main Flash memory mapped at 0x00000000  
 103:../../lib/STM32F4xx_StdPeriph_Driver/src/stm32f4xx_syscfg.c ****   *            @arg SYSCFG_MemoryRemap_SystemFlash: System Flash memory mapped at 0x00000000
 104:../../lib/STM32F4xx_StdPeriph_Driver/src/stm32f4xx_syscfg.c ****   *            @arg SYSCFG_MemoryRemap_FSMC:        FSMC (Bank1 (NOR/PSRAM 1 and 2) mapped at 0x000
 105:../../lib/STM32F4xx_StdPeriph_Driver/src/stm32f4xx_syscfg.c ****   *            @arg SYSCFG_MemoryRemap_SRAM:        Embedded SRAM (112kB) mapped at 0x00000000
 106:../../lib/STM32F4xx_StdPeriph_Driver/src/stm32f4xx_syscfg.c ****   * @retval None
 107:../../lib/STM32F4xx_StdPeriph_Driver/src/stm32f4xx_syscfg.c ****   */
 108:../../lib/STM32F4xx_StdPeriph_Driver/src/stm32f4xx_syscfg.c **** void SYSCFG_MemoryRemapConfig(uint8_t SYSCFG_MemoryRemap)
 109:../../lib/STM32F4xx_StdPeriph_Driver/src/stm32f4xx_syscfg.c **** {
  58              		.loc 1 109 0
  59              		.cfi_startproc
  60              		@ args = 0, pretend = 0, frame = 0
  61              		@ frame_needed = 0, uses_anonymous_args = 0
  62              		@ link register save eliminated.
  63              	.LVL2:
 110:../../lib/STM32F4xx_StdPeriph_Driver/src/stm32f4xx_syscfg.c ****   /* Check the parameters */
 111:../../lib/STM32F4xx_StdPeriph_Driver/src/stm32f4xx_syscfg.c ****   assert_param(IS_SYSCFG_MEMORY_REMAP_CONFING(SYSCFG_MemoryRemap));
 112:../../lib/STM32F4xx_StdPeriph_Driver/src/stm32f4xx_syscfg.c **** 
 113:../../lib/STM32F4xx_StdPeriph_Driver/src/stm32f4xx_syscfg.c ****   SYSCFG->MEMRMP = SYSCFG_MemoryRemap;
  64              		.loc 1 113 0
  65 0000 014B     		ldr	r3, .L3
  66 0002 1860     		str	r0, [r3, #0]
  67 0004 7047     		bx	lr
  68              	.L4:
  69 0006 00BF     		.align	2
  70              	.L3:
  71 0008 00380140 		.word	1073821696
  72              		.cfi_endproc
  73              	.LFE111:
  75              		.section	.text.SYSCFG_EXTILineConfig,"ax",%progbits
  76              		.align	2
  77              		.global	SYSCFG_EXTILineConfig
  78              		.thumb
  79              		.thumb_func
  81              	SYSCFG_EXTILineConfig:
  82              	.LFB112:
 114:../../lib/STM32F4xx_StdPeriph_Driver/src/stm32f4xx_syscfg.c **** }
 115:../../lib/STM32F4xx_StdPeriph_Driver/src/stm32f4xx_syscfg.c **** 
 116:../../lib/STM32F4xx_StdPeriph_Driver/src/stm32f4xx_syscfg.c **** /**
 117:../../lib/STM32F4xx_StdPeriph_Driver/src/stm32f4xx_syscfg.c ****   * @brief  Selects the GPIO pin used as EXTI Line.
 118:../../lib/STM32F4xx_StdPeriph_Driver/src/stm32f4xx_syscfg.c ****   * @param  EXTI_PortSourceGPIOx : selects the GPIO port to be used as source for
 119:../../lib/STM32F4xx_StdPeriph_Driver/src/stm32f4xx_syscfg.c ****   *          EXTI lines where x can be (A..I).
 120:../../lib/STM32F4xx_StdPeriph_Driver/src/stm32f4xx_syscfg.c ****   * @param  EXTI_PinSourcex: specifies the EXTI line to be configured.
 121:../../lib/STM32F4xx_StdPeriph_Driver/src/stm32f4xx_syscfg.c ****   *           This parameter can be EXTI_PinSourcex where x can be (0..15, except
 122:../../lib/STM32F4xx_StdPeriph_Driver/src/stm32f4xx_syscfg.c ****   *           for EXTI_PortSourceGPIOI x can be (0..11).
 123:../../lib/STM32F4xx_StdPeriph_Driver/src/stm32f4xx_syscfg.c ****   * @retval None
 124:../../lib/STM32F4xx_StdPeriph_Driver/src/stm32f4xx_syscfg.c ****   */
 125:../../lib/STM32F4xx_StdPeriph_Driver/src/stm32f4xx_syscfg.c **** void SYSCFG_EXTILineConfig(uint8_t EXTI_PortSourceGPIOx, uint8_t EXTI_PinSourcex)
 126:../../lib/STM32F4xx_StdPeriph_Driver/src/stm32f4xx_syscfg.c **** {
  83              		.loc 1 126 0
  84              		.cfi_startproc
  85              		@ args = 0, pretend = 0, frame = 0
  86              		@ frame_needed = 0, uses_anonymous_args = 0
  87              		@ link register save eliminated.
  88              	.LVL3:
  89 0000 30B4     		push	{r4, r5}
  90              	.LCFI1:
  91              		.cfi_def_cfa_offset 8
  92              		.cfi_offset 4, -8
  93              		.cfi_offset 5, -4
  94              	.LVL4:
 127:../../lib/STM32F4xx_StdPeriph_Driver/src/stm32f4xx_syscfg.c ****   uint32_t tmp = 0x00;
 128:../../lib/STM32F4xx_StdPeriph_Driver/src/stm32f4xx_syscfg.c **** 
 129:../../lib/STM32F4xx_StdPeriph_Driver/src/stm32f4xx_syscfg.c ****   /* Check the parameters */
 130:../../lib/STM32F4xx_StdPeriph_Driver/src/stm32f4xx_syscfg.c ****   assert_param(IS_EXTI_PORT_SOURCE(EXTI_PortSourceGPIOx));
 131:../../lib/STM32F4xx_StdPeriph_Driver/src/stm32f4xx_syscfg.c ****   assert_param(IS_EXTI_PIN_SOURCE(EXTI_PinSourcex));
 132:../../lib/STM32F4xx_StdPeriph_Driver/src/stm32f4xx_syscfg.c **** 
 133:../../lib/STM32F4xx_StdPeriph_Driver/src/stm32f4xx_syscfg.c ****   tmp = ((uint32_t)0x0F) << (0x04 * (EXTI_PinSourcex & (uint8_t)0x03));
 134:../../lib/STM32F4xx_StdPeriph_Driver/src/stm32f4xx_syscfg.c ****   SYSCFG->EXTICR[EXTI_PinSourcex >> 0x02] &= ~tmp;
  95              		.loc 1 134 0
  96 0002 8A08     		lsrs	r2, r1, #2
  97 0004 0B4B     		ldr	r3, .L6
  98 0006 0232     		adds	r2, r2, #2
 133:../../lib/STM32F4xx_StdPeriph_Driver/src/stm32f4xx_syscfg.c ****   tmp = ((uint32_t)0x0F) << (0x04 * (EXTI_PinSourcex & (uint8_t)0x03));
  99              		.loc 1 133 0
 100 0008 01F00301 		and	r1, r1, #3
 101              	.LVL5:
 102              		.loc 1 134 0
 103 000c 53F82250 		ldr	r5, [r3, r2, lsl #2]
 133:../../lib/STM32F4xx_StdPeriph_Driver/src/stm32f4xx_syscfg.c ****   tmp = ((uint32_t)0x0F) << (0x04 * (EXTI_PinSourcex & (uint8_t)0x03));
 104              		.loc 1 133 0
 105 0010 8900     		lsls	r1, r1, #2
 106              	.LVL6:
 107 0012 0F24     		movs	r4, #15
 108 0014 04FA01F4 		lsl	r4, r4, r1
 109              	.LVL7:
 110              		.loc 1 134 0
 111 0018 25EA0404 		bic	r4, r5, r4
 112              	.LVL8:
 113 001c 43F82240 		str	r4, [r3, r2, lsl #2]
 135:../../lib/STM32F4xx_StdPeriph_Driver/src/stm32f4xx_syscfg.c ****   SYSCFG->EXTICR[EXTI_PinSourcex >> 0x02] |= (((uint32_t)EXTI_PortSourceGPIOx) << (0x04 * (EXTI_Pin
 114              		.loc 1 135 0
 115 0020 53F82240 		ldr	r4, [r3, r2, lsl #2]
 116 0024 00FA01F0 		lsl	r0, r0, r1
 117              	.LVL9:
 118 0028 0443     		orrs	r4, r4, r0
 119 002a 43F82240 		str	r4, [r3, r2, lsl #2]
 136:../../lib/STM32F4xx_StdPeriph_Driver/src/stm32f4xx_syscfg.c **** }
 120              		.loc 1 136 0
 121 002e 30BC     		pop	{r4, r5}
 122 0030 7047     		bx	lr
 123              	.L7:
 124 0032 00BF     		.align	2
 125              	.L6:
 126 0034 00380140 		.word	1073821696
 127              		.cfi_endproc
 128              	.LFE112:
 130              		.section	.text.SYSCFG_ETH_MediaInterfaceConfig,"ax",%progbits
 131              		.align	2
 132              		.global	SYSCFG_ETH_MediaInterfaceConfig
 133              		.thumb
 134              		.thumb_func
 136              	SYSCFG_ETH_MediaInterfaceConfig:
 137              	.LFB113:
 137:../../lib/STM32F4xx_StdPeriph_Driver/src/stm32f4xx_syscfg.c **** 
 138:../../lib/STM32F4xx_StdPeriph_Driver/src/stm32f4xx_syscfg.c **** /**
 139:../../lib/STM32F4xx_StdPeriph_Driver/src/stm32f4xx_syscfg.c ****   * @brief  Selects the ETHERNET media interface 
 140:../../lib/STM32F4xx_StdPeriph_Driver/src/stm32f4xx_syscfg.c ****   * @param  SYSCFG_ETH_MediaInterface: specifies the Media Interface mode. 
 141:../../lib/STM32F4xx_StdPeriph_Driver/src/stm32f4xx_syscfg.c ****   *          This parameter can be one of the following values: 
 142:../../lib/STM32F4xx_StdPeriph_Driver/src/stm32f4xx_syscfg.c ****   *            @arg SYSCFG_ETH_MediaInterface_MII: MII mode selected
 143:../../lib/STM32F4xx_StdPeriph_Driver/src/stm32f4xx_syscfg.c ****   *            @arg SYSCFG_ETH_MediaInterface_RMII: RMII mode selected 
 144:../../lib/STM32F4xx_StdPeriph_Driver/src/stm32f4xx_syscfg.c ****   * @retval None 
 145:../../lib/STM32F4xx_StdPeriph_Driver/src/stm32f4xx_syscfg.c ****   */
 146:../../lib/STM32F4xx_StdPeriph_Driver/src/stm32f4xx_syscfg.c **** void SYSCFG_ETH_MediaInterfaceConfig(uint32_t SYSCFG_ETH_MediaInterface) 
 147:../../lib/STM32F4xx_StdPeriph_Driver/src/stm32f4xx_syscfg.c **** { 
 138              		.loc 1 147 0
 139              		.cfi_startproc
 140              		@ args = 0, pretend = 0, frame = 0
 141              		@ frame_needed = 0, uses_anonymous_args = 0
 142              		@ link register save eliminated.
 143              	.LVL10:
 148:../../lib/STM32F4xx_StdPeriph_Driver/src/stm32f4xx_syscfg.c ****   assert_param(IS_SYSCFG_ETH_MEDIA_INTERFACE(SYSCFG_ETH_MediaInterface)); 
 149:../../lib/STM32F4xx_StdPeriph_Driver/src/stm32f4xx_syscfg.c ****   /* Configure MII_RMII selection bit */ 
 150:../../lib/STM32F4xx_StdPeriph_Driver/src/stm32f4xx_syscfg.c ****   *(__IO uint32_t *) PMC_MII_RMII_SEL_BB = SYSCFG_ETH_MediaInterface; 
 144              		.loc 1 150 0
 145 0000 014B     		ldr	r3, .L9
 146 0002 1860     		str	r0, [r3, #0]
 147 0004 7047     		bx	lr
 148              	.L10:
 149 0006 00BF     		.align	2
 150              	.L9:
 151 0008 DC002742 		.word	1109852380
 152              		.cfi_endproc
 153              	.LFE113:
 155              		.section	.text.SYSCFG_CompensationCellCmd,"ax",%progbits
 156              		.align	2
 157              		.global	SYSCFG_CompensationCellCmd
 158              		.thumb
 159              		.thumb_func
 161              	SYSCFG_CompensationCellCmd:
 162              	.LFB114:
 151:../../lib/STM32F4xx_StdPeriph_Driver/src/stm32f4xx_syscfg.c **** }
 152:../../lib/STM32F4xx_StdPeriph_Driver/src/stm32f4xx_syscfg.c **** 
 153:../../lib/STM32F4xx_StdPeriph_Driver/src/stm32f4xx_syscfg.c **** /**
 154:../../lib/STM32F4xx_StdPeriph_Driver/src/stm32f4xx_syscfg.c ****   * @brief  Enables or disables the I/O Compensation Cell.
 155:../../lib/STM32F4xx_StdPeriph_Driver/src/stm32f4xx_syscfg.c ****   * @note   The I/O compensation cell can be used only when the device supply
 156:../../lib/STM32F4xx_StdPeriph_Driver/src/stm32f4xx_syscfg.c ****   *         voltage ranges from 2.4 to 3.6 V.  
 157:../../lib/STM32F4xx_StdPeriph_Driver/src/stm32f4xx_syscfg.c ****   * @param  NewState: new state of the I/O Compensation Cell.
 158:../../lib/STM32F4xx_StdPeriph_Driver/src/stm32f4xx_syscfg.c ****   *          This parameter can be one of the following values:
 159:../../lib/STM32F4xx_StdPeriph_Driver/src/stm32f4xx_syscfg.c ****   *            @arg ENABLE: I/O compensation cell enabled  
 160:../../lib/STM32F4xx_StdPeriph_Driver/src/stm32f4xx_syscfg.c ****   *            @arg DISABLE: I/O compensation cell power-down mode  
 161:../../lib/STM32F4xx_StdPeriph_Driver/src/stm32f4xx_syscfg.c ****   * @retval None
 162:../../lib/STM32F4xx_StdPeriph_Driver/src/stm32f4xx_syscfg.c ****   */
 163:../../lib/STM32F4xx_StdPeriph_Driver/src/stm32f4xx_syscfg.c **** void SYSCFG_CompensationCellCmd(FunctionalState NewState)
 164:../../lib/STM32F4xx_StdPeriph_Driver/src/stm32f4xx_syscfg.c **** {
 163              		.loc 1 164 0
 164              		.cfi_startproc
 165              		@ args = 0, pretend = 0, frame = 0
 166              		@ frame_needed = 0, uses_anonymous_args = 0
 167              		@ link register save eliminated.
 168              	.LVL11:
 165:../../lib/STM32F4xx_StdPeriph_Driver/src/stm32f4xx_syscfg.c ****   /* Check the parameters */
 166:../../lib/STM32F4xx_StdPeriph_Driver/src/stm32f4xx_syscfg.c ****   assert_param(IS_FUNCTIONAL_STATE(NewState));
 167:../../lib/STM32F4xx_StdPeriph_Driver/src/stm32f4xx_syscfg.c **** 
 168:../../lib/STM32F4xx_StdPeriph_Driver/src/stm32f4xx_syscfg.c ****   *(__IO uint32_t *) CMPCR_CMP_PD_BB = (uint32_t)NewState;
 169              		.loc 1 168 0
 170 0000 014B     		ldr	r3, .L12
 171 0002 1860     		str	r0, [r3, #0]
 172 0004 7047     		bx	lr
 173              	.L13:
 174 0006 00BF     		.align	2
 175              	.L12:
 176 0008 00042742 		.word	1109853184
 177              		.cfi_endproc
 178              	.LFE114:
 180              		.section	.text.SYSCFG_GetCompensationCellStatus,"ax",%progbits
 181              		.align	2
 182              		.global	SYSCFG_GetCompensationCellStatus
 183              		.thumb
 184              		.thumb_func
 186              	SYSCFG_GetCompensationCellStatus:
 187              	.LFB115:
 169:../../lib/STM32F4xx_StdPeriph_Driver/src/stm32f4xx_syscfg.c **** }
 170:../../lib/STM32F4xx_StdPeriph_Driver/src/stm32f4xx_syscfg.c **** 
 171:../../lib/STM32F4xx_StdPeriph_Driver/src/stm32f4xx_syscfg.c **** /**
 172:../../lib/STM32F4xx_StdPeriph_Driver/src/stm32f4xx_syscfg.c ****   * @brief  Checks whether the I/O Compensation Cell ready flag is set or not.
 173:../../lib/STM32F4xx_StdPeriph_Driver/src/stm32f4xx_syscfg.c ****   * @param  None
 174:../../lib/STM32F4xx_StdPeriph_Driver/src/stm32f4xx_syscfg.c ****   * @retval The new state of the I/O Compensation Cell ready flag (SET or RESET)
 175:../../lib/STM32F4xx_StdPeriph_Driver/src/stm32f4xx_syscfg.c ****   */
 176:../../lib/STM32F4xx_StdPeriph_Driver/src/stm32f4xx_syscfg.c **** FlagStatus SYSCFG_GetCompensationCellStatus(void)
 177:../../lib/STM32F4xx_StdPeriph_Driver/src/stm32f4xx_syscfg.c **** {
 188              		.loc 1 177 0
 189              		.cfi_startproc
 190              		@ args = 0, pretend = 0, frame = 0
 191              		@ frame_needed = 0, uses_anonymous_args = 0
 192              		@ link register save eliminated.
 193              	.LVL12:
 178:../../lib/STM32F4xx_StdPeriph_Driver/src/stm32f4xx_syscfg.c ****   FlagStatus bitstatus = RESET;
 179:../../lib/STM32F4xx_StdPeriph_Driver/src/stm32f4xx_syscfg.c ****     
 180:../../lib/STM32F4xx_StdPeriph_Driver/src/stm32f4xx_syscfg.c ****   if ((SYSCFG->CMPCR & SYSCFG_CMPCR_READY ) != (uint32_t)RESET)
 194              		.loc 1 180 0
 195 0000 024B     		ldr	r3, .L15
 196 0002 186A     		ldr	r0, [r3, #32]
 197              	.LVL13:
 181:../../lib/STM32F4xx_StdPeriph_Driver/src/stm32f4xx_syscfg.c ****   {
 182:../../lib/STM32F4xx_StdPeriph_Driver/src/stm32f4xx_syscfg.c ****     bitstatus = SET;
 183:../../lib/STM32F4xx_StdPeriph_Driver/src/stm32f4xx_syscfg.c ****   }
 184:../../lib/STM32F4xx_StdPeriph_Driver/src/stm32f4xx_syscfg.c ****   else
 185:../../lib/STM32F4xx_StdPeriph_Driver/src/stm32f4xx_syscfg.c ****   {
 186:../../lib/STM32F4xx_StdPeriph_Driver/src/stm32f4xx_syscfg.c ****     bitstatus = RESET;
 187:../../lib/STM32F4xx_StdPeriph_Driver/src/stm32f4xx_syscfg.c ****   }
 188:../../lib/STM32F4xx_StdPeriph_Driver/src/stm32f4xx_syscfg.c ****   return bitstatus;
 189:../../lib/STM32F4xx_StdPeriph_Driver/src/stm32f4xx_syscfg.c **** }
 198              		.loc 1 189 0
 199 0004 C0F30020 		ubfx	r0, r0, #8, #1
 200              	.LVL14:
 201 0008 7047     		bx	lr
 202              	.L16:
 203 000a 00BF     		.align	2
 204              	.L15:
 205 000c 00380140 		.word	1073821696
 206              		.cfi_endproc
 207              	.LFE115:
 209              		.text
 210              	.Letext0:
 211              		.file 2 "c:\\program files (x86)\\codesourcery\\sourcery_codebench_lite_for_arm_eabi\\bin\\../lib/
 212              		.file 3 "../../lib/CMSIS/Device/ST/STM32F4xx/Include/stm32f4xx.h"
 213              		.file 4 "../../lib/CMSIS/Include/core_cm4.h"
 214              		.file 5 "../../lib/STM32F4xx_StdPeriph_Driver/inc/stm32f4xx_rcc.h"