   1              		.syntax unified
   2              		.cpu cortex-m4
   3              		.fpu softvfp
   4              		.eabi_attribute 23, 1
   5              		.eabi_attribute 24, 1
   6              		.eabi_attribute 25, 1
   7              		.eabi_attribute 26, 1
   8              		.eabi_attribute 30, 2
   9              		.eabi_attribute 34, 1
  10              		.eabi_attribute 18, 4
  11              		.thumb
  12              		.file	"stm32f4xx_rtc.c"
  13              		.text
  14              	.Ltext0:
  15              		.cfi_sections	.debug_frame
  16              		.section	.text.RTC_DeInit,"ax",%progbits
  17              		.align	2
  18              		.global	RTC_DeInit
  19              		.thumb
  20              		.thumb_func
  22              	RTC_DeInit:
  23              	.LFB110:
  24              		.file 1 "../../lib/STM32F4xx_StdPeriph_Driver/src/stm32f4xx_rtc.c"
   1:../../lib/STM32F4xx_StdPeriph_Driver/src/stm32f4xx_rtc.c **** /**
   2:../../lib/STM32F4xx_StdPeriph_Driver/src/stm32f4xx_rtc.c ****   ******************************************************************************
   3:../../lib/STM32F4xx_StdPeriph_Driver/src/stm32f4xx_rtc.c ****   * @file    stm32f4xx_rtc.c
   4:../../lib/STM32F4xx_StdPeriph_Driver/src/stm32f4xx_rtc.c ****   * @author  MCD Application Team
   5:../../lib/STM32F4xx_StdPeriph_Driver/src/stm32f4xx_rtc.c ****   * @version V1.0.2
   6:../../lib/STM32F4xx_StdPeriph_Driver/src/stm32f4xx_rtc.c ****   * @date    05-March-2012
   7:../../lib/STM32F4xx_StdPeriph_Driver/src/stm32f4xx_rtc.c ****   * @brief   This file provides firmware functions to manage the following 
   8:../../lib/STM32F4xx_StdPeriph_Driver/src/stm32f4xx_rtc.c ****   *          functionalities of the Real-Time Clock (RTC) peripheral:
   9:../../lib/STM32F4xx_StdPeriph_Driver/src/stm32f4xx_rtc.c ****   *           - Initialization
  10:../../lib/STM32F4xx_StdPeriph_Driver/src/stm32f4xx_rtc.c ****   *           - Calendar (Time and Date) configuration
  11:../../lib/STM32F4xx_StdPeriph_Driver/src/stm32f4xx_rtc.c ****   *           - Alarms (Alarm A and Alarm B) configuration
  12:../../lib/STM32F4xx_StdPeriph_Driver/src/stm32f4xx_rtc.c ****   *           - WakeUp Timer configuration
  13:../../lib/STM32F4xx_StdPeriph_Driver/src/stm32f4xx_rtc.c ****   *           - Daylight Saving configuration
  14:../../lib/STM32F4xx_StdPeriph_Driver/src/stm32f4xx_rtc.c ****   *           - Output pin Configuration
  15:../../lib/STM32F4xx_StdPeriph_Driver/src/stm32f4xx_rtc.c ****   *           - Coarse digital Calibration configuration
  16:../../lib/STM32F4xx_StdPeriph_Driver/src/stm32f4xx_rtc.c ****   *           - Smooth digital Calibration configuration
  17:../../lib/STM32F4xx_StdPeriph_Driver/src/stm32f4xx_rtc.c ****   *           - TimeStamp configuration
  18:../../lib/STM32F4xx_StdPeriph_Driver/src/stm32f4xx_rtc.c ****   *           - Tampers configuration
  19:../../lib/STM32F4xx_StdPeriph_Driver/src/stm32f4xx_rtc.c ****   *           - Backup Data Registers configuration
  20:../../lib/STM32F4xx_StdPeriph_Driver/src/stm32f4xx_rtc.c ****   *           - Shift control synchronisation    
  21:../../lib/STM32F4xx_StdPeriph_Driver/src/stm32f4xx_rtc.c ****   *           - RTC Tamper and TimeStamp Pins Selection and Output Type Config configuration
  22:../../lib/STM32F4xx_StdPeriph_Driver/src/stm32f4xx_rtc.c ****   *           - Interrupts and flags management
  23:../../lib/STM32F4xx_StdPeriph_Driver/src/stm32f4xx_rtc.c ****   *
  24:../../lib/STM32F4xx_StdPeriph_Driver/src/stm32f4xx_rtc.c ****   *  @verbatim
  25:../../lib/STM32F4xx_StdPeriph_Driver/src/stm32f4xx_rtc.c ****   *
  26:../../lib/STM32F4xx_StdPeriph_Driver/src/stm32f4xx_rtc.c ****   *          ===================================================================
  27:../../lib/STM32F4xx_StdPeriph_Driver/src/stm32f4xx_rtc.c ****   *                               Backup Domain Operating Condition
  28:../../lib/STM32F4xx_StdPeriph_Driver/src/stm32f4xx_rtc.c ****   *          ===================================================================
  29:../../lib/STM32F4xx_StdPeriph_Driver/src/stm32f4xx_rtc.c ****   *          The real-time clock (RTC), the RTC backup registers, and the backup 
  30:../../lib/STM32F4xx_StdPeriph_Driver/src/stm32f4xx_rtc.c ****   *          SRAM (BKP SRAM) can be powered from the VBAT voltage when the main 
  31:../../lib/STM32F4xx_StdPeriph_Driver/src/stm32f4xx_rtc.c ****   *          VDD supply is powered off.
  32:../../lib/STM32F4xx_StdPeriph_Driver/src/stm32f4xx_rtc.c ****   *          To retain the content of the RTC backup registers, backup SRAM, 
  33:../../lib/STM32F4xx_StdPeriph_Driver/src/stm32f4xx_rtc.c ****   *          and supply the RTC when VDD is turned off, VBAT pin can be connected 
  34:../../lib/STM32F4xx_StdPeriph_Driver/src/stm32f4xx_rtc.c ****   *          to an optional standby voltage supplied by a battery or by another 
  35:../../lib/STM32F4xx_StdPeriph_Driver/src/stm32f4xx_rtc.c ****   *          source.
  36:../../lib/STM32F4xx_StdPeriph_Driver/src/stm32f4xx_rtc.c ****   *
  37:../../lib/STM32F4xx_StdPeriph_Driver/src/stm32f4xx_rtc.c ****   *          To allow the RTC to operate even when the main digital supply (VDD) 
  38:../../lib/STM32F4xx_StdPeriph_Driver/src/stm32f4xx_rtc.c ****   *          is turned off, the VBAT pin powers the following blocks:
  39:../../lib/STM32F4xx_StdPeriph_Driver/src/stm32f4xx_rtc.c ****   *            1 - The RTC
  40:../../lib/STM32F4xx_StdPeriph_Driver/src/stm32f4xx_rtc.c ****   *            2 - The LSE oscillator
  41:../../lib/STM32F4xx_StdPeriph_Driver/src/stm32f4xx_rtc.c ****   *            3 - The backup SRAM when the low power backup regulator is enabled
  42:../../lib/STM32F4xx_StdPeriph_Driver/src/stm32f4xx_rtc.c ****   *            4 - PC13 to PC15 I/Os, plus PI8 I/O (when available)
  43:../../lib/STM32F4xx_StdPeriph_Driver/src/stm32f4xx_rtc.c ****   *
  44:../../lib/STM32F4xx_StdPeriph_Driver/src/stm32f4xx_rtc.c ****   *          When the backup domain is supplied by VDD (analog switch connected 
  45:../../lib/STM32F4xx_StdPeriph_Driver/src/stm32f4xx_rtc.c ****   *          to VDD), the following functions are available:
  46:../../lib/STM32F4xx_StdPeriph_Driver/src/stm32f4xx_rtc.c ****   *            1 - PC14 and PC15 can be used as either GPIO or LSE pins
  47:../../lib/STM32F4xx_StdPeriph_Driver/src/stm32f4xx_rtc.c ****   *            2 - PC13 can be used as a GPIO or as the RTC_AF1 pin
  48:../../lib/STM32F4xx_StdPeriph_Driver/src/stm32f4xx_rtc.c ****   *            3 - PI8 can be used as a GPIO or as the RTC_AF2 pin
  49:../../lib/STM32F4xx_StdPeriph_Driver/src/stm32f4xx_rtc.c ****   *
  50:../../lib/STM32F4xx_StdPeriph_Driver/src/stm32f4xx_rtc.c ****   *          When the backup domain is supplied by VBAT (analog switch connected 
  51:../../lib/STM32F4xx_StdPeriph_Driver/src/stm32f4xx_rtc.c ****   *          to VBAT because VDD is not present), the following functions are available:
  52:../../lib/STM32F4xx_StdPeriph_Driver/src/stm32f4xx_rtc.c ****   *            1 - PC14 and PC15 can be used as LSE pins only
  53:../../lib/STM32F4xx_StdPeriph_Driver/src/stm32f4xx_rtc.c ****   *            2 - PC13 can be used as the RTC_AF1 pin 
  54:../../lib/STM32F4xx_StdPeriph_Driver/src/stm32f4xx_rtc.c ****   *            3 - PI8 can be used as the RTC_AF2 pin
  55:../../lib/STM32F4xx_StdPeriph_Driver/src/stm32f4xx_rtc.c ****   *
  56:../../lib/STM32F4xx_StdPeriph_Driver/src/stm32f4xx_rtc.c ****   *          ===================================================================
  57:../../lib/STM32F4xx_StdPeriph_Driver/src/stm32f4xx_rtc.c ****   *                                    Backup Domain Reset
  58:../../lib/STM32F4xx_StdPeriph_Driver/src/stm32f4xx_rtc.c ****   *          ===================================================================
  59:../../lib/STM32F4xx_StdPeriph_Driver/src/stm32f4xx_rtc.c ****   *          The backup domain reset sets all RTC registers and the RCC_BDCR 
  60:../../lib/STM32F4xx_StdPeriph_Driver/src/stm32f4xx_rtc.c ****   *          register to their reset values. The BKPSRAM is not affected by this
  61:../../lib/STM32F4xx_StdPeriph_Driver/src/stm32f4xx_rtc.c ****   *          reset. The only way of resetting the BKPSRAM is through the Flash 
  62:../../lib/STM32F4xx_StdPeriph_Driver/src/stm32f4xx_rtc.c ****   *          interface by requesting a protection level change from 1 to 0.
  63:../../lib/STM32F4xx_StdPeriph_Driver/src/stm32f4xx_rtc.c ****   *          A backup domain reset is generated when one of the following events
  64:../../lib/STM32F4xx_StdPeriph_Driver/src/stm32f4xx_rtc.c ****   *          occurs:
  65:../../lib/STM32F4xx_StdPeriph_Driver/src/stm32f4xx_rtc.c ****   *            1 - Software reset, triggered by setting the BDRST bit in the 
  66:../../lib/STM32F4xx_StdPeriph_Driver/src/stm32f4xx_rtc.c ****   *                RCC Backup domain control register (RCC_BDCR). You can use the
  67:../../lib/STM32F4xx_StdPeriph_Driver/src/stm32f4xx_rtc.c ****   *                RCC_BackupResetCmd().
  68:../../lib/STM32F4xx_StdPeriph_Driver/src/stm32f4xx_rtc.c ****   *            2 - VDD or VBAT power on, if both supplies have previously been
  69:../../lib/STM32F4xx_StdPeriph_Driver/src/stm32f4xx_rtc.c ****   *                powered off.
  70:../../lib/STM32F4xx_StdPeriph_Driver/src/stm32f4xx_rtc.c ****   *
  71:../../lib/STM32F4xx_StdPeriph_Driver/src/stm32f4xx_rtc.c ****   *          ===================================================================
  72:../../lib/STM32F4xx_StdPeriph_Driver/src/stm32f4xx_rtc.c ****   *                                   Backup Domain Access
  73:../../lib/STM32F4xx_StdPeriph_Driver/src/stm32f4xx_rtc.c ****   *          ===================================================================
  74:../../lib/STM32F4xx_StdPeriph_Driver/src/stm32f4xx_rtc.c ****   *          After reset, the backup domain (RTC registers, RTC backup data 
  75:../../lib/STM32F4xx_StdPeriph_Driver/src/stm32f4xx_rtc.c ****   *          registers and backup SRAM) is protected against possible unwanted 
  76:../../lib/STM32F4xx_StdPeriph_Driver/src/stm32f4xx_rtc.c ****   *          write accesses. 
  77:../../lib/STM32F4xx_StdPeriph_Driver/src/stm32f4xx_rtc.c ****   *          To enable access to the RTC Domain and RTC registers, proceed as follows:
  78:../../lib/STM32F4xx_StdPeriph_Driver/src/stm32f4xx_rtc.c ****   *            - Enable the Power Controller (PWR) APB1 interface clock using the
  79:../../lib/STM32F4xx_StdPeriph_Driver/src/stm32f4xx_rtc.c ****   *              RCC_APB1PeriphClockCmd() function.
  80:../../lib/STM32F4xx_StdPeriph_Driver/src/stm32f4xx_rtc.c ****   *            - Enable access to RTC domain using the PWR_BackupAccessCmd() function.
  81:../../lib/STM32F4xx_StdPeriph_Driver/src/stm32f4xx_rtc.c ****   *            - Select the RTC clock source using the RCC_RTCCLKConfig() function.
  82:../../lib/STM32F4xx_StdPeriph_Driver/src/stm32f4xx_rtc.c ****   *            - Enable RTC Clock using the RCC_RTCCLKCmd() function.
  83:../../lib/STM32F4xx_StdPeriph_Driver/src/stm32f4xx_rtc.c ****   *
  84:../../lib/STM32F4xx_StdPeriph_Driver/src/stm32f4xx_rtc.c ****   *          ===================================================================
  85:../../lib/STM32F4xx_StdPeriph_Driver/src/stm32f4xx_rtc.c ****   *                                   RTC Driver: how to use it
  86:../../lib/STM32F4xx_StdPeriph_Driver/src/stm32f4xx_rtc.c ****   *          ===================================================================
  87:../../lib/STM32F4xx_StdPeriph_Driver/src/stm32f4xx_rtc.c ****   *            - Enable the RTC domain access (see description in the section above)
  88:../../lib/STM32F4xx_StdPeriph_Driver/src/stm32f4xx_rtc.c ****   *            - Configure the RTC Prescaler (Asynchronous and Synchronous) and
  89:../../lib/STM32F4xx_StdPeriph_Driver/src/stm32f4xx_rtc.c ****   *              RTC hour format using the RTC_Init() function.
  90:../../lib/STM32F4xx_StdPeriph_Driver/src/stm32f4xx_rtc.c ****   *
  91:../../lib/STM32F4xx_StdPeriph_Driver/src/stm32f4xx_rtc.c ****   *          Time and Date configuration
  92:../../lib/STM32F4xx_StdPeriph_Driver/src/stm32f4xx_rtc.c ****   *          ===========================
  93:../../lib/STM32F4xx_StdPeriph_Driver/src/stm32f4xx_rtc.c ****   *            - To configure the RTC Calendar (Time and Date) use the RTC_SetTime()
  94:../../lib/STM32F4xx_StdPeriph_Driver/src/stm32f4xx_rtc.c ****   *              and RTC_SetDate() functions.
  95:../../lib/STM32F4xx_StdPeriph_Driver/src/stm32f4xx_rtc.c ****   *            - To read the RTC Calendar, use the RTC_GetTime() and RTC_GetDate()
  96:../../lib/STM32F4xx_StdPeriph_Driver/src/stm32f4xx_rtc.c ****   *              functions.
  97:../../lib/STM32F4xx_StdPeriph_Driver/src/stm32f4xx_rtc.c ****   *            - Use the RTC_DayLightSavingConfig() function to add or sub one
  98:../../lib/STM32F4xx_StdPeriph_Driver/src/stm32f4xx_rtc.c ****   *              hour to the RTC Calendar.    
  99:../../lib/STM32F4xx_StdPeriph_Driver/src/stm32f4xx_rtc.c ****   *
 100:../../lib/STM32F4xx_StdPeriph_Driver/src/stm32f4xx_rtc.c ****   *          Alarm configuration
 101:../../lib/STM32F4xx_StdPeriph_Driver/src/stm32f4xx_rtc.c ****   *          ===================
 102:../../lib/STM32F4xx_StdPeriph_Driver/src/stm32f4xx_rtc.c ****   *            - To configure the RTC Alarm use the RTC_SetAlarm() function.
 103:../../lib/STM32F4xx_StdPeriph_Driver/src/stm32f4xx_rtc.c ****   *            - Enable the selected RTC Alarm using the RTC_AlarmCmd() function
 104:../../lib/STM32F4xx_StdPeriph_Driver/src/stm32f4xx_rtc.c ****   *            - To read the RTC Alarm, use the RTC_GetAlarm() function.
 105:../../lib/STM32F4xx_StdPeriph_Driver/src/stm32f4xx_rtc.c ****   *            - To read the RTC alarm SubSecond, use the RTC_GetAlarmSubSecond() function.
 106:../../lib/STM32F4xx_StdPeriph_Driver/src/stm32f4xx_rtc.c ****   *
 107:../../lib/STM32F4xx_StdPeriph_Driver/src/stm32f4xx_rtc.c ****   *          RTC Wakeup configuration
 108:../../lib/STM32F4xx_StdPeriph_Driver/src/stm32f4xx_rtc.c ****   *          ========================
 109:../../lib/STM32F4xx_StdPeriph_Driver/src/stm32f4xx_rtc.c ****   *            - Configure the RTC Wakeup Clock source use the RTC_WakeUpClockConfig()
 110:../../lib/STM32F4xx_StdPeriph_Driver/src/stm32f4xx_rtc.c ****   *              function.
 111:../../lib/STM32F4xx_StdPeriph_Driver/src/stm32f4xx_rtc.c ****   *            - Configure the RTC WakeUp Counter using the RTC_SetWakeUpCounter() 
 112:../../lib/STM32F4xx_StdPeriph_Driver/src/stm32f4xx_rtc.c ****   *              function  
 113:../../lib/STM32F4xx_StdPeriph_Driver/src/stm32f4xx_rtc.c ****   *            - Enable the RTC WakeUp using the RTC_WakeUpCmd() function  
 114:../../lib/STM32F4xx_StdPeriph_Driver/src/stm32f4xx_rtc.c ****   *            - To read the RTC WakeUp Counter register, use the RTC_GetWakeUpCounter() 
 115:../../lib/STM32F4xx_StdPeriph_Driver/src/stm32f4xx_rtc.c ****   *              function.
 116:../../lib/STM32F4xx_StdPeriph_Driver/src/stm32f4xx_rtc.c ****   *
 117:../../lib/STM32F4xx_StdPeriph_Driver/src/stm32f4xx_rtc.c ****   *          Outputs configuration
 118:../../lib/STM32F4xx_StdPeriph_Driver/src/stm32f4xx_rtc.c ****   *          =====================
 119:../../lib/STM32F4xx_StdPeriph_Driver/src/stm32f4xx_rtc.c ****   *          The RTC has 2 different outputs:
 120:../../lib/STM32F4xx_StdPeriph_Driver/src/stm32f4xx_rtc.c ****   *            - AFO_ALARM: this output is used to manage the RTC Alarm A, Alarm B
 121:../../lib/STM32F4xx_StdPeriph_Driver/src/stm32f4xx_rtc.c ****   *              and WaKeUp signals.          
 122:../../lib/STM32F4xx_StdPeriph_Driver/src/stm32f4xx_rtc.c ****   *              To output the selected RTC signal on RTC_AF1 pin, use the 
 123:../../lib/STM32F4xx_StdPeriph_Driver/src/stm32f4xx_rtc.c ****   *              RTC_OutputConfig() function.                
 124:../../lib/STM32F4xx_StdPeriph_Driver/src/stm32f4xx_rtc.c ****   *            - AFO_CALIB: this output is 512Hz signal or 1Hz .  
 125:../../lib/STM32F4xx_StdPeriph_Driver/src/stm32f4xx_rtc.c ****   *              To output the RTC Clock on RTC_AF1 pin, use the RTC_CalibOutputCmd()
 126:../../lib/STM32F4xx_StdPeriph_Driver/src/stm32f4xx_rtc.c ****   *              function.
 127:../../lib/STM32F4xx_StdPeriph_Driver/src/stm32f4xx_rtc.c ****   *
 128:../../lib/STM32F4xx_StdPeriph_Driver/src/stm32f4xx_rtc.c ****   *          Smooth digital Calibration configuration
 129:../../lib/STM32F4xx_StdPeriph_Driver/src/stm32f4xx_rtc.c ****   *          =================================    
 130:../../lib/STM32F4xx_StdPeriph_Driver/src/stm32f4xx_rtc.c ****   *            - Configure the RTC Original Digital Calibration Value and the corresponding
 131:../../lib/STM32F4xx_StdPeriph_Driver/src/stm32f4xx_rtc.c ****   *              calibration cycle period (32s,16s and 8s) using the RTC_SmoothCalibConfig() 
 132:../../lib/STM32F4xx_StdPeriph_Driver/src/stm32f4xx_rtc.c ****   *              function.
 133:../../lib/STM32F4xx_StdPeriph_Driver/src/stm32f4xx_rtc.c ****   *
 134:../../lib/STM32F4xx_StdPeriph_Driver/src/stm32f4xx_rtc.c ****   *          Coarse digital Calibration configuration
 135:../../lib/STM32F4xx_StdPeriph_Driver/src/stm32f4xx_rtc.c ****   *          =================================
 136:../../lib/STM32F4xx_StdPeriph_Driver/src/stm32f4xx_rtc.c ****   *            - Configure the RTC Coarse Calibration Value and the corresponding
 137:../../lib/STM32F4xx_StdPeriph_Driver/src/stm32f4xx_rtc.c ****   *              sign using the RTC_CoarseCalibConfig() function.
 138:../../lib/STM32F4xx_StdPeriph_Driver/src/stm32f4xx_rtc.c ****   *            - Enable the RTC Coarse Calibration using the RTC_CoarseCalibCmd() 
 139:../../lib/STM32F4xx_StdPeriph_Driver/src/stm32f4xx_rtc.c ****   *              function  
 140:../../lib/STM32F4xx_StdPeriph_Driver/src/stm32f4xx_rtc.c ****   *
 141:../../lib/STM32F4xx_StdPeriph_Driver/src/stm32f4xx_rtc.c ****   *          TimeStamp configuration
 142:../../lib/STM32F4xx_StdPeriph_Driver/src/stm32f4xx_rtc.c ****   *          =======================
 143:../../lib/STM32F4xx_StdPeriph_Driver/src/stm32f4xx_rtc.c ****   *            - Configure the RTC_AF1 trigger and enables the RTC TimeStamp 
 144:../../lib/STM32F4xx_StdPeriph_Driver/src/stm32f4xx_rtc.c ****   *              using the RTC_TimeStampCmd() function.
 145:../../lib/STM32F4xx_StdPeriph_Driver/src/stm32f4xx_rtc.c ****   *            - To read the RTC TimeStamp Time and Date register, use the 
 146:../../lib/STM32F4xx_StdPeriph_Driver/src/stm32f4xx_rtc.c ****   *              RTC_GetTimeStamp() function.
 147:../../lib/STM32F4xx_StdPeriph_Driver/src/stm32f4xx_rtc.c ****   *            - To read the RTC TimeStamp SubSecond register, use the 
 148:../../lib/STM32F4xx_StdPeriph_Driver/src/stm32f4xx_rtc.c ****   *              RTC_GetTimeStampSubSecond() function.
 149:../../lib/STM32F4xx_StdPeriph_Driver/src/stm32f4xx_rtc.c ****   *            - The TAMPER1 alternate function can be mapped either to RTC_AF1(PC13)
 150:../../lib/STM32F4xx_StdPeriph_Driver/src/stm32f4xx_rtc.c ****   *              or RTC_AF2 (PI8) depending on the value of TAMP1INSEL bit in 
 151:../../lib/STM32F4xx_StdPeriph_Driver/src/stm32f4xx_rtc.c ****   *              RTC_TAFCR register. You can use the  RTC_TamperPinSelection()
 152:../../lib/STM32F4xx_StdPeriph_Driver/src/stm32f4xx_rtc.c ****   *              function to select the corresponding pin.     
 153:../../lib/STM32F4xx_StdPeriph_Driver/src/stm32f4xx_rtc.c ****   *
 154:../../lib/STM32F4xx_StdPeriph_Driver/src/stm32f4xx_rtc.c ****   *          Tamper configuration
 155:../../lib/STM32F4xx_StdPeriph_Driver/src/stm32f4xx_rtc.c ****   *          ====================
 156:../../lib/STM32F4xx_StdPeriph_Driver/src/stm32f4xx_rtc.c ****   *            - Enable the RTC Tamper using the RTC_TamperCmd() function.
 157:../../lib/STM32F4xx_StdPeriph_Driver/src/stm32f4xx_rtc.c ****   *             - Configure the Tamper filter count using RTC_TamperFilterConfig()
 158:../../lib/STM32F4xx_StdPeriph_Driver/src/stm32f4xx_rtc.c ****   *              function. 
 159:../../lib/STM32F4xx_StdPeriph_Driver/src/stm32f4xx_rtc.c ****   *            - Configure the RTC Tamper trigger Edge or Level according to the Tamper 
 160:../../lib/STM32F4xx_StdPeriph_Driver/src/stm32f4xx_rtc.c ****   *              filter (if equal to 0 Edge else Level) value using the RTC_TamperConfig() function
 161:../../lib/STM32F4xx_StdPeriph_Driver/src/stm32f4xx_rtc.c ****   *            - Configure the Tamper sampling frequency using RTC_TamperSamplingFreqConfig()
 162:../../lib/STM32F4xx_StdPeriph_Driver/src/stm32f4xx_rtc.c ****   *              function.
 163:../../lib/STM32F4xx_StdPeriph_Driver/src/stm32f4xx_rtc.c ****   *            - Configure the Tamper precharge or discharge duration using 
 164:../../lib/STM32F4xx_StdPeriph_Driver/src/stm32f4xx_rtc.c ****   *              RTC_TamperPinsPrechargeDuration() function.
 165:../../lib/STM32F4xx_StdPeriph_Driver/src/stm32f4xx_rtc.c ****   *            - Enable the Tamper Pull-UP using RTC_TamperPullUpDisableCmd() function.
 166:../../lib/STM32F4xx_StdPeriph_Driver/src/stm32f4xx_rtc.c ****   *            - Enable the Time stamp on Tamper detection event using  
 167:../../lib/STM32F4xx_StdPeriph_Driver/src/stm32f4xx_rtc.c ****   *              RTC_TSOnTamperDetecCmd() function.
 168:../../lib/STM32F4xx_StdPeriph_Driver/src/stm32f4xx_rtc.c ****   *            - The TIMESTAMP alternate function can be mapped to either RTC_AF1 
 169:../../lib/STM32F4xx_StdPeriph_Driver/src/stm32f4xx_rtc.c ****   *              or RTC_AF2 depending on the value of the TSINSEL bit in the 
 170:../../lib/STM32F4xx_StdPeriph_Driver/src/stm32f4xx_rtc.c ****   *              RTC_TAFCR register. You can use the  RTC_TimeStampPinSelection()
 171:../../lib/STM32F4xx_StdPeriph_Driver/src/stm32f4xx_rtc.c ****   *              function to select the corresponding pin. 
 172:../../lib/STM32F4xx_StdPeriph_Driver/src/stm32f4xx_rtc.c ****   *
 173:../../lib/STM32F4xx_StdPeriph_Driver/src/stm32f4xx_rtc.c ****   *          Backup Data Registers configuration
 174:../../lib/STM32F4xx_StdPeriph_Driver/src/stm32f4xx_rtc.c ****   *          ===================================
 175:../../lib/STM32F4xx_StdPeriph_Driver/src/stm32f4xx_rtc.c ****   *            - To write to the RTC Backup Data registers, use the RTC_WriteBackupRegister()
 176:../../lib/STM32F4xx_StdPeriph_Driver/src/stm32f4xx_rtc.c ****   *              function.  
 177:../../lib/STM32F4xx_StdPeriph_Driver/src/stm32f4xx_rtc.c ****   *            - To read the RTC Backup Data registers, use the RTC_ReadBackupRegister()
 178:../../lib/STM32F4xx_StdPeriph_Driver/src/stm32f4xx_rtc.c ****   *              function.
 179:../../lib/STM32F4xx_StdPeriph_Driver/src/stm32f4xx_rtc.c ****   * 
 180:../../lib/STM32F4xx_StdPeriph_Driver/src/stm32f4xx_rtc.c ****   *          ===================================================================
 181:../../lib/STM32F4xx_StdPeriph_Driver/src/stm32f4xx_rtc.c ****   *                                  RTC and low power modes
 182:../../lib/STM32F4xx_StdPeriph_Driver/src/stm32f4xx_rtc.c ****   *          ===================================================================
 183:../../lib/STM32F4xx_StdPeriph_Driver/src/stm32f4xx_rtc.c ****   *           The MCU can be woken up from a low power mode by an RTC alternate 
 184:../../lib/STM32F4xx_StdPeriph_Driver/src/stm32f4xx_rtc.c ****   *           function.
 185:../../lib/STM32F4xx_StdPeriph_Driver/src/stm32f4xx_rtc.c ****   *           The RTC alternate functions are the RTC alarms (Alarm A and Alarm B), 
 186:../../lib/STM32F4xx_StdPeriph_Driver/src/stm32f4xx_rtc.c ****   *           RTC wakeup, RTC tamper event detection and RTC time stamp event detection.
 187:../../lib/STM32F4xx_StdPeriph_Driver/src/stm32f4xx_rtc.c ****   *           These RTC alternate functions can wake up the system from the Stop 
 188:../../lib/STM32F4xx_StdPeriph_Driver/src/stm32f4xx_rtc.c ****   *           and Standby lowpower modes.
 189:../../lib/STM32F4xx_StdPeriph_Driver/src/stm32f4xx_rtc.c ****   *           The system can also wake up from low power modes without depending 
 190:../../lib/STM32F4xx_StdPeriph_Driver/src/stm32f4xx_rtc.c ****   *           on an external interrupt (Auto-wakeup mode), by using the RTC alarm 
 191:../../lib/STM32F4xx_StdPeriph_Driver/src/stm32f4xx_rtc.c ****   *           or the RTC wakeup events.
 192:../../lib/STM32F4xx_StdPeriph_Driver/src/stm32f4xx_rtc.c ****   *           The RTC provides a programmable time base for waking up from the 
 193:../../lib/STM32F4xx_StdPeriph_Driver/src/stm32f4xx_rtc.c ****   *           Stop or Standby mode at regular intervals.
 194:../../lib/STM32F4xx_StdPeriph_Driver/src/stm32f4xx_rtc.c ****   *           Wakeup from STOP and Standby modes is possible only when the RTC 
 195:../../lib/STM32F4xx_StdPeriph_Driver/src/stm32f4xx_rtc.c ****   *           clock source is LSE or LSI.
 196:../../lib/STM32F4xx_StdPeriph_Driver/src/stm32f4xx_rtc.c ****   *
 197:../../lib/STM32F4xx_StdPeriph_Driver/src/stm32f4xx_rtc.c ****   *          ===================================================================
 198:../../lib/STM32F4xx_StdPeriph_Driver/src/stm32f4xx_rtc.c ****   *                            Selection of RTC_AF1 alternate functions
 199:../../lib/STM32F4xx_StdPeriph_Driver/src/stm32f4xx_rtc.c ****   *          ===================================================================
 200:../../lib/STM32F4xx_StdPeriph_Driver/src/stm32f4xx_rtc.c ****   *          The RTC_AF1 pin (PC13) can be used for the following purposes:
 201:../../lib/STM32F4xx_StdPeriph_Driver/src/stm32f4xx_rtc.c ****   *            - AFO_ALARM output
 202:../../lib/STM32F4xx_StdPeriph_Driver/src/stm32f4xx_rtc.c ****   *            - AFO_CALIB output
 203:../../lib/STM32F4xx_StdPeriph_Driver/src/stm32f4xx_rtc.c ****   *            - AFI_TAMPER
 204:../../lib/STM32F4xx_StdPeriph_Driver/src/stm32f4xx_rtc.c ****   *            - AFI_TIMESTAMP
 205:../../lib/STM32F4xx_StdPeriph_Driver/src/stm32f4xx_rtc.c ****   *
 206:../../lib/STM32F4xx_StdPeriph_Driver/src/stm32f4xx_rtc.c ****   * +----------------------------------------------------------------------------------------------
 207:../../lib/STM32F4xx_StdPeriph_Driver/src/stm32f4xx_rtc.c ****   * |     Pin         |AFO_ALARM |AFO_CALIB |AFI_TAMPER |AFI_TIMESTAMP | TAMP1INSEL |   TSINSEL    
 208:../../lib/STM32F4xx_StdPeriph_Driver/src/stm32f4xx_rtc.c ****   * |  configuration  | ENABLED  | ENABLED  |  ENABLED  |   ENABLED    |TAMPER1 pin |TIMESTAMP pin 
 209:../../lib/STM32F4xx_StdPeriph_Driver/src/stm32f4xx_rtc.c ****   * |  and function   |          |          |           |              | selection  |  selection   
 210:../../lib/STM32F4xx_StdPeriph_Driver/src/stm32f4xx_rtc.c ****   * |-----------------|----------|----------|-----------|--------------|------------|--------------
 211:../../lib/STM32F4xx_StdPeriph_Driver/src/stm32f4xx_rtc.c ****   * |   Alarm out     |          |          |           |              |    Don't   |     Don't    
 212:../../lib/STM32F4xx_StdPeriph_Driver/src/stm32f4xx_rtc.c ****   * |   output OD     |     1    |Don't care|Don't care | Don't care   |    care    |     care     
 213:../../lib/STM32F4xx_StdPeriph_Driver/src/stm32f4xx_rtc.c ****   * |-----------------|----------|----------|-----------|--------------|------------|--------------
 214:../../lib/STM32F4xx_StdPeriph_Driver/src/stm32f4xx_rtc.c ****   * |   Alarm out     |          |          |           |              |    Don't   |     Don't    
 215:../../lib/STM32F4xx_StdPeriph_Driver/src/stm32f4xx_rtc.c ****   * |   output PP     |     1    |Don't care|Don't care | Don't care   |    care    |     care     
 216:../../lib/STM32F4xx_StdPeriph_Driver/src/stm32f4xx_rtc.c ****   * |-----------------|----------|----------|-----------|--------------|------------|--------------
 217:../../lib/STM32F4xx_StdPeriph_Driver/src/stm32f4xx_rtc.c ****   * | Calibration out |          |          |           |              |    Don't   |     Don't    
 218:../../lib/STM32F4xx_StdPeriph_Driver/src/stm32f4xx_rtc.c ****   * |   output PP     |     0    |    1     |Don't care | Don't care   |    care    |     care     
 219:../../lib/STM32F4xx_StdPeriph_Driver/src/stm32f4xx_rtc.c ****   * |-----------------|----------|----------|-----------|--------------|------------|--------------
 220:../../lib/STM32F4xx_StdPeriph_Driver/src/stm32f4xx_rtc.c ****   * |  TAMPER input   |          |          |           |              |            |     Don't    
 221:../../lib/STM32F4xx_StdPeriph_Driver/src/stm32f4xx_rtc.c ****   * |   floating      |     0    |    0     |     1     |      0       |      0     |     care     
 222:../../lib/STM32F4xx_StdPeriph_Driver/src/stm32f4xx_rtc.c ****   * |-----------------|----------|----------|-----------|--------------|------------|--------------
 223:../../lib/STM32F4xx_StdPeriph_Driver/src/stm32f4xx_rtc.c ****   * |  TIMESTAMP and  |          |          |           |              |            |              
 224:../../lib/STM32F4xx_StdPeriph_Driver/src/stm32f4xx_rtc.c ****   * |  TAMPER input   |     0    |    0     |     1     |      1       |      0     |      0       
 225:../../lib/STM32F4xx_StdPeriph_Driver/src/stm32f4xx_rtc.c ****   * |   floating      |          |          |           |              |            |              
 226:../../lib/STM32F4xx_StdPeriph_Driver/src/stm32f4xx_rtc.c ****   * |-----------------|----------|----------|-----------|--------------|------------|--------------
 227:../../lib/STM32F4xx_StdPeriph_Driver/src/stm32f4xx_rtc.c ****   * | TIMESTAMP input |          |          |           |              |    Don't   |              
 228:../../lib/STM32F4xx_StdPeriph_Driver/src/stm32f4xx_rtc.c ****   * |    floating     |     0    |    0     |     0     |      1       |    care    |      0       
 229:../../lib/STM32F4xx_StdPeriph_Driver/src/stm32f4xx_rtc.c ****   * |-----------------|----------|----------|-----------|--------------|------------|--------------
 230:../../lib/STM32F4xx_StdPeriph_Driver/src/stm32f4xx_rtc.c ****   * |  Standard GPIO  |     0    |    0     |     0     |      0       | Don't care |  Don't care  
 231:../../lib/STM32F4xx_StdPeriph_Driver/src/stm32f4xx_rtc.c ****   * +----------------------------------------------------------------------------------------------
 232:../../lib/STM32F4xx_StdPeriph_Driver/src/stm32f4xx_rtc.c ****   *
 233:../../lib/STM32F4xx_StdPeriph_Driver/src/stm32f4xx_rtc.c ****   *
 234:../../lib/STM32F4xx_StdPeriph_Driver/src/stm32f4xx_rtc.c ****   *          ===================================================================
 235:../../lib/STM32F4xx_StdPeriph_Driver/src/stm32f4xx_rtc.c ****   *                            Selection of RTC_AF2 alternate functions
 236:../../lib/STM32F4xx_StdPeriph_Driver/src/stm32f4xx_rtc.c ****   *          ===================================================================
 237:../../lib/STM32F4xx_StdPeriph_Driver/src/stm32f4xx_rtc.c ****   *          The RTC_AF2 pin (PI8) can be used for the following purposes:
 238:../../lib/STM32F4xx_StdPeriph_Driver/src/stm32f4xx_rtc.c ****   *            - AFI_TAMPER
 239:../../lib/STM32F4xx_StdPeriph_Driver/src/stm32f4xx_rtc.c ****   *            - AFI_TIMESTAMP
 240:../../lib/STM32F4xx_StdPeriph_Driver/src/stm32f4xx_rtc.c ****   *
 241:../../lib/STM32F4xx_StdPeriph_Driver/src/stm32f4xx_rtc.c ****   * +---------------------------------------------------------------------------------------+
 242:../../lib/STM32F4xx_StdPeriph_Driver/src/stm32f4xx_rtc.c ****   * |     Pin         |AFI_TAMPER |AFI_TIMESTAMP | TAMP1INSEL |   TSINSEL    |ALARMOUTTYPE  |
 243:../../lib/STM32F4xx_StdPeriph_Driver/src/stm32f4xx_rtc.c ****   * |  configuration  |  ENABLED  |   ENABLED    |TAMPER1 pin |TIMESTAMP pin |  AFO_ALARM   |
 244:../../lib/STM32F4xx_StdPeriph_Driver/src/stm32f4xx_rtc.c ****   * |  and function   |           |              | selection  |  selection   |Configuration |
 245:../../lib/STM32F4xx_StdPeriph_Driver/src/stm32f4xx_rtc.c ****   * |-----------------|-----------|--------------|------------|--------------|--------------|
 246:../../lib/STM32F4xx_StdPeriph_Driver/src/stm32f4xx_rtc.c ****   * |  TAMPER input   |           |              |            |     Don't    |              |
 247:../../lib/STM32F4xx_StdPeriph_Driver/src/stm32f4xx_rtc.c ****   * |   floating      |     1     |      0       |      1     |     care     |  Don't care  |
 248:../../lib/STM32F4xx_StdPeriph_Driver/src/stm32f4xx_rtc.c ****   * |-----------------|-----------|--------------|------------|--------------|--------------|
 249:../../lib/STM32F4xx_StdPeriph_Driver/src/stm32f4xx_rtc.c ****   * |  TIMESTAMP and  |           |              |            |              |              |
 250:../../lib/STM32F4xx_StdPeriph_Driver/src/stm32f4xx_rtc.c ****   * |  TAMPER input   |     1     |      1       |      1     |      1       |  Don't care  |
 251:../../lib/STM32F4xx_StdPeriph_Driver/src/stm32f4xx_rtc.c ****   * |   floating      |           |              |            |              |              |
 252:../../lib/STM32F4xx_StdPeriph_Driver/src/stm32f4xx_rtc.c ****   * |-----------------|-----------|--------------|------------|--------------|--------------|
 253:../../lib/STM32F4xx_StdPeriph_Driver/src/stm32f4xx_rtc.c ****   * | TIMESTAMP input |           |              |    Don't   |              |              |
 254:../../lib/STM32F4xx_StdPeriph_Driver/src/stm32f4xx_rtc.c ****   * |    floating     |     0     |      1       |    care    |      1       |  Don't care  |
 255:../../lib/STM32F4xx_StdPeriph_Driver/src/stm32f4xx_rtc.c ****   * |-----------------|-----------|--------------|------------|--------------|--------------|
 256:../../lib/STM32F4xx_StdPeriph_Driver/src/stm32f4xx_rtc.c ****   * |  Standard GPIO  |     0     |      0       | Don't care |  Don't care  |  Don't care  |
 257:../../lib/STM32F4xx_StdPeriph_Driver/src/stm32f4xx_rtc.c ****   * +---------------------------------------------------------------------------------------+
 258:../../lib/STM32F4xx_StdPeriph_Driver/src/stm32f4xx_rtc.c ****   * 
 259:../../lib/STM32F4xx_StdPeriph_Driver/src/stm32f4xx_rtc.c ****   *
 260:../../lib/STM32F4xx_StdPeriph_Driver/src/stm32f4xx_rtc.c ****   *  @endverbatim
 261:../../lib/STM32F4xx_StdPeriph_Driver/src/stm32f4xx_rtc.c ****   *
 262:../../lib/STM32F4xx_StdPeriph_Driver/src/stm32f4xx_rtc.c ****   ******************************************************************************
 263:../../lib/STM32F4xx_StdPeriph_Driver/src/stm32f4xx_rtc.c ****   * @attention
 264:../../lib/STM32F4xx_StdPeriph_Driver/src/stm32f4xx_rtc.c ****   *
 265:../../lib/STM32F4xx_StdPeriph_Driver/src/stm32f4xx_rtc.c ****   * <h2><center>&copy; COPYRIGHT 2012 STMicroelectronics</center></h2>
 266:../../lib/STM32F4xx_StdPeriph_Driver/src/stm32f4xx_rtc.c ****   *
 267:../../lib/STM32F4xx_StdPeriph_Driver/src/stm32f4xx_rtc.c ****   * Licensed under MCD-ST Liberty SW License Agreement V2, (the "License");
 268:../../lib/STM32F4xx_StdPeriph_Driver/src/stm32f4xx_rtc.c ****   * You may not use this file except in compliance with the License.
 269:../../lib/STM32F4xx_StdPeriph_Driver/src/stm32f4xx_rtc.c ****   * You may obtain a copy of the License at:
 270:../../lib/STM32F4xx_StdPeriph_Driver/src/stm32f4xx_rtc.c ****   *
 271:../../lib/STM32F4xx_StdPeriph_Driver/src/stm32f4xx_rtc.c ****   *        http://www.st.com/software_license_agreement_liberty_v2
 272:../../lib/STM32F4xx_StdPeriph_Driver/src/stm32f4xx_rtc.c ****   *
 273:../../lib/STM32F4xx_StdPeriph_Driver/src/stm32f4xx_rtc.c ****   * Unless required by applicable law or agreed to in writing, software 
 274:../../lib/STM32F4xx_StdPeriph_Driver/src/stm32f4xx_rtc.c ****   * distributed under the License is distributed on an "AS IS" BASIS, 
 275:../../lib/STM32F4xx_StdPeriph_Driver/src/stm32f4xx_rtc.c ****   * WITHOUT WARRANTIES OR CONDITIONS OF ANY KIND, either express or implied.
 276:../../lib/STM32F4xx_StdPeriph_Driver/src/stm32f4xx_rtc.c ****   * See the License for the specific language governing permissions and
 277:../../lib/STM32F4xx_StdPeriph_Driver/src/stm32f4xx_rtc.c ****   * limitations under the License.
 278:../../lib/STM32F4xx_StdPeriph_Driver/src/stm32f4xx_rtc.c ****   *
 279:../../lib/STM32F4xx_StdPeriph_Driver/src/stm32f4xx_rtc.c ****   ******************************************************************************
 280:../../lib/STM32F4xx_StdPeriph_Driver/src/stm32f4xx_rtc.c ****   */ 
 281:../../lib/STM32F4xx_StdPeriph_Driver/src/stm32f4xx_rtc.c **** 
 282:../../lib/STM32F4xx_StdPeriph_Driver/src/stm32f4xx_rtc.c **** /* Includes ------------------------------------------------------------------*/
 283:../../lib/STM32F4xx_StdPeriph_Driver/src/stm32f4xx_rtc.c **** #include "stm32f4xx_rtc.h"
 284:../../lib/STM32F4xx_StdPeriph_Driver/src/stm32f4xx_rtc.c **** 
 285:../../lib/STM32F4xx_StdPeriph_Driver/src/stm32f4xx_rtc.c **** /** @addtogroup STM32F4xx_StdPeriph_Driver
 286:../../lib/STM32F4xx_StdPeriph_Driver/src/stm32f4xx_rtc.c ****   * @{
 287:../../lib/STM32F4xx_StdPeriph_Driver/src/stm32f4xx_rtc.c ****   */
 288:../../lib/STM32F4xx_StdPeriph_Driver/src/stm32f4xx_rtc.c **** 
 289:../../lib/STM32F4xx_StdPeriph_Driver/src/stm32f4xx_rtc.c **** /** @defgroup RTC 
 290:../../lib/STM32F4xx_StdPeriph_Driver/src/stm32f4xx_rtc.c ****   * @brief RTC driver modules
 291:../../lib/STM32F4xx_StdPeriph_Driver/src/stm32f4xx_rtc.c ****   * @{
 292:../../lib/STM32F4xx_StdPeriph_Driver/src/stm32f4xx_rtc.c ****   */
 293:../../lib/STM32F4xx_StdPeriph_Driver/src/stm32f4xx_rtc.c **** 
 294:../../lib/STM32F4xx_StdPeriph_Driver/src/stm32f4xx_rtc.c **** /* Private typedef -----------------------------------------------------------*/
 295:../../lib/STM32F4xx_StdPeriph_Driver/src/stm32f4xx_rtc.c **** /* Private define ------------------------------------------------------------*/
 296:../../lib/STM32F4xx_StdPeriph_Driver/src/stm32f4xx_rtc.c **** 
 297:../../lib/STM32F4xx_StdPeriph_Driver/src/stm32f4xx_rtc.c **** /* Masks Definition */
 298:../../lib/STM32F4xx_StdPeriph_Driver/src/stm32f4xx_rtc.c **** #define RTC_TR_RESERVED_MASK    ((uint32_t)0x007F7F7F)
 299:../../lib/STM32F4xx_StdPeriph_Driver/src/stm32f4xx_rtc.c **** #define RTC_DR_RESERVED_MASK    ((uint32_t)0x00FFFF3F) 
 300:../../lib/STM32F4xx_StdPeriph_Driver/src/stm32f4xx_rtc.c **** #define RTC_INIT_MASK           ((uint32_t)0xFFFFFFFF)  
 301:../../lib/STM32F4xx_StdPeriph_Driver/src/stm32f4xx_rtc.c **** #define RTC_RSF_MASK            ((uint32_t)0xFFFFFF5F)
 302:../../lib/STM32F4xx_StdPeriph_Driver/src/stm32f4xx_rtc.c **** #define RTC_FLAGS_MASK          ((uint32_t)(RTC_FLAG_TSOVF | RTC_FLAG_TSF | RTC_FLAG_WUTF | \
 303:../../lib/STM32F4xx_StdPeriph_Driver/src/stm32f4xx_rtc.c ****                                             RTC_FLAG_ALRBF | RTC_FLAG_ALRAF | RTC_FLAG_INITF | \
 304:../../lib/STM32F4xx_StdPeriph_Driver/src/stm32f4xx_rtc.c ****                                             RTC_FLAG_RSF | RTC_FLAG_INITS | RTC_FLAG_WUTWF | \
 305:../../lib/STM32F4xx_StdPeriph_Driver/src/stm32f4xx_rtc.c ****                                             RTC_FLAG_ALRBWF | RTC_FLAG_ALRAWF | RTC_FLAG_TAMP1F | \
 306:../../lib/STM32F4xx_StdPeriph_Driver/src/stm32f4xx_rtc.c ****                                             RTC_FLAG_RECALPF | RTC_FLAG_SHPF))
 307:../../lib/STM32F4xx_StdPeriph_Driver/src/stm32f4xx_rtc.c **** 
 308:../../lib/STM32F4xx_StdPeriph_Driver/src/stm32f4xx_rtc.c **** #define INITMODE_TIMEOUT         ((uint32_t) 0x00010000)
 309:../../lib/STM32F4xx_StdPeriph_Driver/src/stm32f4xx_rtc.c **** #define SYNCHRO_TIMEOUT          ((uint32_t) 0x00020000)
 310:../../lib/STM32F4xx_StdPeriph_Driver/src/stm32f4xx_rtc.c **** #define RECALPF_TIMEOUT          ((uint32_t) 0x00020000)
 311:../../lib/STM32F4xx_StdPeriph_Driver/src/stm32f4xx_rtc.c **** #define SHPF_TIMEOUT             ((uint32_t) 0x00001000)
 312:../../lib/STM32F4xx_StdPeriph_Driver/src/stm32f4xx_rtc.c **** 
 313:../../lib/STM32F4xx_StdPeriph_Driver/src/stm32f4xx_rtc.c **** /* Private macro -------------------------------------------------------------*/
 314:../../lib/STM32F4xx_StdPeriph_Driver/src/stm32f4xx_rtc.c **** /* Private variables ---------------------------------------------------------*/
 315:../../lib/STM32F4xx_StdPeriph_Driver/src/stm32f4xx_rtc.c **** /* Private function prototypes -----------------------------------------------*/
 316:../../lib/STM32F4xx_StdPeriph_Driver/src/stm32f4xx_rtc.c **** static uint8_t RTC_ByteToBcd2(uint8_t Value);
 317:../../lib/STM32F4xx_StdPeriph_Driver/src/stm32f4xx_rtc.c **** static uint8_t RTC_Bcd2ToByte(uint8_t Value);
 318:../../lib/STM32F4xx_StdPeriph_Driver/src/stm32f4xx_rtc.c **** 
 319:../../lib/STM32F4xx_StdPeriph_Driver/src/stm32f4xx_rtc.c **** /* Private functions ---------------------------------------------------------*/
 320:../../lib/STM32F4xx_StdPeriph_Driver/src/stm32f4xx_rtc.c **** 
 321:../../lib/STM32F4xx_StdPeriph_Driver/src/stm32f4xx_rtc.c **** /** @defgroup RTC_Private_Functions
 322:../../lib/STM32F4xx_StdPeriph_Driver/src/stm32f4xx_rtc.c ****   * @{
 323:../../lib/STM32F4xx_StdPeriph_Driver/src/stm32f4xx_rtc.c ****   */ 
 324:../../lib/STM32F4xx_StdPeriph_Driver/src/stm32f4xx_rtc.c **** 
 325:../../lib/STM32F4xx_StdPeriph_Driver/src/stm32f4xx_rtc.c **** /** @defgroup RTC_Group1 Initialization and Configuration functions
 326:../../lib/STM32F4xx_StdPeriph_Driver/src/stm32f4xx_rtc.c ****  *  @brief   Initialization and Configuration functions 
 327:../../lib/STM32F4xx_StdPeriph_Driver/src/stm32f4xx_rtc.c ****  *
 328:../../lib/STM32F4xx_StdPeriph_Driver/src/stm32f4xx_rtc.c **** @verbatim   
 329:../../lib/STM32F4xx_StdPeriph_Driver/src/stm32f4xx_rtc.c ****  ===============================================================================
 330:../../lib/STM32F4xx_StdPeriph_Driver/src/stm32f4xx_rtc.c ****                  Initialization and Configuration functions
 331:../../lib/STM32F4xx_StdPeriph_Driver/src/stm32f4xx_rtc.c ****  ===============================================================================
 332:../../lib/STM32F4xx_StdPeriph_Driver/src/stm32f4xx_rtc.c **** 
 333:../../lib/STM32F4xx_StdPeriph_Driver/src/stm32f4xx_rtc.c ****   This section provide functions allowing to initialize and configure the RTC
 334:../../lib/STM32F4xx_StdPeriph_Driver/src/stm32f4xx_rtc.c ****   Prescaler (Synchronous and Asynchronous), RTC Hour format, disable RTC registers
 335:../../lib/STM32F4xx_StdPeriph_Driver/src/stm32f4xx_rtc.c ****   Write protection, enter and exit the RTC initialization mode, RTC registers
 336:../../lib/STM32F4xx_StdPeriph_Driver/src/stm32f4xx_rtc.c ****   synchronization check and reference clock detection enable.
 337:../../lib/STM32F4xx_StdPeriph_Driver/src/stm32f4xx_rtc.c ****   
 338:../../lib/STM32F4xx_StdPeriph_Driver/src/stm32f4xx_rtc.c ****   1. The RTC Prescaler is programmed to generate the RTC 1Hz time base. It is
 339:../../lib/STM32F4xx_StdPeriph_Driver/src/stm32f4xx_rtc.c ****      split into 2 programmable prescalers to minimize power consumption.
 340:../../lib/STM32F4xx_StdPeriph_Driver/src/stm32f4xx_rtc.c ****      - A 7-bit asynchronous prescaler and A 13-bit synchronous prescaler.
 341:../../lib/STM32F4xx_StdPeriph_Driver/src/stm32f4xx_rtc.c ****      - When both prescalers are used, it is recommended to configure the asynchronous
 342:../../lib/STM32F4xx_StdPeriph_Driver/src/stm32f4xx_rtc.c ****        prescaler to a high value to minimize consumption.
 343:../../lib/STM32F4xx_StdPeriph_Driver/src/stm32f4xx_rtc.c **** 
 344:../../lib/STM32F4xx_StdPeriph_Driver/src/stm32f4xx_rtc.c ****   2. All RTC registers are Write protected. Writing to the RTC registers
 345:../../lib/STM32F4xx_StdPeriph_Driver/src/stm32f4xx_rtc.c ****      is enabled by writing a key into the Write Protection register, RTC_WPR.
 346:../../lib/STM32F4xx_StdPeriph_Driver/src/stm32f4xx_rtc.c **** 
 347:../../lib/STM32F4xx_StdPeriph_Driver/src/stm32f4xx_rtc.c ****   3. To Configure the RTC Calendar, user application should enter initialization
 348:../../lib/STM32F4xx_StdPeriph_Driver/src/stm32f4xx_rtc.c ****      mode. In this mode, the calendar counter is stopped and its value can be 
 349:../../lib/STM32F4xx_StdPeriph_Driver/src/stm32f4xx_rtc.c ****      updated. When the initialization sequence is complete, the calendar restarts 
 350:../../lib/STM32F4xx_StdPeriph_Driver/src/stm32f4xx_rtc.c ****      counting after 4 RTCCLK cycles.
 351:../../lib/STM32F4xx_StdPeriph_Driver/src/stm32f4xx_rtc.c **** 
 352:../../lib/STM32F4xx_StdPeriph_Driver/src/stm32f4xx_rtc.c ****   4. To read the calendar through the shadow registers after Calendar initialization,
 353:../../lib/STM32F4xx_StdPeriph_Driver/src/stm32f4xx_rtc.c ****      calendar update or after wakeup from low power modes the software must first 
 354:../../lib/STM32F4xx_StdPeriph_Driver/src/stm32f4xx_rtc.c ****      clear the RSF flag. The software must then wait until it is set again before 
 355:../../lib/STM32F4xx_StdPeriph_Driver/src/stm32f4xx_rtc.c ****      reading the calendar, which means that the calendar registers have been 
 356:../../lib/STM32F4xx_StdPeriph_Driver/src/stm32f4xx_rtc.c ****      correctly copied into the RTC_TR and RTC_DR shadow registers.
 357:../../lib/STM32F4xx_StdPeriph_Driver/src/stm32f4xx_rtc.c ****      The RTC_WaitForSynchro() function implements the above software sequence 
 358:../../lib/STM32F4xx_StdPeriph_Driver/src/stm32f4xx_rtc.c ****      (RSF clear and RSF check).
 359:../../lib/STM32F4xx_StdPeriph_Driver/src/stm32f4xx_rtc.c **** 
 360:../../lib/STM32F4xx_StdPeriph_Driver/src/stm32f4xx_rtc.c **** @endverbatim
 361:../../lib/STM32F4xx_StdPeriph_Driver/src/stm32f4xx_rtc.c ****   * @{
 362:../../lib/STM32F4xx_StdPeriph_Driver/src/stm32f4xx_rtc.c ****   */
 363:../../lib/STM32F4xx_StdPeriph_Driver/src/stm32f4xx_rtc.c **** 
 364:../../lib/STM32F4xx_StdPeriph_Driver/src/stm32f4xx_rtc.c **** /**
 365:../../lib/STM32F4xx_StdPeriph_Driver/src/stm32f4xx_rtc.c ****   * @brief  Deinitializes the RTC registers to their default reset values.
 366:../../lib/STM32F4xx_StdPeriph_Driver/src/stm32f4xx_rtc.c ****   * @note   This function doesn't reset the RTC Clock source and RTC Backup Data
 367:../../lib/STM32F4xx_StdPeriph_Driver/src/stm32f4xx_rtc.c ****   *         registers.       
 368:../../lib/STM32F4xx_StdPeriph_Driver/src/stm32f4xx_rtc.c ****   * @param  None
 369:../../lib/STM32F4xx_StdPeriph_Driver/src/stm32f4xx_rtc.c ****   * @retval An ErrorStatus enumeration value:
 370:../../lib/STM32F4xx_StdPeriph_Driver/src/stm32f4xx_rtc.c ****   *          - SUCCESS: RTC registers are deinitialized
 371:../../lib/STM32F4xx_StdPeriph_Driver/src/stm32f4xx_rtc.c ****   *          - ERROR: RTC registers are not deinitialized
 372:../../lib/STM32F4xx_StdPeriph_Driver/src/stm32f4xx_rtc.c ****   */
 373:../../lib/STM32F4xx_StdPeriph_Driver/src/stm32f4xx_rtc.c **** ErrorStatus RTC_DeInit(void)
 374:../../lib/STM32F4xx_StdPeriph_Driver/src/stm32f4xx_rtc.c **** {
  25              		.loc 1 374 0
  26              		.cfi_startproc
  27              		@ args = 0, pretend = 0, frame = 16
  28              		@ frame_needed = 0, uses_anonymous_args = 0
  29              		@ link register save eliminated.
  30 0000 84B0     		sub	sp, sp, #16
  31              	.LCFI0:
  32              		.cfi_def_cfa_offset 16
 375:../../lib/STM32F4xx_StdPeriph_Driver/src/stm32f4xx_rtc.c ****   __IO uint32_t wutcounter = 0x00;
 376:../../lib/STM32F4xx_StdPeriph_Driver/src/stm32f4xx_rtc.c ****   uint32_t wutwfstatus = 0x00;
 377:../../lib/STM32F4xx_StdPeriph_Driver/src/stm32f4xx_rtc.c ****   ErrorStatus status = ERROR;
 378:../../lib/STM32F4xx_StdPeriph_Driver/src/stm32f4xx_rtc.c ****   
 379:../../lib/STM32F4xx_StdPeriph_Driver/src/stm32f4xx_rtc.c ****   /* Disable the write protection for RTC registers */
 380:../../lib/STM32F4xx_StdPeriph_Driver/src/stm32f4xx_rtc.c ****   RTC->WPR = 0xCA;
  33              		.loc 1 380 0
  34 0002 3849     		ldr	r1, .L48
 375:../../lib/STM32F4xx_StdPeriph_Driver/src/stm32f4xx_rtc.c ****   __IO uint32_t wutcounter = 0x00;
  35              		.loc 1 375 0
  36 0004 0023     		movs	r3, #0
  37 0006 0193     		str	r3, [sp, #4]
  38              	.LVL0:
  39              		.loc 1 380 0
  40 0008 CA22     		movs	r2, #202
  41 000a 4A62     		str	r2, [r1, #36]
 381:../../lib/STM32F4xx_StdPeriph_Driver/src/stm32f4xx_rtc.c ****   RTC->WPR = 0x53;
  42              		.loc 1 381 0
  43 000c 5322     		movs	r2, #83
  44 000e 4A62     		str	r2, [r1, #36]
  45              	.LBB84:
  46              	.LBB85:
 382:../../lib/STM32F4xx_StdPeriph_Driver/src/stm32f4xx_rtc.c **** 
 383:../../lib/STM32F4xx_StdPeriph_Driver/src/stm32f4xx_rtc.c ****   /* Set Initialization mode */
 384:../../lib/STM32F4xx_StdPeriph_Driver/src/stm32f4xx_rtc.c ****   if (RTC_EnterInitMode() == ERROR)
 385:../../lib/STM32F4xx_StdPeriph_Driver/src/stm32f4xx_rtc.c ****   {
 386:../../lib/STM32F4xx_StdPeriph_Driver/src/stm32f4xx_rtc.c ****     status = ERROR;
 387:../../lib/STM32F4xx_StdPeriph_Driver/src/stm32f4xx_rtc.c ****   }  
 388:../../lib/STM32F4xx_StdPeriph_Driver/src/stm32f4xx_rtc.c ****   else
 389:../../lib/STM32F4xx_StdPeriph_Driver/src/stm32f4xx_rtc.c ****   {
 390:../../lib/STM32F4xx_StdPeriph_Driver/src/stm32f4xx_rtc.c ****     /* Reset TR, DR and CR registers */
 391:../../lib/STM32F4xx_StdPeriph_Driver/src/stm32f4xx_rtc.c ****     RTC->TR = (uint32_t)0x00000000;
 392:../../lib/STM32F4xx_StdPeriph_Driver/src/stm32f4xx_rtc.c ****     RTC->DR = (uint32_t)0x00002101;
 393:../../lib/STM32F4xx_StdPeriph_Driver/src/stm32f4xx_rtc.c ****     /* Reset All CR bits except CR[2:0] */
 394:../../lib/STM32F4xx_StdPeriph_Driver/src/stm32f4xx_rtc.c ****     RTC->CR &= (uint32_t)0x00000007;
 395:../../lib/STM32F4xx_StdPeriph_Driver/src/stm32f4xx_rtc.c ****   
 396:../../lib/STM32F4xx_StdPeriph_Driver/src/stm32f4xx_rtc.c ****     /* Wait till RTC WUTWF flag is set and if Time out is reached exit */
 397:../../lib/STM32F4xx_StdPeriph_Driver/src/stm32f4xx_rtc.c ****     do
 398:../../lib/STM32F4xx_StdPeriph_Driver/src/stm32f4xx_rtc.c ****     {
 399:../../lib/STM32F4xx_StdPeriph_Driver/src/stm32f4xx_rtc.c ****       wutwfstatus = RTC->ISR & RTC_ISR_WUTWF;
 400:../../lib/STM32F4xx_StdPeriph_Driver/src/stm32f4xx_rtc.c ****       wutcounter++;  
 401:../../lib/STM32F4xx_StdPeriph_Driver/src/stm32f4xx_rtc.c ****     } while((wutcounter != INITMODE_TIMEOUT) && (wutwfstatus == 0x00));
 402:../../lib/STM32F4xx_StdPeriph_Driver/src/stm32f4xx_rtc.c ****     
 403:../../lib/STM32F4xx_StdPeriph_Driver/src/stm32f4xx_rtc.c ****     if ((RTC->ISR & RTC_ISR_WUTWF) == RESET)
 404:../../lib/STM32F4xx_StdPeriph_Driver/src/stm32f4xx_rtc.c ****     {
 405:../../lib/STM32F4xx_StdPeriph_Driver/src/stm32f4xx_rtc.c ****       status = ERROR;
 406:../../lib/STM32F4xx_StdPeriph_Driver/src/stm32f4xx_rtc.c ****     }
 407:../../lib/STM32F4xx_StdPeriph_Driver/src/stm32f4xx_rtc.c ****     else
 408:../../lib/STM32F4xx_StdPeriph_Driver/src/stm32f4xx_rtc.c ****     {
 409:../../lib/STM32F4xx_StdPeriph_Driver/src/stm32f4xx_rtc.c ****       /* Reset all RTC CR register bits */
 410:../../lib/STM32F4xx_StdPeriph_Driver/src/stm32f4xx_rtc.c ****       RTC->CR &= (uint32_t)0x00000000;
 411:../../lib/STM32F4xx_StdPeriph_Driver/src/stm32f4xx_rtc.c ****       RTC->WUTR = (uint32_t)0x0000FFFF;
 412:../../lib/STM32F4xx_StdPeriph_Driver/src/stm32f4xx_rtc.c ****       RTC->PRER = (uint32_t)0x007F00FF;
 413:../../lib/STM32F4xx_StdPeriph_Driver/src/stm32f4xx_rtc.c ****       RTC->CALIBR = (uint32_t)0x00000000;
 414:../../lib/STM32F4xx_StdPeriph_Driver/src/stm32f4xx_rtc.c ****       RTC->ALRMAR = (uint32_t)0x00000000;        
 415:../../lib/STM32F4xx_StdPeriph_Driver/src/stm32f4xx_rtc.c ****       RTC->ALRMBR = (uint32_t)0x00000000;
 416:../../lib/STM32F4xx_StdPeriph_Driver/src/stm32f4xx_rtc.c ****       RTC->SHIFTR = (uint32_t)0x00000000;
 417:../../lib/STM32F4xx_StdPeriph_Driver/src/stm32f4xx_rtc.c ****       RTC->CALR = (uint32_t)0x00000000;
 418:../../lib/STM32F4xx_StdPeriph_Driver/src/stm32f4xx_rtc.c ****       RTC->ALRMASSR = (uint32_t)0x00000000;
 419:../../lib/STM32F4xx_StdPeriph_Driver/src/stm32f4xx_rtc.c ****       RTC->ALRMBSSR = (uint32_t)0x00000000;
 420:../../lib/STM32F4xx_StdPeriph_Driver/src/stm32f4xx_rtc.c ****       
 421:../../lib/STM32F4xx_StdPeriph_Driver/src/stm32f4xx_rtc.c ****       /* Reset ISR register and exit initialization mode */
 422:../../lib/STM32F4xx_StdPeriph_Driver/src/stm32f4xx_rtc.c ****       RTC->ISR = (uint32_t)0x00000000;
 423:../../lib/STM32F4xx_StdPeriph_Driver/src/stm32f4xx_rtc.c ****       
 424:../../lib/STM32F4xx_StdPeriph_Driver/src/stm32f4xx_rtc.c ****       /* Reset Tamper and alternate functions configuration register */
 425:../../lib/STM32F4xx_StdPeriph_Driver/src/stm32f4xx_rtc.c ****       RTC->TAFCR = 0x00000000;
 426:../../lib/STM32F4xx_StdPeriph_Driver/src/stm32f4xx_rtc.c ****   
 427:../../lib/STM32F4xx_StdPeriph_Driver/src/stm32f4xx_rtc.c ****       if(RTC_WaitForSynchro() == ERROR)
 428:../../lib/STM32F4xx_StdPeriph_Driver/src/stm32f4xx_rtc.c ****       {
 429:../../lib/STM32F4xx_StdPeriph_Driver/src/stm32f4xx_rtc.c ****         status = ERROR;
 430:../../lib/STM32F4xx_StdPeriph_Driver/src/stm32f4xx_rtc.c ****       }
 431:../../lib/STM32F4xx_StdPeriph_Driver/src/stm32f4xx_rtc.c ****       else
 432:../../lib/STM32F4xx_StdPeriph_Driver/src/stm32f4xx_rtc.c ****       {
 433:../../lib/STM32F4xx_StdPeriph_Driver/src/stm32f4xx_rtc.c ****         status = SUCCESS;      
 434:../../lib/STM32F4xx_StdPeriph_Driver/src/stm32f4xx_rtc.c ****       }
 435:../../lib/STM32F4xx_StdPeriph_Driver/src/stm32f4xx_rtc.c ****     }
 436:../../lib/STM32F4xx_StdPeriph_Driver/src/stm32f4xx_rtc.c ****   }
 437:../../lib/STM32F4xx_StdPeriph_Driver/src/stm32f4xx_rtc.c ****   
 438:../../lib/STM32F4xx_StdPeriph_Driver/src/stm32f4xx_rtc.c ****   /* Enable the write protection for RTC registers */
 439:../../lib/STM32F4xx_StdPeriph_Driver/src/stm32f4xx_rtc.c ****   RTC->WPR = 0xFF;  
 440:../../lib/STM32F4xx_StdPeriph_Driver/src/stm32f4xx_rtc.c ****   
 441:../../lib/STM32F4xx_StdPeriph_Driver/src/stm32f4xx_rtc.c ****   return status;
 442:../../lib/STM32F4xx_StdPeriph_Driver/src/stm32f4xx_rtc.c **** }
 443:../../lib/STM32F4xx_StdPeriph_Driver/src/stm32f4xx_rtc.c **** 
 444:../../lib/STM32F4xx_StdPeriph_Driver/src/stm32f4xx_rtc.c **** /**
 445:../../lib/STM32F4xx_StdPeriph_Driver/src/stm32f4xx_rtc.c ****   * @brief  Initializes the RTC registers according to the specified parameters 
 446:../../lib/STM32F4xx_StdPeriph_Driver/src/stm32f4xx_rtc.c ****   *         in RTC_InitStruct.
 447:../../lib/STM32F4xx_StdPeriph_Driver/src/stm32f4xx_rtc.c ****   * @param  RTC_InitStruct: pointer to a RTC_InitTypeDef structure that contains 
 448:../../lib/STM32F4xx_StdPeriph_Driver/src/stm32f4xx_rtc.c ****   *         the configuration information for the RTC peripheral.
 449:../../lib/STM32F4xx_StdPeriph_Driver/src/stm32f4xx_rtc.c ****   * @note   The RTC Prescaler register is write protected and can be written in 
 450:../../lib/STM32F4xx_StdPeriph_Driver/src/stm32f4xx_rtc.c ****   *         initialization mode only.  
 451:../../lib/STM32F4xx_StdPeriph_Driver/src/stm32f4xx_rtc.c ****   * @retval An ErrorStatus enumeration value:
 452:../../lib/STM32F4xx_StdPeriph_Driver/src/stm32f4xx_rtc.c ****   *          - SUCCESS: RTC registers are initialized
 453:../../lib/STM32F4xx_StdPeriph_Driver/src/stm32f4xx_rtc.c ****   *          - ERROR: RTC registers are not initialized  
 454:../../lib/STM32F4xx_StdPeriph_Driver/src/stm32f4xx_rtc.c ****   */
 455:../../lib/STM32F4xx_StdPeriph_Driver/src/stm32f4xx_rtc.c **** ErrorStatus RTC_Init(RTC_InitTypeDef* RTC_InitStruct)
 456:../../lib/STM32F4xx_StdPeriph_Driver/src/stm32f4xx_rtc.c **** {
 457:../../lib/STM32F4xx_StdPeriph_Driver/src/stm32f4xx_rtc.c ****   ErrorStatus status = ERROR;
 458:../../lib/STM32F4xx_StdPeriph_Driver/src/stm32f4xx_rtc.c ****   
 459:../../lib/STM32F4xx_StdPeriph_Driver/src/stm32f4xx_rtc.c ****   /* Check the parameters */
 460:../../lib/STM32F4xx_StdPeriph_Driver/src/stm32f4xx_rtc.c ****   assert_param(IS_RTC_HOUR_FORMAT(RTC_InitStruct->RTC_HourFormat));
 461:../../lib/STM32F4xx_StdPeriph_Driver/src/stm32f4xx_rtc.c ****   assert_param(IS_RTC_ASYNCH_PREDIV(RTC_InitStruct->RTC_AsynchPrediv));
 462:../../lib/STM32F4xx_StdPeriph_Driver/src/stm32f4xx_rtc.c ****   assert_param(IS_RTC_SYNCH_PREDIV(RTC_InitStruct->RTC_SynchPrediv));
 463:../../lib/STM32F4xx_StdPeriph_Driver/src/stm32f4xx_rtc.c **** 
 464:../../lib/STM32F4xx_StdPeriph_Driver/src/stm32f4xx_rtc.c ****   /* Disable the write protection for RTC registers */
 465:../../lib/STM32F4xx_StdPeriph_Driver/src/stm32f4xx_rtc.c ****   RTC->WPR = 0xCA;
 466:../../lib/STM32F4xx_StdPeriph_Driver/src/stm32f4xx_rtc.c ****   RTC->WPR = 0x53;
 467:../../lib/STM32F4xx_StdPeriph_Driver/src/stm32f4xx_rtc.c **** 
 468:../../lib/STM32F4xx_StdPeriph_Driver/src/stm32f4xx_rtc.c ****   /* Set Initialization mode */
 469:../../lib/STM32F4xx_StdPeriph_Driver/src/stm32f4xx_rtc.c ****   if (RTC_EnterInitMode() == ERROR)
 470:../../lib/STM32F4xx_StdPeriph_Driver/src/stm32f4xx_rtc.c ****   {
 471:../../lib/STM32F4xx_StdPeriph_Driver/src/stm32f4xx_rtc.c ****     status = ERROR;
 472:../../lib/STM32F4xx_StdPeriph_Driver/src/stm32f4xx_rtc.c ****   } 
 473:../../lib/STM32F4xx_StdPeriph_Driver/src/stm32f4xx_rtc.c ****   else
 474:../../lib/STM32F4xx_StdPeriph_Driver/src/stm32f4xx_rtc.c ****   {
 475:../../lib/STM32F4xx_StdPeriph_Driver/src/stm32f4xx_rtc.c ****     /* Clear RTC CR FMT Bit */
 476:../../lib/STM32F4xx_StdPeriph_Driver/src/stm32f4xx_rtc.c ****     RTC->CR &= ((uint32_t)~(RTC_CR_FMT));
 477:../../lib/STM32F4xx_StdPeriph_Driver/src/stm32f4xx_rtc.c ****     /* Set RTC_CR register */
 478:../../lib/STM32F4xx_StdPeriph_Driver/src/stm32f4xx_rtc.c ****     RTC->CR |=  ((uint32_t)(RTC_InitStruct->RTC_HourFormat));
 479:../../lib/STM32F4xx_StdPeriph_Driver/src/stm32f4xx_rtc.c ****   
 480:../../lib/STM32F4xx_StdPeriph_Driver/src/stm32f4xx_rtc.c ****     /* Configure the RTC PRER */
 481:../../lib/STM32F4xx_StdPeriph_Driver/src/stm32f4xx_rtc.c ****     RTC->PRER = (uint32_t)(RTC_InitStruct->RTC_SynchPrediv);
 482:../../lib/STM32F4xx_StdPeriph_Driver/src/stm32f4xx_rtc.c ****     RTC->PRER |= (uint32_t)(RTC_InitStruct->RTC_AsynchPrediv << 16);
 483:../../lib/STM32F4xx_StdPeriph_Driver/src/stm32f4xx_rtc.c **** 
 484:../../lib/STM32F4xx_StdPeriph_Driver/src/stm32f4xx_rtc.c ****     /* Exit Initialization mode */
 485:../../lib/STM32F4xx_StdPeriph_Driver/src/stm32f4xx_rtc.c ****     RTC_ExitInitMode();
 486:../../lib/STM32F4xx_StdPeriph_Driver/src/stm32f4xx_rtc.c **** 
 487:../../lib/STM32F4xx_StdPeriph_Driver/src/stm32f4xx_rtc.c ****     status = SUCCESS;    
 488:../../lib/STM32F4xx_StdPeriph_Driver/src/stm32f4xx_rtc.c ****   }
 489:../../lib/STM32F4xx_StdPeriph_Driver/src/stm32f4xx_rtc.c ****   /* Enable the write protection for RTC registers */
 490:../../lib/STM32F4xx_StdPeriph_Driver/src/stm32f4xx_rtc.c ****   RTC->WPR = 0xFF; 
 491:../../lib/STM32F4xx_StdPeriph_Driver/src/stm32f4xx_rtc.c ****   
 492:../../lib/STM32F4xx_StdPeriph_Driver/src/stm32f4xx_rtc.c ****   return status;
 493:../../lib/STM32F4xx_StdPeriph_Driver/src/stm32f4xx_rtc.c **** }
 494:../../lib/STM32F4xx_StdPeriph_Driver/src/stm32f4xx_rtc.c **** 
 495:../../lib/STM32F4xx_StdPeriph_Driver/src/stm32f4xx_rtc.c **** /**
 496:../../lib/STM32F4xx_StdPeriph_Driver/src/stm32f4xx_rtc.c ****   * @brief  Fills each RTC_InitStruct member with its default value.
 497:../../lib/STM32F4xx_StdPeriph_Driver/src/stm32f4xx_rtc.c ****   * @param  RTC_InitStruct: pointer to a RTC_InitTypeDef structure which will be 
 498:../../lib/STM32F4xx_StdPeriph_Driver/src/stm32f4xx_rtc.c ****   *         initialized.
 499:../../lib/STM32F4xx_StdPeriph_Driver/src/stm32f4xx_rtc.c ****   * @retval None
 500:../../lib/STM32F4xx_StdPeriph_Driver/src/stm32f4xx_rtc.c ****   */
 501:../../lib/STM32F4xx_StdPeriph_Driver/src/stm32f4xx_rtc.c **** void RTC_StructInit(RTC_InitTypeDef* RTC_InitStruct)
 502:../../lib/STM32F4xx_StdPeriph_Driver/src/stm32f4xx_rtc.c **** {
 503:../../lib/STM32F4xx_StdPeriph_Driver/src/stm32f4xx_rtc.c ****   /* Initialize the RTC_HourFormat member */
 504:../../lib/STM32F4xx_StdPeriph_Driver/src/stm32f4xx_rtc.c ****   RTC_InitStruct->RTC_HourFormat = RTC_HourFormat_24;
 505:../../lib/STM32F4xx_StdPeriph_Driver/src/stm32f4xx_rtc.c ****     
 506:../../lib/STM32F4xx_StdPeriph_Driver/src/stm32f4xx_rtc.c ****   /* Initialize the RTC_AsynchPrediv member */
 507:../../lib/STM32F4xx_StdPeriph_Driver/src/stm32f4xx_rtc.c ****   RTC_InitStruct->RTC_AsynchPrediv = (uint32_t)0x7F;
 508:../../lib/STM32F4xx_StdPeriph_Driver/src/stm32f4xx_rtc.c **** 
 509:../../lib/STM32F4xx_StdPeriph_Driver/src/stm32f4xx_rtc.c ****   /* Initialize the RTC_SynchPrediv member */
 510:../../lib/STM32F4xx_StdPeriph_Driver/src/stm32f4xx_rtc.c ****   RTC_InitStruct->RTC_SynchPrediv = (uint32_t)0xFF; 
 511:../../lib/STM32F4xx_StdPeriph_Driver/src/stm32f4xx_rtc.c **** }
 512:../../lib/STM32F4xx_StdPeriph_Driver/src/stm32f4xx_rtc.c **** 
 513:../../lib/STM32F4xx_StdPeriph_Driver/src/stm32f4xx_rtc.c **** /**
 514:../../lib/STM32F4xx_StdPeriph_Driver/src/stm32f4xx_rtc.c ****   * @brief  Enables or disables the RTC registers write protection.
 515:../../lib/STM32F4xx_StdPeriph_Driver/src/stm32f4xx_rtc.c ****   * @note   All the RTC registers are write protected except for RTC_ISR[13:8], 
 516:../../lib/STM32F4xx_StdPeriph_Driver/src/stm32f4xx_rtc.c ****   *         RTC_TAFCR and RTC_BKPxR.
 517:../../lib/STM32F4xx_StdPeriph_Driver/src/stm32f4xx_rtc.c ****   * @note   Writing a wrong key reactivates the write protection.
 518:../../lib/STM32F4xx_StdPeriph_Driver/src/stm32f4xx_rtc.c ****   * @note   The protection mechanism is not affected by system reset.  
 519:../../lib/STM32F4xx_StdPeriph_Driver/src/stm32f4xx_rtc.c ****   * @param  NewState: new state of the write protection.
 520:../../lib/STM32F4xx_StdPeriph_Driver/src/stm32f4xx_rtc.c ****   *          This parameter can be: ENABLE or DISABLE.
 521:../../lib/STM32F4xx_StdPeriph_Driver/src/stm32f4xx_rtc.c ****   * @retval None
 522:../../lib/STM32F4xx_StdPeriph_Driver/src/stm32f4xx_rtc.c ****   */
 523:../../lib/STM32F4xx_StdPeriph_Driver/src/stm32f4xx_rtc.c **** void RTC_WriteProtectionCmd(FunctionalState NewState)
 524:../../lib/STM32F4xx_StdPeriph_Driver/src/stm32f4xx_rtc.c **** {
 525:../../lib/STM32F4xx_StdPeriph_Driver/src/stm32f4xx_rtc.c ****   /* Check the parameters */
 526:../../lib/STM32F4xx_StdPeriph_Driver/src/stm32f4xx_rtc.c ****   assert_param(IS_FUNCTIONAL_STATE(NewState));
 527:../../lib/STM32F4xx_StdPeriph_Driver/src/stm32f4xx_rtc.c ****     
 528:../../lib/STM32F4xx_StdPeriph_Driver/src/stm32f4xx_rtc.c ****   if (NewState != DISABLE)
 529:../../lib/STM32F4xx_StdPeriph_Driver/src/stm32f4xx_rtc.c ****   {
 530:../../lib/STM32F4xx_StdPeriph_Driver/src/stm32f4xx_rtc.c ****     /* Enable the write protection for RTC registers */
 531:../../lib/STM32F4xx_StdPeriph_Driver/src/stm32f4xx_rtc.c ****     RTC->WPR = 0xFF;   
 532:../../lib/STM32F4xx_StdPeriph_Driver/src/stm32f4xx_rtc.c ****   }
 533:../../lib/STM32F4xx_StdPeriph_Driver/src/stm32f4xx_rtc.c ****   else
 534:../../lib/STM32F4xx_StdPeriph_Driver/src/stm32f4xx_rtc.c ****   {
 535:../../lib/STM32F4xx_StdPeriph_Driver/src/stm32f4xx_rtc.c ****     /* Disable the write protection for RTC registers */
 536:../../lib/STM32F4xx_StdPeriph_Driver/src/stm32f4xx_rtc.c ****     RTC->WPR = 0xCA;
 537:../../lib/STM32F4xx_StdPeriph_Driver/src/stm32f4xx_rtc.c ****     RTC->WPR = 0x53;    
 538:../../lib/STM32F4xx_StdPeriph_Driver/src/stm32f4xx_rtc.c ****   }
 539:../../lib/STM32F4xx_StdPeriph_Driver/src/stm32f4xx_rtc.c **** }
 540:../../lib/STM32F4xx_StdPeriph_Driver/src/stm32f4xx_rtc.c **** 
 541:../../lib/STM32F4xx_StdPeriph_Driver/src/stm32f4xx_rtc.c **** /**
 542:../../lib/STM32F4xx_StdPeriph_Driver/src/stm32f4xx_rtc.c ****   * @brief  Enters the RTC Initialization mode.
 543:../../lib/STM32F4xx_StdPeriph_Driver/src/stm32f4xx_rtc.c ****   * @note   The RTC Initialization mode is write protected, use the 
 544:../../lib/STM32F4xx_StdPeriph_Driver/src/stm32f4xx_rtc.c ****   *         RTC_WriteProtectionCmd(DISABLE) before calling this function.    
 545:../../lib/STM32F4xx_StdPeriph_Driver/src/stm32f4xx_rtc.c ****   * @param  None
 546:../../lib/STM32F4xx_StdPeriph_Driver/src/stm32f4xx_rtc.c ****   * @retval An ErrorStatus enumeration value:
 547:../../lib/STM32F4xx_StdPeriph_Driver/src/stm32f4xx_rtc.c ****   *          - SUCCESS: RTC is in Init mode
 548:../../lib/STM32F4xx_StdPeriph_Driver/src/stm32f4xx_rtc.c ****   *          - ERROR: RTC is not in Init mode  
 549:../../lib/STM32F4xx_StdPeriph_Driver/src/stm32f4xx_rtc.c ****   */
 550:../../lib/STM32F4xx_StdPeriph_Driver/src/stm32f4xx_rtc.c **** ErrorStatus RTC_EnterInitMode(void)
 551:../../lib/STM32F4xx_StdPeriph_Driver/src/stm32f4xx_rtc.c **** {
 552:../../lib/STM32F4xx_StdPeriph_Driver/src/stm32f4xx_rtc.c ****   __IO uint32_t initcounter = 0x00;
  47              		.loc 1 552 0
  48 0010 0293     		str	r3, [sp, #8]
  49              	.LVL1:
 553:../../lib/STM32F4xx_StdPeriph_Driver/src/stm32f4xx_rtc.c ****   ErrorStatus status = ERROR;
 554:../../lib/STM32F4xx_StdPeriph_Driver/src/stm32f4xx_rtc.c ****   uint32_t initstatus = 0x00;
 555:../../lib/STM32F4xx_StdPeriph_Driver/src/stm32f4xx_rtc.c ****      
 556:../../lib/STM32F4xx_StdPeriph_Driver/src/stm32f4xx_rtc.c ****   /* Check if the Initialization mode is set */
 557:../../lib/STM32F4xx_StdPeriph_Driver/src/stm32f4xx_rtc.c ****   if ((RTC->ISR & RTC_ISR_INITF) == (uint32_t)RESET)
  50              		.loc 1 557 0
  51 0012 CB68     		ldr	r3, [r1, #12]
  52 0014 5806     		lsls	r0, r3, #25
  53 0016 18D4     		bmi	.L7
 558:../../lib/STM32F4xx_StdPeriph_Driver/src/stm32f4xx_rtc.c ****   {
 559:../../lib/STM32F4xx_StdPeriph_Driver/src/stm32f4xx_rtc.c ****     /* Set the Initialization mode */
 560:../../lib/STM32F4xx_StdPeriph_Driver/src/stm32f4xx_rtc.c ****     RTC->ISR = (uint32_t)RTC_INIT_MASK;
  54              		.loc 1 560 0
  55 0018 4FF0FF33 		mov	r3, #-1
  56 001c CB60     		str	r3, [r1, #12]
  57 001e 00E0     		b	.L5
  58              	.LVL2:
  59              	.L44:
 561:../../lib/STM32F4xx_StdPeriph_Driver/src/stm32f4xx_rtc.c ****     
 562:../../lib/STM32F4xx_StdPeriph_Driver/src/stm32f4xx_rtc.c ****     /* Wait till RTC is in INIT state and if Time out is reached exit */
 563:../../lib/STM32F4xx_StdPeriph_Driver/src/stm32f4xx_rtc.c ****     do
 564:../../lib/STM32F4xx_StdPeriph_Driver/src/stm32f4xx_rtc.c ****     {
 565:../../lib/STM32F4xx_StdPeriph_Driver/src/stm32f4xx_rtc.c ****       initstatus = RTC->ISR & RTC_ISR_INITF;
 566:../../lib/STM32F4xx_StdPeriph_Driver/src/stm32f4xx_rtc.c ****       initcounter++;  
 567:../../lib/STM32F4xx_StdPeriph_Driver/src/stm32f4xx_rtc.c ****     } while((initcounter != INITMODE_TIMEOUT) && (initstatus == 0x00));
  60              		.loc 1 567 0
  61 0020 4AB9     		cbnz	r2, .L4
  62              	.LVL3:
  63              	.L5:
 565:../../lib/STM32F4xx_StdPeriph_Driver/src/stm32f4xx_rtc.c ****       initstatus = RTC->ISR & RTC_ISR_INITF;
  64              		.loc 1 565 0
  65 0022 CA68     		ldr	r2, [r1, #12]
 566:../../lib/STM32F4xx_StdPeriph_Driver/src/stm32f4xx_rtc.c ****       initcounter++;  
  66              		.loc 1 566 0
  67 0024 029B     		ldr	r3, [sp, #8]
  68 0026 0133     		adds	r3, r3, #1
  69              	.LVL4:
  70 0028 0293     		str	r3, [sp, #8]
  71              	.LVL5:
  72              		.loc 1 567 0
  73 002a 029B     		ldr	r3, [sp, #8]
  74              	.LVL6:
 565:../../lib/STM32F4xx_StdPeriph_Driver/src/stm32f4xx_rtc.c ****       initstatus = RTC->ISR & RTC_ISR_INITF;
  75              		.loc 1 565 0
  76 002c 02F04002 		and	r2, r2, #64
  77              	.LVL7:
  78              		.loc 1 567 0
  79 0030 B3F5803F 		cmp	r3, #65536
  80 0034 F4D1     		bne	.L44
  81              	.L4:
  82              	.LBB86:
  83              	.LBB87:
 568:../../lib/STM32F4xx_StdPeriph_Driver/src/stm32f4xx_rtc.c ****     
 569:../../lib/STM32F4xx_StdPeriph_Driver/src/stm32f4xx_rtc.c ****     if ((RTC->ISR & RTC_ISR_INITF) != RESET)
  84              		.loc 1 569 0
  85 0036 2B4B     		ldr	r3, .L48
  86 0038 DB68     		ldr	r3, [r3, #12]
  87              	.LVL8:
  88              	.LBE87:
  89              	.LBE86:
  90              	.LBE85:
  91              	.LBE84:
 384:../../lib/STM32F4xx_StdPeriph_Driver/src/stm32f4xx_rtc.c ****   if (RTC_EnterInitMode() == ERROR)
  92              		.loc 1 384 0
  93 003a 5906     		lsls	r1, r3, #25
  94 003c 05D4     		bmi	.L7
  95              	.LVL9:
  96              	.L6:
 386:../../lib/STM32F4xx_StdPeriph_Driver/src/stm32f4xx_rtc.c ****     status = ERROR;
  97              		.loc 1 386 0
  98 003e 0020     		movs	r0, #0
  99              	.LVL10:
 100              	.L13:
 439:../../lib/STM32F4xx_StdPeriph_Driver/src/stm32f4xx_rtc.c ****   RTC->WPR = 0xFF;  
 101              		.loc 1 439 0
 102 0040 FF22     		movs	r2, #255
 103 0042 284B     		ldr	r3, .L48
 104 0044 5A62     		str	r2, [r3, #36]
 442:../../lib/STM32F4xx_StdPeriph_Driver/src/stm32f4xx_rtc.c **** }
 105              		.loc 1 442 0
 106 0046 04B0     		add	sp, sp, #16
 107 0048 7047     		bx	lr
 108              	.LVL11:
 109              	.L7:
 391:../../lib/STM32F4xx_StdPeriph_Driver/src/stm32f4xx_rtc.c ****     RTC->TR = (uint32_t)0x00000000;
 110              		.loc 1 391 0
 111 004a 2649     		ldr	r1, .L48
 112 004c 0023     		movs	r3, #0
 113 004e 0B60     		str	r3, [r1, #0]
 392:../../lib/STM32F4xx_StdPeriph_Driver/src/stm32f4xx_rtc.c ****     RTC->DR = (uint32_t)0x00002101;
 114              		.loc 1 392 0
 115 0050 42F20113 		movw	r3, #8449
 116 0054 4B60     		str	r3, [r1, #4]
 394:../../lib/STM32F4xx_StdPeriph_Driver/src/stm32f4xx_rtc.c ****     RTC->CR &= (uint32_t)0x00000007;
 117              		.loc 1 394 0
 118 0056 8B68     		ldr	r3, [r1, #8]
 119 0058 03F00703 		and	r3, r3, #7
 120 005c 8B60     		str	r3, [r1, #8]
 121 005e 00E0     		b	.L3
 122              	.LVL12:
 123              	.L45:
 401:../../lib/STM32F4xx_StdPeriph_Driver/src/stm32f4xx_rtc.c ****     } while((wutcounter != INITMODE_TIMEOUT) && (wutwfstatus == 0x00));
 124              		.loc 1 401 0 discriminator 1
 125 0060 4AB9     		cbnz	r2, .L8
 126              	.LVL13:
 127              	.L3:
 399:../../lib/STM32F4xx_StdPeriph_Driver/src/stm32f4xx_rtc.c ****       wutwfstatus = RTC->ISR & RTC_ISR_WUTWF;
 128              		.loc 1 399 0 discriminator 1
 129 0062 CA68     		ldr	r2, [r1, #12]
 400:../../lib/STM32F4xx_StdPeriph_Driver/src/stm32f4xx_rtc.c ****       wutcounter++;  
 130              		.loc 1 400 0 discriminator 1
 131 0064 019B     		ldr	r3, [sp, #4]
 132 0066 0133     		adds	r3, r3, #1
 133              	.LVL14:
 134 0068 0193     		str	r3, [sp, #4]
 135              	.LVL15:
 401:../../lib/STM32F4xx_StdPeriph_Driver/src/stm32f4xx_rtc.c ****     } while((wutcounter != INITMODE_TIMEOUT) && (wutwfstatus == 0x00));
 136              		.loc 1 401 0 discriminator 1
 137 006a 019B     		ldr	r3, [sp, #4]
 138              	.LVL16:
 399:../../lib/STM32F4xx_StdPeriph_Driver/src/stm32f4xx_rtc.c ****       wutwfstatus = RTC->ISR & RTC_ISR_WUTWF;
 139              		.loc 1 399 0 discriminator 1
 140 006c 02F00402 		and	r2, r2, #4
 141              	.LVL17:
 401:../../lib/STM32F4xx_StdPeriph_Driver/src/stm32f4xx_rtc.c ****     } while((wutcounter != INITMODE_TIMEOUT) && (wutwfstatus == 0x00));
 142              		.loc 1 401 0 discriminator 1
 143 0070 B3F5803F 		cmp	r3, #65536
 144 0074 F4D1     		bne	.L45
 145              	.L8:
 403:../../lib/STM32F4xx_StdPeriph_Driver/src/stm32f4xx_rtc.c ****     if ((RTC->ISR & RTC_ISR_WUTWF) == RESET)
 146              		.loc 1 403 0
 147 0076 1B4B     		ldr	r3, .L48
 148 0078 DA68     		ldr	r2, [r3, #12]
 149              	.LVL18:
 150 007a 5207     		lsls	r2, r2, #29
 151 007c DFD5     		bpl	.L6
 410:../../lib/STM32F4xx_StdPeriph_Driver/src/stm32f4xx_rtc.c ****       RTC->CR &= (uint32_t)0x00000000;
 152              		.loc 1 410 0
 153 007e 9A68     		ldr	r2, [r3, #8]
 154 0080 0022     		movs	r2, #0
 155 0082 9A60     		str	r2, [r3, #8]
 411:../../lib/STM32F4xx_StdPeriph_Driver/src/stm32f4xx_rtc.c ****       RTC->WUTR = (uint32_t)0x0000FFFF;
 156              		.loc 1 411 0
 157 0084 4FF6FF71 		movw	r1, #65535
 158 0088 5961     		str	r1, [r3, #20]
 412:../../lib/STM32F4xx_StdPeriph_Driver/src/stm32f4xx_rtc.c ****       RTC->PRER = (uint32_t)0x007F00FF;
 159              		.loc 1 412 0
 160 008a 1749     		ldr	r1, .L48+4
 161 008c 1961     		str	r1, [r3, #16]
 413:../../lib/STM32F4xx_StdPeriph_Driver/src/stm32f4xx_rtc.c ****       RTC->CALIBR = (uint32_t)0x00000000;
 162              		.loc 1 413 0
 163 008e 9A61     		str	r2, [r3, #24]
 414:../../lib/STM32F4xx_StdPeriph_Driver/src/stm32f4xx_rtc.c ****       RTC->ALRMAR = (uint32_t)0x00000000;        
 164              		.loc 1 414 0
 165 0090 DA61     		str	r2, [r3, #28]
 415:../../lib/STM32F4xx_StdPeriph_Driver/src/stm32f4xx_rtc.c ****       RTC->ALRMBR = (uint32_t)0x00000000;
 166              		.loc 1 415 0
 167 0092 1A62     		str	r2, [r3, #32]
 416:../../lib/STM32F4xx_StdPeriph_Driver/src/stm32f4xx_rtc.c ****       RTC->SHIFTR = (uint32_t)0x00000000;
 168              		.loc 1 416 0
 169 0094 DA62     		str	r2, [r3, #44]
 417:../../lib/STM32F4xx_StdPeriph_Driver/src/stm32f4xx_rtc.c ****       RTC->CALR = (uint32_t)0x00000000;
 170              		.loc 1 417 0
 171 0096 DA63     		str	r2, [r3, #60]
 418:../../lib/STM32F4xx_StdPeriph_Driver/src/stm32f4xx_rtc.c ****       RTC->ALRMASSR = (uint32_t)0x00000000;
 172              		.loc 1 418 0
 173 0098 5A64     		str	r2, [r3, #68]
 419:../../lib/STM32F4xx_StdPeriph_Driver/src/stm32f4xx_rtc.c ****       RTC->ALRMBSSR = (uint32_t)0x00000000;
 174              		.loc 1 419 0
 175 009a 9A64     		str	r2, [r3, #72]
 422:../../lib/STM32F4xx_StdPeriph_Driver/src/stm32f4xx_rtc.c ****       RTC->ISR = (uint32_t)0x00000000;
 176              		.loc 1 422 0
 177 009c DA60     		str	r2, [r3, #12]
 425:../../lib/STM32F4xx_StdPeriph_Driver/src/stm32f4xx_rtc.c ****       RTC->TAFCR = 0x00000000;
 178              		.loc 1 425 0
 179 009e 1A64     		str	r2, [r3, #64]
 180              	.LBB88:
 181              	.LBB89:
 570:../../lib/STM32F4xx_StdPeriph_Driver/src/stm32f4xx_rtc.c ****     {
 571:../../lib/STM32F4xx_StdPeriph_Driver/src/stm32f4xx_rtc.c ****       status = SUCCESS;
 572:../../lib/STM32F4xx_StdPeriph_Driver/src/stm32f4xx_rtc.c ****     }
 573:../../lib/STM32F4xx_StdPeriph_Driver/src/stm32f4xx_rtc.c ****     else
 574:../../lib/STM32F4xx_StdPeriph_Driver/src/stm32f4xx_rtc.c ****     {
 575:../../lib/STM32F4xx_StdPeriph_Driver/src/stm32f4xx_rtc.c ****       status = ERROR;
 576:../../lib/STM32F4xx_StdPeriph_Driver/src/stm32f4xx_rtc.c ****     }        
 577:../../lib/STM32F4xx_StdPeriph_Driver/src/stm32f4xx_rtc.c ****   }
 578:../../lib/STM32F4xx_StdPeriph_Driver/src/stm32f4xx_rtc.c ****   else
 579:../../lib/STM32F4xx_StdPeriph_Driver/src/stm32f4xx_rtc.c ****   {
 580:../../lib/STM32F4xx_StdPeriph_Driver/src/stm32f4xx_rtc.c ****     status = SUCCESS;  
 581:../../lib/STM32F4xx_StdPeriph_Driver/src/stm32f4xx_rtc.c ****   } 
 582:../../lib/STM32F4xx_StdPeriph_Driver/src/stm32f4xx_rtc.c ****     
 583:../../lib/STM32F4xx_StdPeriph_Driver/src/stm32f4xx_rtc.c ****   return (status);  
 584:../../lib/STM32F4xx_StdPeriph_Driver/src/stm32f4xx_rtc.c **** }
 585:../../lib/STM32F4xx_StdPeriph_Driver/src/stm32f4xx_rtc.c **** 
 586:../../lib/STM32F4xx_StdPeriph_Driver/src/stm32f4xx_rtc.c **** /**
 587:../../lib/STM32F4xx_StdPeriph_Driver/src/stm32f4xx_rtc.c ****   * @brief  Exits the RTC Initialization mode.
 588:../../lib/STM32F4xx_StdPeriph_Driver/src/stm32f4xx_rtc.c ****   * @note   When the initialization sequence is complete, the calendar restarts 
 589:../../lib/STM32F4xx_StdPeriph_Driver/src/stm32f4xx_rtc.c ****   *         counting after 4 RTCCLK cycles.  
 590:../../lib/STM32F4xx_StdPeriph_Driver/src/stm32f4xx_rtc.c ****   * @note   The RTC Initialization mode is write protected, use the 
 591:../../lib/STM32F4xx_StdPeriph_Driver/src/stm32f4xx_rtc.c ****   *         RTC_WriteProtectionCmd(DISABLE) before calling this function.      
 592:../../lib/STM32F4xx_StdPeriph_Driver/src/stm32f4xx_rtc.c ****   * @param  None
 593:../../lib/STM32F4xx_StdPeriph_Driver/src/stm32f4xx_rtc.c ****   * @retval None
 594:../../lib/STM32F4xx_StdPeriph_Driver/src/stm32f4xx_rtc.c ****   */
 595:../../lib/STM32F4xx_StdPeriph_Driver/src/stm32f4xx_rtc.c **** void RTC_ExitInitMode(void)
 596:../../lib/STM32F4xx_StdPeriph_Driver/src/stm32f4xx_rtc.c **** { 
 597:../../lib/STM32F4xx_StdPeriph_Driver/src/stm32f4xx_rtc.c ****   /* Exit Initialization mode */
 598:../../lib/STM32F4xx_StdPeriph_Driver/src/stm32f4xx_rtc.c ****   RTC->ISR &= (uint32_t)~RTC_ISR_INIT;  
 599:../../lib/STM32F4xx_StdPeriph_Driver/src/stm32f4xx_rtc.c **** }
 600:../../lib/STM32F4xx_StdPeriph_Driver/src/stm32f4xx_rtc.c **** 
 601:../../lib/STM32F4xx_StdPeriph_Driver/src/stm32f4xx_rtc.c **** /**
 602:../../lib/STM32F4xx_StdPeriph_Driver/src/stm32f4xx_rtc.c ****   * @brief  Waits until the RTC Time and Date registers (RTC_TR and RTC_DR) are 
 603:../../lib/STM32F4xx_StdPeriph_Driver/src/stm32f4xx_rtc.c ****   *         synchronized with RTC APB clock.
 604:../../lib/STM32F4xx_StdPeriph_Driver/src/stm32f4xx_rtc.c ****   * @note   The RTC Resynchronization mode is write protected, use the 
 605:../../lib/STM32F4xx_StdPeriph_Driver/src/stm32f4xx_rtc.c ****   *         RTC_WriteProtectionCmd(DISABLE) before calling this function. 
 606:../../lib/STM32F4xx_StdPeriph_Driver/src/stm32f4xx_rtc.c ****   * @note   To read the calendar through the shadow registers after Calendar 
 607:../../lib/STM32F4xx_StdPeriph_Driver/src/stm32f4xx_rtc.c ****   *         initialization, calendar update or after wakeup from low power modes 
 608:../../lib/STM32F4xx_StdPeriph_Driver/src/stm32f4xx_rtc.c ****   *         the software must first clear the RSF flag. 
 609:../../lib/STM32F4xx_StdPeriph_Driver/src/stm32f4xx_rtc.c ****   *         The software must then wait until it is set again before reading 
 610:../../lib/STM32F4xx_StdPeriph_Driver/src/stm32f4xx_rtc.c ****   *         the calendar, which means that the calendar registers have been 
 611:../../lib/STM32F4xx_StdPeriph_Driver/src/stm32f4xx_rtc.c ****   *         correctly copied into the RTC_TR and RTC_DR shadow registers.   
 612:../../lib/STM32F4xx_StdPeriph_Driver/src/stm32f4xx_rtc.c ****   * @param  None
 613:../../lib/STM32F4xx_StdPeriph_Driver/src/stm32f4xx_rtc.c ****   * @retval An ErrorStatus enumeration value:
 614:../../lib/STM32F4xx_StdPeriph_Driver/src/stm32f4xx_rtc.c ****   *          - SUCCESS: RTC registers are synchronised
 615:../../lib/STM32F4xx_StdPeriph_Driver/src/stm32f4xx_rtc.c ****   *          - ERROR: RTC registers are not synchronised
 616:../../lib/STM32F4xx_StdPeriph_Driver/src/stm32f4xx_rtc.c ****   */
 617:../../lib/STM32F4xx_StdPeriph_Driver/src/stm32f4xx_rtc.c **** ErrorStatus RTC_WaitForSynchro(void)
 618:../../lib/STM32F4xx_StdPeriph_Driver/src/stm32f4xx_rtc.c **** {
 619:../../lib/STM32F4xx_StdPeriph_Driver/src/stm32f4xx_rtc.c ****   __IO uint32_t synchrocounter = 0;
 182              		.loc 1 619 0
 183 00a0 0392     		str	r2, [sp, #12]
 184              	.LVL19:
 620:../../lib/STM32F4xx_StdPeriph_Driver/src/stm32f4xx_rtc.c ****   ErrorStatus status = ERROR;
 621:../../lib/STM32F4xx_StdPeriph_Driver/src/stm32f4xx_rtc.c ****   uint32_t synchrostatus = 0x00;
 622:../../lib/STM32F4xx_StdPeriph_Driver/src/stm32f4xx_rtc.c **** 
 623:../../lib/STM32F4xx_StdPeriph_Driver/src/stm32f4xx_rtc.c ****   /* Disable the write protection for RTC registers */
 624:../../lib/STM32F4xx_StdPeriph_Driver/src/stm32f4xx_rtc.c ****   RTC->WPR = 0xCA;
 185              		.loc 1 624 0
 186 00a2 CA22     		movs	r2, #202
 187 00a4 5A62     		str	r2, [r3, #36]
 625:../../lib/STM32F4xx_StdPeriph_Driver/src/stm32f4xx_rtc.c ****   RTC->WPR = 0x53;
 188              		.loc 1 625 0
 189 00a6 5322     		movs	r2, #83
 190 00a8 5A62     		str	r2, [r3, #36]
 626:../../lib/STM32F4xx_StdPeriph_Driver/src/stm32f4xx_rtc.c ****     
 627:../../lib/STM32F4xx_StdPeriph_Driver/src/stm32f4xx_rtc.c ****   /* Clear RSF flag */
 628:../../lib/STM32F4xx_StdPeriph_Driver/src/stm32f4xx_rtc.c ****   RTC->ISR &= (uint32_t)RTC_RSF_MASK;
 191              		.loc 1 628 0
 192 00aa DA68     		ldr	r2, [r3, #12]
 193 00ac 22F0A002 		bic	r2, r2, #160
 194 00b0 DA60     		str	r2, [r3, #12]
 195 00b2 00E0     		b	.L10
 196              	.LVL20:
 197              	.L46:
 629:../../lib/STM32F4xx_StdPeriph_Driver/src/stm32f4xx_rtc.c ****     
 630:../../lib/STM32F4xx_StdPeriph_Driver/src/stm32f4xx_rtc.c ****   /* Wait the registers to be synchronised */
 631:../../lib/STM32F4xx_StdPeriph_Driver/src/stm32f4xx_rtc.c ****   do
 632:../../lib/STM32F4xx_StdPeriph_Driver/src/stm32f4xx_rtc.c ****   {
 633:../../lib/STM32F4xx_StdPeriph_Driver/src/stm32f4xx_rtc.c ****     synchrostatus = RTC->ISR & RTC_ISR_RSF;
 634:../../lib/STM32F4xx_StdPeriph_Driver/src/stm32f4xx_rtc.c ****     synchrocounter++;  
 635:../../lib/STM32F4xx_StdPeriph_Driver/src/stm32f4xx_rtc.c ****   } while((synchrocounter != SYNCHRO_TIMEOUT) && (synchrostatus == 0x00));
 198              		.loc 1 635 0
 199 00b4 49B9     		cbnz	r1, .L9
 200              	.LVL21:
 201              	.L10:
 633:../../lib/STM32F4xx_StdPeriph_Driver/src/stm32f4xx_rtc.c ****     synchrostatus = RTC->ISR & RTC_ISR_RSF;
 202              		.loc 1 633 0
 203 00b6 D968     		ldr	r1, [r3, #12]
 634:../../lib/STM32F4xx_StdPeriph_Driver/src/stm32f4xx_rtc.c ****     synchrocounter++;  
 204              		.loc 1 634 0
 205 00b8 039A     		ldr	r2, [sp, #12]
 206 00ba 0132     		adds	r2, r2, #1
 207              	.LVL22:
 208 00bc 0392     		str	r2, [sp, #12]
 209              	.LVL23:
 210              		.loc 1 635 0
 211 00be 039A     		ldr	r2, [sp, #12]
 212              	.LVL24:
 633:../../lib/STM32F4xx_StdPeriph_Driver/src/stm32f4xx_rtc.c ****     synchrostatus = RTC->ISR & RTC_ISR_RSF;
 213              		.loc 1 633 0
 214 00c0 01F02001 		and	r1, r1, #32
 215              	.LVL25:
 216              		.loc 1 635 0
 217 00c4 B2F5003F 		cmp	r2, #131072
 218 00c8 F4D1     		bne	.L46
 219              	.L9:
 636:../../lib/STM32F4xx_StdPeriph_Driver/src/stm32f4xx_rtc.c ****     
 637:../../lib/STM32F4xx_StdPeriph_Driver/src/stm32f4xx_rtc.c ****   if ((RTC->ISR & RTC_ISR_RSF) != RESET)
 220              		.loc 1 637 0
 221 00ca 064B     		ldr	r3, .L48
 222 00cc D868     		ldr	r0, [r3, #12]
 223 00ce 10F02000 		ands	r0, r0, #32
 224 00d2 02D1     		bne	.L47
 638:../../lib/STM32F4xx_StdPeriph_Driver/src/stm32f4xx_rtc.c ****   {
 639:../../lib/STM32F4xx_StdPeriph_Driver/src/stm32f4xx_rtc.c ****     status = SUCCESS;
 640:../../lib/STM32F4xx_StdPeriph_Driver/src/stm32f4xx_rtc.c ****   }
 641:../../lib/STM32F4xx_StdPeriph_Driver/src/stm32f4xx_rtc.c ****   else
 642:../../lib/STM32F4xx_StdPeriph_Driver/src/stm32f4xx_rtc.c ****   {
 643:../../lib/STM32F4xx_StdPeriph_Driver/src/stm32f4xx_rtc.c ****     status = ERROR;
 644:../../lib/STM32F4xx_StdPeriph_Driver/src/stm32f4xx_rtc.c ****   }        
 645:../../lib/STM32F4xx_StdPeriph_Driver/src/stm32f4xx_rtc.c **** 
 646:../../lib/STM32F4xx_StdPeriph_Driver/src/stm32f4xx_rtc.c ****   /* Enable the write protection for RTC registers */
 647:../../lib/STM32F4xx_StdPeriph_Driver/src/stm32f4xx_rtc.c ****   RTC->WPR = 0xFF; 
 225              		.loc 1 647 0
 226 00d4 FF22     		movs	r2, #255
 227 00d6 5A62     		str	r2, [r3, #36]
 228 00d8 B2E7     		b	.L13
 229              	.L47:
 230              	.LVL26:
 231 00da FF22     		movs	r2, #255
 232 00dc 5A62     		str	r2, [r3, #36]
 433:../../lib/STM32F4xx_StdPeriph_Driver/src/stm32f4xx_rtc.c ****         status = SUCCESS;      
 233              		.loc 1 433 0
 234 00de 0120     		movs	r0, #1
 235 00e0 AEE7     		b	.L13
 236              	.L49:
 237 00e2 00BF     		.align	2
 238              	.L48:
 239 00e4 00280040 		.word	1073752064
 240 00e8 FF007F00 		.word	8323327
 241              	.LBE89:
 242              	.LBE88:
 243              		.cfi_endproc
 244              	.LFE110:
 246              		.section	.text.RTC_Init,"ax",%progbits
 247              		.align	2
 248              		.global	RTC_Init
 249              		.thumb
 250              		.thumb_func
 252              	RTC_Init:
 253              	.LFB111:
 456:../../lib/STM32F4xx_StdPeriph_Driver/src/stm32f4xx_rtc.c **** {
 254              		.loc 1 456 0
 255              		.cfi_startproc
 256              		@ args = 0, pretend = 0, frame = 8
 257              		@ frame_needed = 0, uses_anonymous_args = 0
 258              		@ link register save eliminated.
 259              	.LVL27:
 260 0000 82B0     		sub	sp, sp, #8
 261              	.LCFI1:
 262              		.cfi_def_cfa_offset 8
 263              	.LVL28:
 465:../../lib/STM32F4xx_StdPeriph_Driver/src/stm32f4xx_rtc.c ****   RTC->WPR = 0xCA;
 264              		.loc 1 465 0
 265 0002 1D49     		ldr	r1, .L64
 266 0004 CA23     		movs	r3, #202
 267 0006 4B62     		str	r3, [r1, #36]
 466:../../lib/STM32F4xx_StdPeriph_Driver/src/stm32f4xx_rtc.c ****   RTC->WPR = 0x53;
 268              		.loc 1 466 0
 269 0008 5323     		movs	r3, #83
 270 000a 4B62     		str	r3, [r1, #36]
 271              	.LBB96:
 272              	.LBB97:
 552:../../lib/STM32F4xx_StdPeriph_Driver/src/stm32f4xx_rtc.c ****   __IO uint32_t initcounter = 0x00;
 273              		.loc 1 552 0
 274 000c 0023     		movs	r3, #0
 275 000e 0193     		str	r3, [sp, #4]
 276              	.LVL29:
 557:../../lib/STM32F4xx_StdPeriph_Driver/src/stm32f4xx_rtc.c ****   if ((RTC->ISR & RTC_ISR_INITF) == (uint32_t)RESET)
 277              		.loc 1 557 0
 278 0010 CB68     		ldr	r3, [r1, #12]
 279 0012 5B06     		lsls	r3, r3, #25
 280 0014 15D4     		bmi	.L55
 560:../../lib/STM32F4xx_StdPeriph_Driver/src/stm32f4xx_rtc.c ****     RTC->ISR = (uint32_t)RTC_INIT_MASK;
 281              		.loc 1 560 0
 282 0016 4FF0FF33 		mov	r3, #-1
 283 001a CB60     		str	r3, [r1, #12]
 284 001c 00E0     		b	.L54
 285              	.LVL30:
 286              	.L63:
 567:../../lib/STM32F4xx_StdPeriph_Driver/src/stm32f4xx_rtc.c ****     } while((initcounter != INITMODE_TIMEOUT) && (initstatus == 0x00));
 287              		.loc 1 567 0
 288 001e 4AB9     		cbnz	r2, .L53
 289              	.LVL31:
 290              	.L54:
 565:../../lib/STM32F4xx_StdPeriph_Driver/src/stm32f4xx_rtc.c ****       initstatus = RTC->ISR & RTC_ISR_INITF;
 291              		.loc 1 565 0
 292 0020 CA68     		ldr	r2, [r1, #12]
 566:../../lib/STM32F4xx_StdPeriph_Driver/src/stm32f4xx_rtc.c ****       initcounter++;  
 293              		.loc 1 566 0
 294 0022 019B     		ldr	r3, [sp, #4]
 295 0024 0133     		adds	r3, r3, #1
 296              	.LVL32:
 297 0026 0193     		str	r3, [sp, #4]
 298              	.LVL33:
 567:../../lib/STM32F4xx_StdPeriph_Driver/src/stm32f4xx_rtc.c ****     } while((initcounter != INITMODE_TIMEOUT) && (initstatus == 0x00));
 299              		.loc 1 567 0
 300 0028 019B     		ldr	r3, [sp, #4]
 301              	.LVL34:
 565:../../lib/STM32F4xx_StdPeriph_Driver/src/stm32f4xx_rtc.c ****       initstatus = RTC->ISR & RTC_ISR_INITF;
 302              		.loc 1 565 0
 303 002a 02F04002 		and	r2, r2, #64
 304              	.LVL35:
 567:../../lib/STM32F4xx_StdPeriph_Driver/src/stm32f4xx_rtc.c ****     } while((initcounter != INITMODE_TIMEOUT) && (initstatus == 0x00));
 305              		.loc 1 567 0
 306 002e B3F5803F 		cmp	r3, #65536
 307 0032 F4D1     		bne	.L63
 308              	.L53:
 309              	.LBB98:
 310              	.LBB99:
 569:../../lib/STM32F4xx_StdPeriph_Driver/src/stm32f4xx_rtc.c ****     if ((RTC->ISR & RTC_ISR_INITF) != RESET)
 311              		.loc 1 569 0
 312 0034 104B     		ldr	r3, .L64
 313 0036 DB68     		ldr	r3, [r3, #12]
 314              	.LVL36:
 315              	.LBE99:
 316              	.LBE98:
 317              	.LBE97:
 318              	.LBE96:
 469:../../lib/STM32F4xx_StdPeriph_Driver/src/stm32f4xx_rtc.c ****   if (RTC_EnterInitMode() == ERROR)
 319              		.loc 1 469 0
 320 0038 C3F38013 		ubfx	r3, r3, #6, #1
 321              	.LVL37:
 322 003c 0BB9     		cbnz	r3, .L55
 471:../../lib/STM32F4xx_StdPeriph_Driver/src/stm32f4xx_rtc.c ****     status = ERROR;
 323              		.loc 1 471 0
 324 003e 1846     		mov	r0, r3
 325              	.LVL38:
 326 0040 14E0     		b	.L52
 327              	.LVL39:
 328              	.L55:
 476:../../lib/STM32F4xx_StdPeriph_Driver/src/stm32f4xx_rtc.c ****     RTC->CR &= ((uint32_t)~(RTC_CR_FMT));
 329              		.loc 1 476 0
 330 0042 0D4B     		ldr	r3, .L64
 331 0044 9A68     		ldr	r2, [r3, #8]
 332 0046 22F04002 		bic	r2, r2, #64
 333 004a 9A60     		str	r2, [r3, #8]
 478:../../lib/STM32F4xx_StdPeriph_Driver/src/stm32f4xx_rtc.c ****     RTC->CR |=  ((uint32_t)(RTC_InitStruct->RTC_HourFormat));
 334              		.loc 1 478 0
 335 004c 9968     		ldr	r1, [r3, #8]
 336 004e 0268     		ldr	r2, [r0, #0]
 337 0050 0A43     		orrs	r2, r2, r1
 338 0052 9A60     		str	r2, [r3, #8]
 481:../../lib/STM32F4xx_StdPeriph_Driver/src/stm32f4xx_rtc.c ****     RTC->PRER = (uint32_t)(RTC_InitStruct->RTC_SynchPrediv);
 339              		.loc 1 481 0
 340 0054 8268     		ldr	r2, [r0, #8]
 341 0056 1A61     		str	r2, [r3, #16]
 482:../../lib/STM32F4xx_StdPeriph_Driver/src/stm32f4xx_rtc.c ****     RTC->PRER |= (uint32_t)(RTC_InitStruct->RTC_AsynchPrediv << 16);
 342              		.loc 1 482 0
 343 0058 1A69     		ldr	r2, [r3, #16]
 344 005a 4168     		ldr	r1, [r0, #4]
 345 005c 42EA0142 		orr	r2, r2, r1, lsl #16
 346 0060 1A61     		str	r2, [r3, #16]
 347              	.LBB100:
 348              	.LBB101:
 598:../../lib/STM32F4xx_StdPeriph_Driver/src/stm32f4xx_rtc.c ****   RTC->ISR &= (uint32_t)~RTC_ISR_INIT;  
 349              		.loc 1 598 0
 350 0062 DA68     		ldr	r2, [r3, #12]
 351 0064 22F08002 		bic	r2, r2, #128
 352 0068 DA60     		str	r2, [r3, #12]
 353              	.LVL40:
 487:../../lib/STM32F4xx_StdPeriph_Driver/src/stm32f4xx_rtc.c ****     status = SUCCESS;    
 354              		.loc 1 487 0
 355 006a 0120     		movs	r0, #1
 356              	.LVL41:
 357              	.L52:
 358              	.LBE101:
 359              	.LBE100:
 490:../../lib/STM32F4xx_StdPeriph_Driver/src/stm32f4xx_rtc.c ****   RTC->WPR = 0xFF; 
 360              		.loc 1 490 0
 361 006c FF22     		movs	r2, #255
 362 006e 024B     		ldr	r3, .L64
 363 0070 5A62     		str	r2, [r3, #36]
 493:../../lib/STM32F4xx_StdPeriph_Driver/src/stm32f4xx_rtc.c **** }
 364              		.loc 1 493 0
 365 0072 02B0     		add	sp, sp, #8
 366 0074 7047     		bx	lr
 367              	.L65:
 368 0076 00BF     		.align	2
 369              	.L64:
 370 0078 00280040 		.word	1073752064
 371              		.cfi_endproc
 372              	.LFE111:
 374              		.section	.text.RTC_StructInit,"ax",%progbits
 375              		.align	2
 376              		.global	RTC_StructInit
 377              		.thumb
 378              		.thumb_func
 380              	RTC_StructInit:
 381              	.LFB112:
 502:../../lib/STM32F4xx_StdPeriph_Driver/src/stm32f4xx_rtc.c **** {
 382              		.loc 1 502 0
 383              		.cfi_startproc
 384              		@ args = 0, pretend = 0, frame = 0
 385              		@ frame_needed = 0, uses_anonymous_args = 0
 386              		@ link register save eliminated.
 387              	.LVL42:
 510:../../lib/STM32F4xx_StdPeriph_Driver/src/stm32f4xx_rtc.c ****   RTC_InitStruct->RTC_SynchPrediv = (uint32_t)0xFF; 
 388              		.loc 1 510 0
 389 0000 0021     		movs	r1, #0
 390 0002 7F22     		movs	r2, #127
 391 0004 FF23     		movs	r3, #255
 392 0006 80E80E00 		stmia	r0, {r1, r2, r3}
 393 000a 7047     		bx	lr
 394              		.cfi_endproc
 395              	.LFE112:
 397              		.section	.text.RTC_WriteProtectionCmd,"ax",%progbits
 398              		.align	2
 399              		.global	RTC_WriteProtectionCmd
 400              		.thumb
 401              		.thumb_func
 403              	RTC_WriteProtectionCmd:
 404              	.LFB113:
 524:../../lib/STM32F4xx_StdPeriph_Driver/src/stm32f4xx_rtc.c **** {
 405              		.loc 1 524 0
 406              		.cfi_startproc
 407              		@ args = 0, pretend = 0, frame = 0
 408              		@ frame_needed = 0, uses_anonymous_args = 0
 409              		@ link register save eliminated.
 410              	.LVL43:
 528:../../lib/STM32F4xx_StdPeriph_Driver/src/stm32f4xx_rtc.c ****   if (NewState != DISABLE)
 411              		.loc 1 528 0
 412 0000 28B9     		cbnz	r0, .L70
 536:../../lib/STM32F4xx_StdPeriph_Driver/src/stm32f4xx_rtc.c ****     RTC->WPR = 0xCA;
 413              		.loc 1 536 0
 414 0002 054B     		ldr	r3, .L71
 415 0004 CA22     		movs	r2, #202
 416 0006 5A62     		str	r2, [r3, #36]
 537:../../lib/STM32F4xx_StdPeriph_Driver/src/stm32f4xx_rtc.c ****     RTC->WPR = 0x53;    
 417              		.loc 1 537 0
 418 0008 5322     		movs	r2, #83
 419 000a 5A62     		str	r2, [r3, #36]
 420 000c 7047     		bx	lr
 421              	.L70:
 531:../../lib/STM32F4xx_StdPeriph_Driver/src/stm32f4xx_rtc.c ****     RTC->WPR = 0xFF;   
 422              		.loc 1 531 0
 423 000e FF22     		movs	r2, #255
 424 0010 014B     		ldr	r3, .L71
 425 0012 5A62     		str	r2, [r3, #36]
 426 0014 7047     		bx	lr
 427              	.L72:
 428 0016 00BF     		.align	2
 429              	.L71:
 430 0018 00280040 		.word	1073752064
 431              		.cfi_endproc
 432              	.LFE113:
 434              		.section	.text.RTC_EnterInitMode,"ax",%progbits
 435              		.align	2
 436              		.global	RTC_EnterInitMode
 437              		.thumb
 438              		.thumb_func
 440              	RTC_EnterInitMode:
 441              	.LFB114:
 551:../../lib/STM32F4xx_StdPeriph_Driver/src/stm32f4xx_rtc.c **** {
 442              		.loc 1 551 0
 443              		.cfi_startproc
 444              		@ args = 0, pretend = 0, frame = 8
 445              		@ frame_needed = 0, uses_anonymous_args = 0
 446              		@ link register save eliminated.
 447 0000 82B0     		sub	sp, sp, #8
 448              	.LCFI2:
 449              		.cfi_def_cfa_offset 8
 557:../../lib/STM32F4xx_StdPeriph_Driver/src/stm32f4xx_rtc.c ****   if ((RTC->ISR & RTC_ISR_INITF) == (uint32_t)RESET)
 450              		.loc 1 557 0
 451 0002 0E49     		ldr	r1, .L86
 552:../../lib/STM32F4xx_StdPeriph_Driver/src/stm32f4xx_rtc.c ****   __IO uint32_t initcounter = 0x00;
 452              		.loc 1 552 0
 453 0004 0023     		movs	r3, #0
 454 0006 0193     		str	r3, [sp, #4]
 455              	.LVL44:
 557:../../lib/STM32F4xx_StdPeriph_Driver/src/stm32f4xx_rtc.c ****   if ((RTC->ISR & RTC_ISR_INITF) == (uint32_t)RESET)
 456              		.loc 1 557 0
 457 0008 CB68     		ldr	r3, [r1, #12]
 458 000a 5806     		lsls	r0, r3, #25
 459 000c 14D4     		bmi	.L77
 560:../../lib/STM32F4xx_StdPeriph_Driver/src/stm32f4xx_rtc.c ****     RTC->ISR = (uint32_t)RTC_INIT_MASK;
 460              		.loc 1 560 0
 461 000e 4FF0FF33 		mov	r3, #-1
 462 0012 CB60     		str	r3, [r1, #12]
 463 0014 00E0     		b	.L76
 464              	.LVL45:
 465              	.L85:
 567:../../lib/STM32F4xx_StdPeriph_Driver/src/stm32f4xx_rtc.c ****     } while((initcounter != INITMODE_TIMEOUT) && (initstatus == 0x00));
 466              		.loc 1 567 0 discriminator 1
 467 0016 4AB9     		cbnz	r2, .L75
 468              	.LVL46:
 469              	.L76:
 565:../../lib/STM32F4xx_StdPeriph_Driver/src/stm32f4xx_rtc.c ****       initstatus = RTC->ISR & RTC_ISR_INITF;
 470              		.loc 1 565 0 discriminator 1
 471 0018 CA68     		ldr	r2, [r1, #12]
 566:../../lib/STM32F4xx_StdPeriph_Driver/src/stm32f4xx_rtc.c ****       initcounter++;  
 472              		.loc 1 566 0 discriminator 1
 473 001a 019B     		ldr	r3, [sp, #4]
 474 001c 0133     		adds	r3, r3, #1
 475              	.LVL47:
 476 001e 0193     		str	r3, [sp, #4]
 477              	.LVL48:
 567:../../lib/STM32F4xx_StdPeriph_Driver/src/stm32f4xx_rtc.c ****     } while((initcounter != INITMODE_TIMEOUT) && (initstatus == 0x00));
 478              		.loc 1 567 0 discriminator 1
 479 0020 019B     		ldr	r3, [sp, #4]
 480              	.LVL49:
 565:../../lib/STM32F4xx_StdPeriph_Driver/src/stm32f4xx_rtc.c ****       initstatus = RTC->ISR & RTC_ISR_INITF;
 481              		.loc 1 565 0 discriminator 1
 482 0022 02F04002 		and	r2, r2, #64
 483              	.LVL50:
 567:../../lib/STM32F4xx_StdPeriph_Driver/src/stm32f4xx_rtc.c ****     } while((initcounter != INITMODE_TIMEOUT) && (initstatus == 0x00));
 484              		.loc 1 567 0 discriminator 1
 485 0026 B3F5803F 		cmp	r3, #65536
 486 002a F4D1     		bne	.L85
 487              	.L75:
 488              	.LBB104:
 489              	.LBB105:
 569:../../lib/STM32F4xx_StdPeriph_Driver/src/stm32f4xx_rtc.c ****     if ((RTC->ISR & RTC_ISR_INITF) != RESET)
 490              		.loc 1 569 0
 491 002c 034B     		ldr	r3, .L86
 492 002e D868     		ldr	r0, [r3, #12]
 571:../../lib/STM32F4xx_StdPeriph_Driver/src/stm32f4xx_rtc.c ****       status = SUCCESS;
 493              		.loc 1 571 0
 494 0030 C0F38010 		ubfx	r0, r0, #6, #1
 495              	.LVL51:
 496              	.L74:
 497              	.LBE105:
 498              	.LBE104:
 584:../../lib/STM32F4xx_StdPeriph_Driver/src/stm32f4xx_rtc.c **** }
 499              		.loc 1 584 0
 500 0034 02B0     		add	sp, sp, #8
 501 0036 7047     		bx	lr
 502              	.LVL52:
 503              	.L77:
 580:../../lib/STM32F4xx_StdPeriph_Driver/src/stm32f4xx_rtc.c ****     status = SUCCESS;  
 504              		.loc 1 580 0
 505 0038 0120     		movs	r0, #1
 506 003a FBE7     		b	.L74
 507              	.L87:
 508              		.align	2
 509              	.L86:
 510 003c 00280040 		.word	1073752064
 511              		.cfi_endproc
 512              	.LFE114:
 514              		.section	.text.RTC_ExitInitMode,"ax",%progbits
 515              		.align	2
 516              		.global	RTC_ExitInitMode
 517              		.thumb
 518              		.thumb_func
 520              	RTC_ExitInitMode:
 521              	.LFB115:
 596:../../lib/STM32F4xx_StdPeriph_Driver/src/stm32f4xx_rtc.c **** { 
 522              		.loc 1 596 0
 523              		.cfi_startproc
 524              		@ args = 0, pretend = 0, frame = 0
 525              		@ frame_needed = 0, uses_anonymous_args = 0
 526              		@ link register save eliminated.
 598:../../lib/STM32F4xx_StdPeriph_Driver/src/stm32f4xx_rtc.c ****   RTC->ISR &= (uint32_t)~RTC_ISR_INIT;  
 527              		.loc 1 598 0
 528 0000 024B     		ldr	r3, .L89
 529 0002 DA68     		ldr	r2, [r3, #12]
 530 0004 22F08002 		bic	r2, r2, #128
 531 0008 DA60     		str	r2, [r3, #12]
 532 000a 7047     		bx	lr
 533              	.L90:
 534              		.align	2
 535              	.L89:
 536 000c 00280040 		.word	1073752064
 537              		.cfi_endproc
 538              	.LFE115:
 540              		.section	.text.RTC_WaitForSynchro,"ax",%progbits
 541              		.align	2
 542              		.global	RTC_WaitForSynchro
 543              		.thumb
 544              		.thumb_func
 546              	RTC_WaitForSynchro:
 547              	.LFB116:
 618:../../lib/STM32F4xx_StdPeriph_Driver/src/stm32f4xx_rtc.c **** {
 548              		.loc 1 618 0
 549              		.cfi_startproc
 550              		@ args = 0, pretend = 0, frame = 8
 551              		@ frame_needed = 0, uses_anonymous_args = 0
 552              		@ link register save eliminated.
 553 0000 82B0     		sub	sp, sp, #8
 554              	.LCFI3:
 555              		.cfi_def_cfa_offset 8
 624:../../lib/STM32F4xx_StdPeriph_Driver/src/stm32f4xx_rtc.c ****   RTC->WPR = 0xCA;
 556              		.loc 1 624 0
 557 0002 0F49     		ldr	r1, .L102
 619:../../lib/STM32F4xx_StdPeriph_Driver/src/stm32f4xx_rtc.c ****   __IO uint32_t synchrocounter = 0;
 558              		.loc 1 619 0
 559 0004 0023     		movs	r3, #0
 560 0006 0193     		str	r3, [sp, #4]
 561              	.LVL53:
 624:../../lib/STM32F4xx_StdPeriph_Driver/src/stm32f4xx_rtc.c ****   RTC->WPR = 0xCA;
 562              		.loc 1 624 0
 563 0008 CA23     		movs	r3, #202
 564 000a 4B62     		str	r3, [r1, #36]
 625:../../lib/STM32F4xx_StdPeriph_Driver/src/stm32f4xx_rtc.c ****   RTC->WPR = 0x53;
 565              		.loc 1 625 0
 566 000c 5323     		movs	r3, #83
 567 000e 4B62     		str	r3, [r1, #36]
 628:../../lib/STM32F4xx_StdPeriph_Driver/src/stm32f4xx_rtc.c ****   RTC->ISR &= (uint32_t)RTC_RSF_MASK;
 568              		.loc 1 628 0
 569 0010 CB68     		ldr	r3, [r1, #12]
 570 0012 23F0A003 		bic	r3, r3, #160
 571 0016 CB60     		str	r3, [r1, #12]
 572 0018 00E0     		b	.L93
 573              	.LVL54:
 574              	.L101:
 635:../../lib/STM32F4xx_StdPeriph_Driver/src/stm32f4xx_rtc.c ****   } while((synchrocounter != SYNCHRO_TIMEOUT) && (synchrostatus == 0x00));
 575              		.loc 1 635 0 discriminator 1
 576 001a 4AB9     		cbnz	r2, .L92
 577              	.LVL55:
 578              	.L93:
 633:../../lib/STM32F4xx_StdPeriph_Driver/src/stm32f4xx_rtc.c ****     synchrostatus = RTC->ISR & RTC_ISR_RSF;
 579              		.loc 1 633 0 discriminator 1
 580 001c CA68     		ldr	r2, [r1, #12]
 634:../../lib/STM32F4xx_StdPeriph_Driver/src/stm32f4xx_rtc.c ****     synchrocounter++;  
 581              		.loc 1 634 0 discriminator 1
 582 001e 019B     		ldr	r3, [sp, #4]
 583 0020 0133     		adds	r3, r3, #1
 584              	.LVL56:
 585 0022 0193     		str	r3, [sp, #4]
 586              	.LVL57:
 635:../../lib/STM32F4xx_StdPeriph_Driver/src/stm32f4xx_rtc.c ****   } while((synchrocounter != SYNCHRO_TIMEOUT) && (synchrostatus == 0x00));
 587              		.loc 1 635 0 discriminator 1
 588 0024 019B     		ldr	r3, [sp, #4]
 589              	.LVL58:
 633:../../lib/STM32F4xx_StdPeriph_Driver/src/stm32f4xx_rtc.c ****     synchrostatus = RTC->ISR & RTC_ISR_RSF;
 590              		.loc 1 633 0 discriminator 1
 591 0026 02F02002 		and	r2, r2, #32
 592              	.LVL59:
 635:../../lib/STM32F4xx_StdPeriph_Driver/src/stm32f4xx_rtc.c ****   } while((synchrocounter != SYNCHRO_TIMEOUT) && (synchrostatus == 0x00));
 593              		.loc 1 635 0 discriminator 1
 594 002a B3F5003F 		cmp	r3, #131072
 595 002e F4D1     		bne	.L101
 596              	.L92:
 637:../../lib/STM32F4xx_StdPeriph_Driver/src/stm32f4xx_rtc.c ****   if ((RTC->ISR & RTC_ISR_RSF) != RESET)
 597              		.loc 1 637 0
 598 0030 034B     		ldr	r3, .L102
 599 0032 D868     		ldr	r0, [r3, #12]
 600              	.LVL60:
 601              		.loc 1 647 0
 602 0034 FF22     		movs	r2, #255
 603              	.LVL61:
 604 0036 5A62     		str	r2, [r3, #36]
 648:../../lib/STM32F4xx_StdPeriph_Driver/src/stm32f4xx_rtc.c ****     
 649:../../lib/STM32F4xx_StdPeriph_Driver/src/stm32f4xx_rtc.c ****   return (status); 
 650:../../lib/STM32F4xx_StdPeriph_Driver/src/stm32f4xx_rtc.c **** }
 605              		.loc 1 650 0
 606 0038 C0F34010 		ubfx	r0, r0, #5, #1
 607              	.LVL62:
 608 003c 02B0     		add	sp, sp, #8
 609 003e 7047     		bx	lr
 610              	.L103:
 611              		.align	2
 612              	.L102:
 613 0040 00280040 		.word	1073752064
 614              		.cfi_endproc
 615              	.LFE116:
 617              		.section	.text.RTC_RefClockCmd,"ax",%progbits
 618              		.align	2
 619              		.global	RTC_RefClockCmd
 620              		.thumb
 621              		.thumb_func
 623              	RTC_RefClockCmd:
 624              	.LFB117:
 651:../../lib/STM32F4xx_StdPeriph_Driver/src/stm32f4xx_rtc.c **** 
 652:../../lib/STM32F4xx_StdPeriph_Driver/src/stm32f4xx_rtc.c **** /**
 653:../../lib/STM32F4xx_StdPeriph_Driver/src/stm32f4xx_rtc.c ****   * @brief  Enables or disables the RTC reference clock detection.
 654:../../lib/STM32F4xx_StdPeriph_Driver/src/stm32f4xx_rtc.c ****   * @param  NewState: new state of the RTC reference clock.
 655:../../lib/STM32F4xx_StdPeriph_Driver/src/stm32f4xx_rtc.c ****   *          This parameter can be: ENABLE or DISABLE.
 656:../../lib/STM32F4xx_StdPeriph_Driver/src/stm32f4xx_rtc.c ****   * @retval An ErrorStatus enumeration value:
 657:../../lib/STM32F4xx_StdPeriph_Driver/src/stm32f4xx_rtc.c ****   *          - SUCCESS: RTC reference clock detection is enabled
 658:../../lib/STM32F4xx_StdPeriph_Driver/src/stm32f4xx_rtc.c ****   *          - ERROR: RTC reference clock detection is disabled  
 659:../../lib/STM32F4xx_StdPeriph_Driver/src/stm32f4xx_rtc.c ****   */
 660:../../lib/STM32F4xx_StdPeriph_Driver/src/stm32f4xx_rtc.c **** ErrorStatus RTC_RefClockCmd(FunctionalState NewState)
 661:../../lib/STM32F4xx_StdPeriph_Driver/src/stm32f4xx_rtc.c **** { 
 625              		.loc 1 661 0
 626              		.cfi_startproc
 627              		@ args = 0, pretend = 0, frame = 8
 628              		@ frame_needed = 0, uses_anonymous_args = 0
 629              		@ link register save eliminated.
 630              	.LVL63:
 631 0000 82B0     		sub	sp, sp, #8
 632              	.LCFI4:
 633              		.cfi_def_cfa_offset 8
 634              	.LVL64:
 662:../../lib/STM32F4xx_StdPeriph_Driver/src/stm32f4xx_rtc.c ****   ErrorStatus status = ERROR;
 663:../../lib/STM32F4xx_StdPeriph_Driver/src/stm32f4xx_rtc.c ****   
 664:../../lib/STM32F4xx_StdPeriph_Driver/src/stm32f4xx_rtc.c ****   /* Check the parameters */
 665:../../lib/STM32F4xx_StdPeriph_Driver/src/stm32f4xx_rtc.c ****   assert_param(IS_FUNCTIONAL_STATE(NewState));
 666:../../lib/STM32F4xx_StdPeriph_Driver/src/stm32f4xx_rtc.c ****   
 667:../../lib/STM32F4xx_StdPeriph_Driver/src/stm32f4xx_rtc.c ****   /* Disable the write protection for RTC registers */
 668:../../lib/STM32F4xx_StdPeriph_Driver/src/stm32f4xx_rtc.c ****   RTC->WPR = 0xCA;
 635              		.loc 1 668 0
 636 0002 1B49     		ldr	r1, .L123
 637 0004 CA23     		movs	r3, #202
 638 0006 4B62     		str	r3, [r1, #36]
 669:../../lib/STM32F4xx_StdPeriph_Driver/src/stm32f4xx_rtc.c ****   RTC->WPR = 0x53;
 639              		.loc 1 669 0
 640 0008 5323     		movs	r3, #83
 641 000a 4B62     		str	r3, [r1, #36]
 642              	.LBB112:
 643              	.LBB113:
 552:../../lib/STM32F4xx_StdPeriph_Driver/src/stm32f4xx_rtc.c ****   __IO uint32_t initcounter = 0x00;
 644              		.loc 1 552 0
 645 000c 0023     		movs	r3, #0
 646 000e 0193     		str	r3, [sp, #4]
 647              	.LVL65:
 557:../../lib/STM32F4xx_StdPeriph_Driver/src/stm32f4xx_rtc.c ****   if ((RTC->ISR & RTC_ISR_INITF) == (uint32_t)RESET)
 648              		.loc 1 557 0
 649 0010 CB68     		ldr	r3, [r1, #12]
 650 0012 5B06     		lsls	r3, r3, #25
 651 0014 19D4     		bmi	.L111
 560:../../lib/STM32F4xx_StdPeriph_Driver/src/stm32f4xx_rtc.c ****     RTC->ISR = (uint32_t)RTC_INIT_MASK;
 652              		.loc 1 560 0
 653 0016 4FF0FF33 		mov	r3, #-1
 654 001a CB60     		str	r3, [r1, #12]
 655 001c 00E0     		b	.L109
 656              	.LVL66:
 657              	.L122:
 567:../../lib/STM32F4xx_StdPeriph_Driver/src/stm32f4xx_rtc.c ****     } while((initcounter != INITMODE_TIMEOUT) && (initstatus == 0x00));
 658              		.loc 1 567 0
 659 001e 4AB9     		cbnz	r2, .L108
 660              	.LVL67:
 661              	.L109:
 565:../../lib/STM32F4xx_StdPeriph_Driver/src/stm32f4xx_rtc.c ****       initstatus = RTC->ISR & RTC_ISR_INITF;
 662              		.loc 1 565 0
 663 0020 CA68     		ldr	r2, [r1, #12]
 566:../../lib/STM32F4xx_StdPeriph_Driver/src/stm32f4xx_rtc.c ****       initcounter++;  
 664              		.loc 1 566 0
 665 0022 019B     		ldr	r3, [sp, #4]
 666 0024 0133     		adds	r3, r3, #1
 667              	.LVL68:
 668 0026 0193     		str	r3, [sp, #4]
 669              	.LVL69:
 567:../../lib/STM32F4xx_StdPeriph_Driver/src/stm32f4xx_rtc.c ****     } while((initcounter != INITMODE_TIMEOUT) && (initstatus == 0x00));
 670              		.loc 1 567 0
 671 0028 019B     		ldr	r3, [sp, #4]
 672              	.LVL70:
 565:../../lib/STM32F4xx_StdPeriph_Driver/src/stm32f4xx_rtc.c ****       initstatus = RTC->ISR & RTC_ISR_INITF;
 673              		.loc 1 565 0
 674 002a 02F04002 		and	r2, r2, #64
 675              	.LVL71:
 567:../../lib/STM32F4xx_StdPeriph_Driver/src/stm32f4xx_rtc.c ****     } while((initcounter != INITMODE_TIMEOUT) && (initstatus == 0x00));
 676              		.loc 1 567 0
 677 002e B3F5803F 		cmp	r3, #65536
 678 0032 F4D1     		bne	.L122
 679              	.L108:
 680              	.LBB114:
 681              	.LBB115:
 569:../../lib/STM32F4xx_StdPeriph_Driver/src/stm32f4xx_rtc.c ****     if ((RTC->ISR & RTC_ISR_INITF) != RESET)
 682              		.loc 1 569 0
 683 0034 0E4B     		ldr	r3, .L123
 684 0036 DB68     		ldr	r3, [r3, #12]
 685              	.LVL72:
 686              	.LBE115:
 687              	.LBE114:
 688              	.LBE113:
 689              	.LBE112:
 670:../../lib/STM32F4xx_StdPeriph_Driver/src/stm32f4xx_rtc.c ****     
 671:../../lib/STM32F4xx_StdPeriph_Driver/src/stm32f4xx_rtc.c ****   /* Set Initialization mode */
 672:../../lib/STM32F4xx_StdPeriph_Driver/src/stm32f4xx_rtc.c ****   if (RTC_EnterInitMode() == ERROR)
 690              		.loc 1 672 0
 691 0038 C3F38013 		ubfx	r3, r3, #6, #1
 692              	.LVL73:
 693 003c 2BB9     		cbnz	r3, .L111
 673:../../lib/STM32F4xx_StdPeriph_Driver/src/stm32f4xx_rtc.c ****   {
 674:../../lib/STM32F4xx_StdPeriph_Driver/src/stm32f4xx_rtc.c ****     status = ERROR;
 694              		.loc 1 674 0
 695 003e 1846     		mov	r0, r3
 696              	.LVL74:
 697              	.L110:
 675:../../lib/STM32F4xx_StdPeriph_Driver/src/stm32f4xx_rtc.c ****   } 
 676:../../lib/STM32F4xx_StdPeriph_Driver/src/stm32f4xx_rtc.c ****   else
 677:../../lib/STM32F4xx_StdPeriph_Driver/src/stm32f4xx_rtc.c ****   {  
 678:../../lib/STM32F4xx_StdPeriph_Driver/src/stm32f4xx_rtc.c ****     if (NewState != DISABLE)
 679:../../lib/STM32F4xx_StdPeriph_Driver/src/stm32f4xx_rtc.c ****     {
 680:../../lib/STM32F4xx_StdPeriph_Driver/src/stm32f4xx_rtc.c ****       /* Enable the RTC reference clock detection */
 681:../../lib/STM32F4xx_StdPeriph_Driver/src/stm32f4xx_rtc.c ****       RTC->CR |= RTC_CR_REFCKON;   
 682:../../lib/STM32F4xx_StdPeriph_Driver/src/stm32f4xx_rtc.c ****     }
 683:../../lib/STM32F4xx_StdPeriph_Driver/src/stm32f4xx_rtc.c ****     else
 684:../../lib/STM32F4xx_StdPeriph_Driver/src/stm32f4xx_rtc.c ****     {
 685:../../lib/STM32F4xx_StdPeriph_Driver/src/stm32f4xx_rtc.c ****       /* Disable the RTC reference clock detection */
 686:../../lib/STM32F4xx_StdPeriph_Driver/src/stm32f4xx_rtc.c ****       RTC->CR &= ~RTC_CR_REFCKON;    
 687:../../lib/STM32F4xx_StdPeriph_Driver/src/stm32f4xx_rtc.c ****     }
 688:../../lib/STM32F4xx_StdPeriph_Driver/src/stm32f4xx_rtc.c ****     /* Exit Initialization mode */
 689:../../lib/STM32F4xx_StdPeriph_Driver/src/stm32f4xx_rtc.c ****     RTC_ExitInitMode();
 690:../../lib/STM32F4xx_StdPeriph_Driver/src/stm32f4xx_rtc.c ****     
 691:../../lib/STM32F4xx_StdPeriph_Driver/src/stm32f4xx_rtc.c ****     status = SUCCESS;
 692:../../lib/STM32F4xx_StdPeriph_Driver/src/stm32f4xx_rtc.c ****   }
 693:../../lib/STM32F4xx_StdPeriph_Driver/src/stm32f4xx_rtc.c ****   
 694:../../lib/STM32F4xx_StdPeriph_Driver/src/stm32f4xx_rtc.c ****   /* Enable the write protection for RTC registers */
 695:../../lib/STM32F4xx_StdPeriph_Driver/src/stm32f4xx_rtc.c ****   RTC->WPR = 0xFF;  
 698              		.loc 1 695 0
 699 0040 FF22     		movs	r2, #255
 700 0042 0B4B     		ldr	r3, .L123
 701 0044 5A62     		str	r2, [r3, #36]
 696:../../lib/STM32F4xx_StdPeriph_Driver/src/stm32f4xx_rtc.c ****   
 697:../../lib/STM32F4xx_StdPeriph_Driver/src/stm32f4xx_rtc.c ****   return status; 
 698:../../lib/STM32F4xx_StdPeriph_Driver/src/stm32f4xx_rtc.c **** }
 702              		.loc 1 698 0
 703 0046 02B0     		add	sp, sp, #8
 704 0048 7047     		bx	lr
 705              	.LVL75:
 706              	.L111:
 678:../../lib/STM32F4xx_StdPeriph_Driver/src/stm32f4xx_rtc.c ****     if (NewState != DISABLE)
 707              		.loc 1 678 0
 708 004a 58B9     		cbnz	r0, .L106
 686:../../lib/STM32F4xx_StdPeriph_Driver/src/stm32f4xx_rtc.c ****       RTC->CR &= ~RTC_CR_REFCKON;    
 709              		.loc 1 686 0
 710 004c 084B     		ldr	r3, .L123
 711 004e 9A68     		ldr	r2, [r3, #8]
 712 0050 22F01002 		bic	r2, r2, #16
 713 0054 9A60     		str	r2, [r3, #8]
 714              	.L112:
 715              	.LBB116:
 716              	.LBB117:
 598:../../lib/STM32F4xx_StdPeriph_Driver/src/stm32f4xx_rtc.c ****   RTC->ISR &= (uint32_t)~RTC_ISR_INIT;  
 717              		.loc 1 598 0
 718 0056 064B     		ldr	r3, .L123
 719 0058 DA68     		ldr	r2, [r3, #12]
 720 005a 22F08002 		bic	r2, r2, #128
 721 005e DA60     		str	r2, [r3, #12]
 722              	.LVL76:
 691:../../lib/STM32F4xx_StdPeriph_Driver/src/stm32f4xx_rtc.c ****     status = SUCCESS;
 723              		.loc 1 691 0
 724 0060 0120     		movs	r0, #1
 725              	.LVL77:
 726 0062 EDE7     		b	.L110
 727              	.LVL78:
 728              	.L106:
 729              	.LBE117:
 730              	.LBE116:
 681:../../lib/STM32F4xx_StdPeriph_Driver/src/stm32f4xx_rtc.c ****       RTC->CR |= RTC_CR_REFCKON;   
 731              		.loc 1 681 0
 732 0064 024B     		ldr	r3, .L123
 733 0066 9A68     		ldr	r2, [r3, #8]
 734 0068 42F01002 		orr	r2, r2, #16
 735 006c 9A60     		str	r2, [r3, #8]
 736 006e F2E7     		b	.L112
 737              	.L124:
 738              		.align	2
 739              	.L123:
 740 0070 00280040 		.word	1073752064
 741              		.cfi_endproc
 742              	.LFE117:
 744              		.section	.text.RTC_BypassShadowCmd,"ax",%progbits
 745              		.align	2
 746              		.global	RTC_BypassShadowCmd
 747              		.thumb
 748              		.thumb_func
 750              	RTC_BypassShadowCmd:
 751              	.LFB118:
 699:../../lib/STM32F4xx_StdPeriph_Driver/src/stm32f4xx_rtc.c **** 
 700:../../lib/STM32F4xx_StdPeriph_Driver/src/stm32f4xx_rtc.c **** /**
 701:../../lib/STM32F4xx_StdPeriph_Driver/src/stm32f4xx_rtc.c ****   * @brief  Enables or Disables the Bypass Shadow feature.
 702:../../lib/STM32F4xx_StdPeriph_Driver/src/stm32f4xx_rtc.c ****   * @note   When the Bypass Shadow is enabled the calendar value are taken 
 703:../../lib/STM32F4xx_StdPeriph_Driver/src/stm32f4xx_rtc.c ****   *         directly from the Calendar counter.
 704:../../lib/STM32F4xx_StdPeriph_Driver/src/stm32f4xx_rtc.c ****   * @param  NewState: new state of the Bypass Shadow feature.
 705:../../lib/STM32F4xx_StdPeriph_Driver/src/stm32f4xx_rtc.c ****   *         This parameter can be: ENABLE or DISABLE.
 706:../../lib/STM32F4xx_StdPeriph_Driver/src/stm32f4xx_rtc.c ****   * @retval None
 707:../../lib/STM32F4xx_StdPeriph_Driver/src/stm32f4xx_rtc.c **** */
 708:../../lib/STM32F4xx_StdPeriph_Driver/src/stm32f4xx_rtc.c **** void RTC_BypassShadowCmd(FunctionalState NewState)
 709:../../lib/STM32F4xx_StdPeriph_Driver/src/stm32f4xx_rtc.c **** {
 752              		.loc 1 709 0
 753              		.cfi_startproc
 754              		@ args = 0, pretend = 0, frame = 0
 755              		@ frame_needed = 0, uses_anonymous_args = 0
 756              		@ link register save eliminated.
 757              	.LVL79:
 710:../../lib/STM32F4xx_StdPeriph_Driver/src/stm32f4xx_rtc.c ****   /* Check the parameters */
 711:../../lib/STM32F4xx_StdPeriph_Driver/src/stm32f4xx_rtc.c ****   assert_param(IS_FUNCTIONAL_STATE(NewState));
 712:../../lib/STM32F4xx_StdPeriph_Driver/src/stm32f4xx_rtc.c **** 
 713:../../lib/STM32F4xx_StdPeriph_Driver/src/stm32f4xx_rtc.c ****   /* Disable the write protection for RTC registers */
 714:../../lib/STM32F4xx_StdPeriph_Driver/src/stm32f4xx_rtc.c ****   RTC->WPR = 0xCA;
 758              		.loc 1 714 0
 759 0000 084B     		ldr	r3, .L129
 760 0002 CA22     		movs	r2, #202
 761 0004 5A62     		str	r2, [r3, #36]
 715:../../lib/STM32F4xx_StdPeriph_Driver/src/stm32f4xx_rtc.c ****   RTC->WPR = 0x53;
 762              		.loc 1 715 0
 763 0006 5322     		movs	r2, #83
 764 0008 5A62     		str	r2, [r3, #36]
 716:../../lib/STM32F4xx_StdPeriph_Driver/src/stm32f4xx_rtc.c ****   
 717:../../lib/STM32F4xx_StdPeriph_Driver/src/stm32f4xx_rtc.c ****   if (NewState != DISABLE)
 718:../../lib/STM32F4xx_StdPeriph_Driver/src/stm32f4xx_rtc.c ****   {
 719:../../lib/STM32F4xx_StdPeriph_Driver/src/stm32f4xx_rtc.c ****     /* Set the BYPSHAD bit */
 720:../../lib/STM32F4xx_StdPeriph_Driver/src/stm32f4xx_rtc.c ****     RTC->CR |= (uint8_t)RTC_CR_BYPSHAD;
 765              		.loc 1 720 0
 766 000a 9A68     		ldr	r2, [r3, #8]
 717:../../lib/STM32F4xx_StdPeriph_Driver/src/stm32f4xx_rtc.c ****   if (NewState != DISABLE)
 767              		.loc 1 717 0
 768 000c 30B9     		cbnz	r0, .L128
 721:../../lib/STM32F4xx_StdPeriph_Driver/src/stm32f4xx_rtc.c ****   }
 722:../../lib/STM32F4xx_StdPeriph_Driver/src/stm32f4xx_rtc.c ****   else
 723:../../lib/STM32F4xx_StdPeriph_Driver/src/stm32f4xx_rtc.c ****   {
 724:../../lib/STM32F4xx_StdPeriph_Driver/src/stm32f4xx_rtc.c ****     /* Reset the BYPSHAD bit */
 725:../../lib/STM32F4xx_StdPeriph_Driver/src/stm32f4xx_rtc.c ****     RTC->CR &= (uint8_t)~RTC_CR_BYPSHAD;
 769              		.loc 1 725 0
 770 000e 02F0DF02 		and	r2, r2, #223
 771 0012 9A60     		str	r2, [r3, #8]
 772              	.L127:
 726:../../lib/STM32F4xx_StdPeriph_Driver/src/stm32f4xx_rtc.c ****   }
 727:../../lib/STM32F4xx_StdPeriph_Driver/src/stm32f4xx_rtc.c **** 
 728:../../lib/STM32F4xx_StdPeriph_Driver/src/stm32f4xx_rtc.c ****   /* Enable the write protection for RTC registers */
 729:../../lib/STM32F4xx_StdPeriph_Driver/src/stm32f4xx_rtc.c ****   RTC->WPR = 0xFF;
 773              		.loc 1 729 0
 774 0014 FF22     		movs	r2, #255
 775 0016 034B     		ldr	r3, .L129
 776 0018 5A62     		str	r2, [r3, #36]
 777 001a 7047     		bx	lr
 778              	.L128:
 720:../../lib/STM32F4xx_StdPeriph_Driver/src/stm32f4xx_rtc.c ****     RTC->CR |= (uint8_t)RTC_CR_BYPSHAD;
 779              		.loc 1 720 0
 780 001c 42F02002 		orr	r2, r2, #32
 781 0020 9A60     		str	r2, [r3, #8]
 782 0022 F7E7     		b	.L127
 783              	.L130:
 784              		.align	2
 785              	.L129:
 786 0024 00280040 		.word	1073752064
 787              		.cfi_endproc
 788              	.LFE118:
 790              		.section	.text.RTC_SetTime,"ax",%progbits
 791              		.align	2
 792              		.global	RTC_SetTime
 793              		.thumb
 794              		.thumb_func
 796              	RTC_SetTime:
 797              	.LFB119:
 730:../../lib/STM32F4xx_StdPeriph_Driver/src/stm32f4xx_rtc.c **** }
 731:../../lib/STM32F4xx_StdPeriph_Driver/src/stm32f4xx_rtc.c **** 
 732:../../lib/STM32F4xx_StdPeriph_Driver/src/stm32f4xx_rtc.c **** /**
 733:../../lib/STM32F4xx_StdPeriph_Driver/src/stm32f4xx_rtc.c ****   * @}
 734:../../lib/STM32F4xx_StdPeriph_Driver/src/stm32f4xx_rtc.c ****   */
 735:../../lib/STM32F4xx_StdPeriph_Driver/src/stm32f4xx_rtc.c **** 
 736:../../lib/STM32F4xx_StdPeriph_Driver/src/stm32f4xx_rtc.c **** /** @defgroup RTC_Group2 Time and Date configuration functions
 737:../../lib/STM32F4xx_StdPeriph_Driver/src/stm32f4xx_rtc.c ****  *  @brief   Time and Date configuration functions 
 738:../../lib/STM32F4xx_StdPeriph_Driver/src/stm32f4xx_rtc.c ****  *
 739:../../lib/STM32F4xx_StdPeriph_Driver/src/stm32f4xx_rtc.c **** @verbatim   
 740:../../lib/STM32F4xx_StdPeriph_Driver/src/stm32f4xx_rtc.c ****  ===============================================================================
 741:../../lib/STM32F4xx_StdPeriph_Driver/src/stm32f4xx_rtc.c ****                    Time and Date configuration functions
 742:../../lib/STM32F4xx_StdPeriph_Driver/src/stm32f4xx_rtc.c ****  ===============================================================================  
 743:../../lib/STM32F4xx_StdPeriph_Driver/src/stm32f4xx_rtc.c **** 
 744:../../lib/STM32F4xx_StdPeriph_Driver/src/stm32f4xx_rtc.c ****   This section provide functions allowing to program and read the RTC Calendar
 745:../../lib/STM32F4xx_StdPeriph_Driver/src/stm32f4xx_rtc.c ****   (Time and Date).
 746:../../lib/STM32F4xx_StdPeriph_Driver/src/stm32f4xx_rtc.c **** 
 747:../../lib/STM32F4xx_StdPeriph_Driver/src/stm32f4xx_rtc.c **** @endverbatim
 748:../../lib/STM32F4xx_StdPeriph_Driver/src/stm32f4xx_rtc.c ****   * @{
 749:../../lib/STM32F4xx_StdPeriph_Driver/src/stm32f4xx_rtc.c ****   */
 750:../../lib/STM32F4xx_StdPeriph_Driver/src/stm32f4xx_rtc.c **** 
 751:../../lib/STM32F4xx_StdPeriph_Driver/src/stm32f4xx_rtc.c **** /**
 752:../../lib/STM32F4xx_StdPeriph_Driver/src/stm32f4xx_rtc.c ****   * @brief  Set the RTC current time.
 753:../../lib/STM32F4xx_StdPeriph_Driver/src/stm32f4xx_rtc.c ****   * @param  RTC_Format: specifies the format of the entered parameters.
 754:../../lib/STM32F4xx_StdPeriph_Driver/src/stm32f4xx_rtc.c ****   *          This parameter can be  one of the following values:
 755:../../lib/STM32F4xx_StdPeriph_Driver/src/stm32f4xx_rtc.c ****   *            @arg RTC_Format_BIN:  Binary data format 
 756:../../lib/STM32F4xx_StdPeriph_Driver/src/stm32f4xx_rtc.c ****   *            @arg RTC_Format_BCD:  BCD data format
 757:../../lib/STM32F4xx_StdPeriph_Driver/src/stm32f4xx_rtc.c ****   * @param  RTC_TimeStruct: pointer to a RTC_TimeTypeDef structure that contains 
 758:../../lib/STM32F4xx_StdPeriph_Driver/src/stm32f4xx_rtc.c ****   *                        the time configuration information for the RTC.     
 759:../../lib/STM32F4xx_StdPeriph_Driver/src/stm32f4xx_rtc.c ****   * @retval An ErrorStatus enumeration value:
 760:../../lib/STM32F4xx_StdPeriph_Driver/src/stm32f4xx_rtc.c ****   *          - SUCCESS: RTC Time register is configured
 761:../../lib/STM32F4xx_StdPeriph_Driver/src/stm32f4xx_rtc.c ****   *          - ERROR: RTC Time register is not configured
 762:../../lib/STM32F4xx_StdPeriph_Driver/src/stm32f4xx_rtc.c ****   */
 763:../../lib/STM32F4xx_StdPeriph_Driver/src/stm32f4xx_rtc.c **** ErrorStatus RTC_SetTime(uint32_t RTC_Format, RTC_TimeTypeDef* RTC_TimeStruct)
 764:../../lib/STM32F4xx_StdPeriph_Driver/src/stm32f4xx_rtc.c **** {
 798              		.loc 1 764 0
 799              		.cfi_startproc
 800              		@ args = 0, pretend = 0, frame = 8
 801              		@ frame_needed = 0, uses_anonymous_args = 0
 802              		@ link register save eliminated.
 803              	.LVL80:
 804 0000 30B4     		push	{r4, r5}
 805              	.LCFI5:
 806              		.cfi_def_cfa_offset 8
 807              		.cfi_offset 4, -8
 808              		.cfi_offset 5, -4
 809 0002 82B0     		sub	sp, sp, #8
 810              	.LCFI6:
 811              		.cfi_def_cfa_offset 16
 812              	.LVL81:
 765:../../lib/STM32F4xx_StdPeriph_Driver/src/stm32f4xx_rtc.c ****   uint32_t tmpreg = 0;
 766:../../lib/STM32F4xx_StdPeriph_Driver/src/stm32f4xx_rtc.c ****   ErrorStatus status = ERROR;
 767:../../lib/STM32F4xx_StdPeriph_Driver/src/stm32f4xx_rtc.c ****     
 768:../../lib/STM32F4xx_StdPeriph_Driver/src/stm32f4xx_rtc.c ****   /* Check the parameters */
 769:../../lib/STM32F4xx_StdPeriph_Driver/src/stm32f4xx_rtc.c ****   assert_param(IS_RTC_FORMAT(RTC_Format));
 770:../../lib/STM32F4xx_StdPeriph_Driver/src/stm32f4xx_rtc.c ****   
 771:../../lib/STM32F4xx_StdPeriph_Driver/src/stm32f4xx_rtc.c ****   if (RTC_Format == RTC_Format_BIN)
 772:../../lib/STM32F4xx_StdPeriph_Driver/src/stm32f4xx_rtc.c ****   {
 773:../../lib/STM32F4xx_StdPeriph_Driver/src/stm32f4xx_rtc.c ****     if ((RTC->CR & RTC_CR_FMT) != (uint32_t)RESET)
 813              		.loc 1 773 0
 814 0004 504B     		ldr	r3, .L181
 771:../../lib/STM32F4xx_StdPeriph_Driver/src/stm32f4xx_rtc.c ****   if (RTC_Format == RTC_Format_BIN)
 815              		.loc 1 771 0
 816 0006 0028     		cmp	r0, #0
 817 0008 32D1     		bne	.L132
 818              		.loc 1 773 0
 819 000a 9C68     		ldr	r4, [r3, #8]
 820 000c 14F04004 		ands	r4, r4, #64
 821 0010 62D1     		bne	.L133
 774:../../lib/STM32F4xx_StdPeriph_Driver/src/stm32f4xx_rtc.c ****     {
 775:../../lib/STM32F4xx_StdPeriph_Driver/src/stm32f4xx_rtc.c ****       assert_param(IS_RTC_HOUR12(RTC_TimeStruct->RTC_Hours));
 776:../../lib/STM32F4xx_StdPeriph_Driver/src/stm32f4xx_rtc.c ****       assert_param(IS_RTC_H12(RTC_TimeStruct->RTC_H12));
 777:../../lib/STM32F4xx_StdPeriph_Driver/src/stm32f4xx_rtc.c ****     } 
 778:../../lib/STM32F4xx_StdPeriph_Driver/src/stm32f4xx_rtc.c ****     else
 779:../../lib/STM32F4xx_StdPeriph_Driver/src/stm32f4xx_rtc.c ****     {
 780:../../lib/STM32F4xx_StdPeriph_Driver/src/stm32f4xx_rtc.c ****       RTC_TimeStruct->RTC_H12 = 0x00;
 822              		.loc 1 780 0
 823 0012 CC70     		strb	r4, [r1, #3]
 824              	.L134:
 781:../../lib/STM32F4xx_StdPeriph_Driver/src/stm32f4xx_rtc.c ****       assert_param(IS_RTC_HOUR24(RTC_TimeStruct->RTC_Hours));
 782:../../lib/STM32F4xx_StdPeriph_Driver/src/stm32f4xx_rtc.c ****     }
 783:../../lib/STM32F4xx_StdPeriph_Driver/src/stm32f4xx_rtc.c ****     assert_param(IS_RTC_MINUTES(RTC_TimeStruct->RTC_Minutes));
 784:../../lib/STM32F4xx_StdPeriph_Driver/src/stm32f4xx_rtc.c ****     assert_param(IS_RTC_SECONDS(RTC_TimeStruct->RTC_Seconds));
 785:../../lib/STM32F4xx_StdPeriph_Driver/src/stm32f4xx_rtc.c ****   }
 786:../../lib/STM32F4xx_StdPeriph_Driver/src/stm32f4xx_rtc.c ****   else
 787:../../lib/STM32F4xx_StdPeriph_Driver/src/stm32f4xx_rtc.c ****   {
 788:../../lib/STM32F4xx_StdPeriph_Driver/src/stm32f4xx_rtc.c ****     if ((RTC->CR & RTC_CR_FMT) != (uint32_t)RESET)
 789:../../lib/STM32F4xx_StdPeriph_Driver/src/stm32f4xx_rtc.c ****     {
 790:../../lib/STM32F4xx_StdPeriph_Driver/src/stm32f4xx_rtc.c ****       tmpreg = RTC_Bcd2ToByte(RTC_TimeStruct->RTC_Hours);
 791:../../lib/STM32F4xx_StdPeriph_Driver/src/stm32f4xx_rtc.c ****       assert_param(IS_RTC_HOUR12(tmpreg));
 792:../../lib/STM32F4xx_StdPeriph_Driver/src/stm32f4xx_rtc.c ****       assert_param(IS_RTC_H12(RTC_TimeStruct->RTC_H12)); 
 793:../../lib/STM32F4xx_StdPeriph_Driver/src/stm32f4xx_rtc.c ****     } 
 794:../../lib/STM32F4xx_StdPeriph_Driver/src/stm32f4xx_rtc.c ****     else
 795:../../lib/STM32F4xx_StdPeriph_Driver/src/stm32f4xx_rtc.c ****     {
 796:../../lib/STM32F4xx_StdPeriph_Driver/src/stm32f4xx_rtc.c ****       RTC_TimeStruct->RTC_H12 = 0x00;
 797:../../lib/STM32F4xx_StdPeriph_Driver/src/stm32f4xx_rtc.c ****       assert_param(IS_RTC_HOUR24(RTC_Bcd2ToByte(RTC_TimeStruct->RTC_Hours)));
 798:../../lib/STM32F4xx_StdPeriph_Driver/src/stm32f4xx_rtc.c ****     }
 799:../../lib/STM32F4xx_StdPeriph_Driver/src/stm32f4xx_rtc.c ****     assert_param(IS_RTC_MINUTES(RTC_Bcd2ToByte(RTC_TimeStruct->RTC_Minutes)));
 800:../../lib/STM32F4xx_StdPeriph_Driver/src/stm32f4xx_rtc.c ****     assert_param(IS_RTC_SECONDS(RTC_Bcd2ToByte(RTC_TimeStruct->RTC_Seconds)));
 801:../../lib/STM32F4xx_StdPeriph_Driver/src/stm32f4xx_rtc.c ****   }
 802:../../lib/STM32F4xx_StdPeriph_Driver/src/stm32f4xx_rtc.c ****   
 803:../../lib/STM32F4xx_StdPeriph_Driver/src/stm32f4xx_rtc.c ****   /* Check the input parameters format */
 804:../../lib/STM32F4xx_StdPeriph_Driver/src/stm32f4xx_rtc.c ****   if (RTC_Format != RTC_Format_BIN)
 805:../../lib/STM32F4xx_StdPeriph_Driver/src/stm32f4xx_rtc.c ****   {
 806:../../lib/STM32F4xx_StdPeriph_Driver/src/stm32f4xx_rtc.c ****     tmpreg = (((uint32_t)(RTC_TimeStruct->RTC_Hours) << 16) | \
 807:../../lib/STM32F4xx_StdPeriph_Driver/src/stm32f4xx_rtc.c ****              ((uint32_t)(RTC_TimeStruct->RTC_Minutes) << 8) | \
 808:../../lib/STM32F4xx_StdPeriph_Driver/src/stm32f4xx_rtc.c ****              ((uint32_t)RTC_TimeStruct->RTC_Seconds) | \
 809:../../lib/STM32F4xx_StdPeriph_Driver/src/stm32f4xx_rtc.c ****              ((uint32_t)(RTC_TimeStruct->RTC_H12) << 16)); 
 810:../../lib/STM32F4xx_StdPeriph_Driver/src/stm32f4xx_rtc.c ****   }  
 811:../../lib/STM32F4xx_StdPeriph_Driver/src/stm32f4xx_rtc.c ****   else
 812:../../lib/STM32F4xx_StdPeriph_Driver/src/stm32f4xx_rtc.c ****   {
 813:../../lib/STM32F4xx_StdPeriph_Driver/src/stm32f4xx_rtc.c ****     tmpreg = (uint32_t)(((uint32_t)RTC_ByteToBcd2(RTC_TimeStruct->RTC_Hours) << 16) | \
 825              		.loc 1 813 0
 826 0014 0B78     		ldrb	r3, [r1, #0]	@ zero_extendqisi2
 827              	.LVL82:
 828              	.LBB132:
 829              	.LBB133:
 814:../../lib/STM32F4xx_StdPeriph_Driver/src/stm32f4xx_rtc.c ****                    ((uint32_t)RTC_ByteToBcd2(RTC_TimeStruct->RTC_Minutes) << 8) | \
 815:../../lib/STM32F4xx_StdPeriph_Driver/src/stm32f4xx_rtc.c ****                    ((uint32_t)RTC_ByteToBcd2(RTC_TimeStruct->RTC_Seconds)) | \
 816:../../lib/STM32F4xx_StdPeriph_Driver/src/stm32f4xx_rtc.c ****                    (((uint32_t)RTC_TimeStruct->RTC_H12) << 16));
 817:../../lib/STM32F4xx_StdPeriph_Driver/src/stm32f4xx_rtc.c ****   }  
 818:../../lib/STM32F4xx_StdPeriph_Driver/src/stm32f4xx_rtc.c **** 
 819:../../lib/STM32F4xx_StdPeriph_Driver/src/stm32f4xx_rtc.c ****   /* Disable the write protection for RTC registers */
 820:../../lib/STM32F4xx_StdPeriph_Driver/src/stm32f4xx_rtc.c ****   RTC->WPR = 0xCA;
 821:../../lib/STM32F4xx_StdPeriph_Driver/src/stm32f4xx_rtc.c ****   RTC->WPR = 0x53;
 822:../../lib/STM32F4xx_StdPeriph_Driver/src/stm32f4xx_rtc.c **** 
 823:../../lib/STM32F4xx_StdPeriph_Driver/src/stm32f4xx_rtc.c ****   /* Set Initialization mode */
 824:../../lib/STM32F4xx_StdPeriph_Driver/src/stm32f4xx_rtc.c ****   if (RTC_EnterInitMode() == ERROR)
 825:../../lib/STM32F4xx_StdPeriph_Driver/src/stm32f4xx_rtc.c ****   {
 826:../../lib/STM32F4xx_StdPeriph_Driver/src/stm32f4xx_rtc.c ****     status = ERROR;
 827:../../lib/STM32F4xx_StdPeriph_Driver/src/stm32f4xx_rtc.c ****   } 
 828:../../lib/STM32F4xx_StdPeriph_Driver/src/stm32f4xx_rtc.c ****   else
 829:../../lib/STM32F4xx_StdPeriph_Driver/src/stm32f4xx_rtc.c ****   {
 830:../../lib/STM32F4xx_StdPeriph_Driver/src/stm32f4xx_rtc.c ****     /* Set the RTC_TR register */
 831:../../lib/STM32F4xx_StdPeriph_Driver/src/stm32f4xx_rtc.c ****     RTC->TR = (uint32_t)(tmpreg & RTC_TR_RESERVED_MASK);
 832:../../lib/STM32F4xx_StdPeriph_Driver/src/stm32f4xx_rtc.c **** 
 833:../../lib/STM32F4xx_StdPeriph_Driver/src/stm32f4xx_rtc.c ****     /* Exit Initialization mode */
 834:../../lib/STM32F4xx_StdPeriph_Driver/src/stm32f4xx_rtc.c ****     RTC_ExitInitMode(); 
 835:../../lib/STM32F4xx_StdPeriph_Driver/src/stm32f4xx_rtc.c **** 
 836:../../lib/STM32F4xx_StdPeriph_Driver/src/stm32f4xx_rtc.c ****     /* If  RTC_CR_BYPSHAD bit = 0, wait for synchro else this check is not needed */
 837:../../lib/STM32F4xx_StdPeriph_Driver/src/stm32f4xx_rtc.c ****     if ((RTC->CR & RTC_CR_BYPSHAD) == RESET)
 838:../../lib/STM32F4xx_StdPeriph_Driver/src/stm32f4xx_rtc.c ****     {
 839:../../lib/STM32F4xx_StdPeriph_Driver/src/stm32f4xx_rtc.c ****       if (RTC_WaitForSynchro() == ERROR)
 840:../../lib/STM32F4xx_StdPeriph_Driver/src/stm32f4xx_rtc.c ****       {
 841:../../lib/STM32F4xx_StdPeriph_Driver/src/stm32f4xx_rtc.c ****         status = ERROR;
 842:../../lib/STM32F4xx_StdPeriph_Driver/src/stm32f4xx_rtc.c ****       }
 843:../../lib/STM32F4xx_StdPeriph_Driver/src/stm32f4xx_rtc.c ****       else
 844:../../lib/STM32F4xx_StdPeriph_Driver/src/stm32f4xx_rtc.c ****       {
 845:../../lib/STM32F4xx_StdPeriph_Driver/src/stm32f4xx_rtc.c ****         status = SUCCESS;
 846:../../lib/STM32F4xx_StdPeriph_Driver/src/stm32f4xx_rtc.c ****       }
 847:../../lib/STM32F4xx_StdPeriph_Driver/src/stm32f4xx_rtc.c ****     }
 848:../../lib/STM32F4xx_StdPeriph_Driver/src/stm32f4xx_rtc.c ****     else
 849:../../lib/STM32F4xx_StdPeriph_Driver/src/stm32f4xx_rtc.c ****     {
 850:../../lib/STM32F4xx_StdPeriph_Driver/src/stm32f4xx_rtc.c ****       status = SUCCESS;
 851:../../lib/STM32F4xx_StdPeriph_Driver/src/stm32f4xx_rtc.c ****     }
 852:../../lib/STM32F4xx_StdPeriph_Driver/src/stm32f4xx_rtc.c ****   }
 853:../../lib/STM32F4xx_StdPeriph_Driver/src/stm32f4xx_rtc.c ****   /* Enable the write protection for RTC registers */
 854:../../lib/STM32F4xx_StdPeriph_Driver/src/stm32f4xx_rtc.c ****   RTC->WPR = 0xFF; 
 855:../../lib/STM32F4xx_StdPeriph_Driver/src/stm32f4xx_rtc.c ****     
 856:../../lib/STM32F4xx_StdPeriph_Driver/src/stm32f4xx_rtc.c ****   return status;
 857:../../lib/STM32F4xx_StdPeriph_Driver/src/stm32f4xx_rtc.c **** }
 858:../../lib/STM32F4xx_StdPeriph_Driver/src/stm32f4xx_rtc.c **** 
 859:../../lib/STM32F4xx_StdPeriph_Driver/src/stm32f4xx_rtc.c **** /**
 860:../../lib/STM32F4xx_StdPeriph_Driver/src/stm32f4xx_rtc.c ****   * @brief  Fills each RTC_TimeStruct member with its default value
 861:../../lib/STM32F4xx_StdPeriph_Driver/src/stm32f4xx_rtc.c ****   *         (Time = 00h:00min:00sec).
 862:../../lib/STM32F4xx_StdPeriph_Driver/src/stm32f4xx_rtc.c ****   * @param  RTC_TimeStruct: pointer to a RTC_TimeTypeDef structure which will be 
 863:../../lib/STM32F4xx_StdPeriph_Driver/src/stm32f4xx_rtc.c ****   *         initialized.
 864:../../lib/STM32F4xx_StdPeriph_Driver/src/stm32f4xx_rtc.c ****   * @retval None
 865:../../lib/STM32F4xx_StdPeriph_Driver/src/stm32f4xx_rtc.c ****   */
 866:../../lib/STM32F4xx_StdPeriph_Driver/src/stm32f4xx_rtc.c **** void RTC_TimeStructInit(RTC_TimeTypeDef* RTC_TimeStruct)
 867:../../lib/STM32F4xx_StdPeriph_Driver/src/stm32f4xx_rtc.c **** {
 868:../../lib/STM32F4xx_StdPeriph_Driver/src/stm32f4xx_rtc.c ****   /* Time = 00h:00min:00sec */
 869:../../lib/STM32F4xx_StdPeriph_Driver/src/stm32f4xx_rtc.c ****   RTC_TimeStruct->RTC_H12 = RTC_H12_AM;
 870:../../lib/STM32F4xx_StdPeriph_Driver/src/stm32f4xx_rtc.c ****   RTC_TimeStruct->RTC_Hours = 0;
 871:../../lib/STM32F4xx_StdPeriph_Driver/src/stm32f4xx_rtc.c ****   RTC_TimeStruct->RTC_Minutes = 0;
 872:../../lib/STM32F4xx_StdPeriph_Driver/src/stm32f4xx_rtc.c ****   RTC_TimeStruct->RTC_Seconds = 0; 
 873:../../lib/STM32F4xx_StdPeriph_Driver/src/stm32f4xx_rtc.c **** }
 874:../../lib/STM32F4xx_StdPeriph_Driver/src/stm32f4xx_rtc.c **** 
 875:../../lib/STM32F4xx_StdPeriph_Driver/src/stm32f4xx_rtc.c **** /**
 876:../../lib/STM32F4xx_StdPeriph_Driver/src/stm32f4xx_rtc.c ****   * @brief  Get the RTC current Time.
 877:../../lib/STM32F4xx_StdPeriph_Driver/src/stm32f4xx_rtc.c ****   * @param  RTC_Format: specifies the format of the returned parameters.
 878:../../lib/STM32F4xx_StdPeriph_Driver/src/stm32f4xx_rtc.c ****   *          This parameter can be  one of the following values:
 879:../../lib/STM32F4xx_StdPeriph_Driver/src/stm32f4xx_rtc.c ****   *            @arg RTC_Format_BIN:  Binary data format 
 880:../../lib/STM32F4xx_StdPeriph_Driver/src/stm32f4xx_rtc.c ****   *            @arg RTC_Format_BCD:  BCD data format
 881:../../lib/STM32F4xx_StdPeriph_Driver/src/stm32f4xx_rtc.c ****   * @param  RTC_TimeStruct: pointer to a RTC_TimeTypeDef structure that will 
 882:../../lib/STM32F4xx_StdPeriph_Driver/src/stm32f4xx_rtc.c ****   *                        contain the returned current time configuration.     
 883:../../lib/STM32F4xx_StdPeriph_Driver/src/stm32f4xx_rtc.c ****   * @retval None
 884:../../lib/STM32F4xx_StdPeriph_Driver/src/stm32f4xx_rtc.c ****   */
 885:../../lib/STM32F4xx_StdPeriph_Driver/src/stm32f4xx_rtc.c **** void RTC_GetTime(uint32_t RTC_Format, RTC_TimeTypeDef* RTC_TimeStruct)
 886:../../lib/STM32F4xx_StdPeriph_Driver/src/stm32f4xx_rtc.c **** {
 887:../../lib/STM32F4xx_StdPeriph_Driver/src/stm32f4xx_rtc.c ****   uint32_t tmpreg = 0;
 888:../../lib/STM32F4xx_StdPeriph_Driver/src/stm32f4xx_rtc.c **** 
 889:../../lib/STM32F4xx_StdPeriph_Driver/src/stm32f4xx_rtc.c ****   /* Check the parameters */
 890:../../lib/STM32F4xx_StdPeriph_Driver/src/stm32f4xx_rtc.c ****   assert_param(IS_RTC_FORMAT(RTC_Format));
 891:../../lib/STM32F4xx_StdPeriph_Driver/src/stm32f4xx_rtc.c **** 
 892:../../lib/STM32F4xx_StdPeriph_Driver/src/stm32f4xx_rtc.c ****   /* Get the RTC_TR register */
 893:../../lib/STM32F4xx_StdPeriph_Driver/src/stm32f4xx_rtc.c ****   tmpreg = (uint32_t)(RTC->TR & RTC_TR_RESERVED_MASK); 
 894:../../lib/STM32F4xx_StdPeriph_Driver/src/stm32f4xx_rtc.c ****   
 895:../../lib/STM32F4xx_StdPeriph_Driver/src/stm32f4xx_rtc.c ****   /* Fill the structure fields with the read parameters */
 896:../../lib/STM32F4xx_StdPeriph_Driver/src/stm32f4xx_rtc.c ****   RTC_TimeStruct->RTC_Hours = (uint8_t)((tmpreg & (RTC_TR_HT | RTC_TR_HU)) >> 16);
 897:../../lib/STM32F4xx_StdPeriph_Driver/src/stm32f4xx_rtc.c ****   RTC_TimeStruct->RTC_Minutes = (uint8_t)((tmpreg & (RTC_TR_MNT | RTC_TR_MNU)) >>8);
 898:../../lib/STM32F4xx_StdPeriph_Driver/src/stm32f4xx_rtc.c ****   RTC_TimeStruct->RTC_Seconds = (uint8_t)(tmpreg & (RTC_TR_ST | RTC_TR_SU));
 899:../../lib/STM32F4xx_StdPeriph_Driver/src/stm32f4xx_rtc.c ****   RTC_TimeStruct->RTC_H12 = (uint8_t)((tmpreg & (RTC_TR_PM)) >> 16);  
 900:../../lib/STM32F4xx_StdPeriph_Driver/src/stm32f4xx_rtc.c **** 
 901:../../lib/STM32F4xx_StdPeriph_Driver/src/stm32f4xx_rtc.c ****   /* Check the input parameters format */
 902:../../lib/STM32F4xx_StdPeriph_Driver/src/stm32f4xx_rtc.c ****   if (RTC_Format == RTC_Format_BIN)
 903:../../lib/STM32F4xx_StdPeriph_Driver/src/stm32f4xx_rtc.c ****   {
 904:../../lib/STM32F4xx_StdPeriph_Driver/src/stm32f4xx_rtc.c ****     /* Convert the structure parameters to Binary format */
 905:../../lib/STM32F4xx_StdPeriph_Driver/src/stm32f4xx_rtc.c ****     RTC_TimeStruct->RTC_Hours = (uint8_t)RTC_Bcd2ToByte(RTC_TimeStruct->RTC_Hours);
 906:../../lib/STM32F4xx_StdPeriph_Driver/src/stm32f4xx_rtc.c ****     RTC_TimeStruct->RTC_Minutes = (uint8_t)RTC_Bcd2ToByte(RTC_TimeStruct->RTC_Minutes);
 907:../../lib/STM32F4xx_StdPeriph_Driver/src/stm32f4xx_rtc.c ****     RTC_TimeStruct->RTC_Seconds = (uint8_t)RTC_Bcd2ToByte(RTC_TimeStruct->RTC_Seconds);   
 908:../../lib/STM32F4xx_StdPeriph_Driver/src/stm32f4xx_rtc.c ****   }
 909:../../lib/STM32F4xx_StdPeriph_Driver/src/stm32f4xx_rtc.c **** }
 910:../../lib/STM32F4xx_StdPeriph_Driver/src/stm32f4xx_rtc.c **** 
 911:../../lib/STM32F4xx_StdPeriph_Driver/src/stm32f4xx_rtc.c **** /**
 912:../../lib/STM32F4xx_StdPeriph_Driver/src/stm32f4xx_rtc.c ****   * @brief  Gets the RTC current Calendar Subseconds value.
 913:../../lib/STM32F4xx_StdPeriph_Driver/src/stm32f4xx_rtc.c ****   * @note   This function freeze the Time and Date registers after reading the 
 914:../../lib/STM32F4xx_StdPeriph_Driver/src/stm32f4xx_rtc.c ****   *         SSR register.
 915:../../lib/STM32F4xx_StdPeriph_Driver/src/stm32f4xx_rtc.c ****   * @param  None
 916:../../lib/STM32F4xx_StdPeriph_Driver/src/stm32f4xx_rtc.c ****   * @retval RTC current Calendar Subseconds value.
 917:../../lib/STM32F4xx_StdPeriph_Driver/src/stm32f4xx_rtc.c ****   */
 918:../../lib/STM32F4xx_StdPeriph_Driver/src/stm32f4xx_rtc.c **** uint32_t RTC_GetSubSecond(void)
 919:../../lib/STM32F4xx_StdPeriph_Driver/src/stm32f4xx_rtc.c **** {
 920:../../lib/STM32F4xx_StdPeriph_Driver/src/stm32f4xx_rtc.c ****   uint32_t tmpreg = 0;
 921:../../lib/STM32F4xx_StdPeriph_Driver/src/stm32f4xx_rtc.c ****   
 922:../../lib/STM32F4xx_StdPeriph_Driver/src/stm32f4xx_rtc.c ****   /* Get subseconds values from the correspondent registers*/
 923:../../lib/STM32F4xx_StdPeriph_Driver/src/stm32f4xx_rtc.c ****   tmpreg = (uint32_t)(RTC->SSR);
 924:../../lib/STM32F4xx_StdPeriph_Driver/src/stm32f4xx_rtc.c ****   
 925:../../lib/STM32F4xx_StdPeriph_Driver/src/stm32f4xx_rtc.c ****   /* Read DR register to unfroze calendar registers */
 926:../../lib/STM32F4xx_StdPeriph_Driver/src/stm32f4xx_rtc.c ****   (void) (RTC->DR);
 927:../../lib/STM32F4xx_StdPeriph_Driver/src/stm32f4xx_rtc.c ****   
 928:../../lib/STM32F4xx_StdPeriph_Driver/src/stm32f4xx_rtc.c ****   return (tmpreg);
 929:../../lib/STM32F4xx_StdPeriph_Driver/src/stm32f4xx_rtc.c **** }
 930:../../lib/STM32F4xx_StdPeriph_Driver/src/stm32f4xx_rtc.c **** 
 931:../../lib/STM32F4xx_StdPeriph_Driver/src/stm32f4xx_rtc.c **** /**
 932:../../lib/STM32F4xx_StdPeriph_Driver/src/stm32f4xx_rtc.c ****   * @brief  Set the RTC current date.
 933:../../lib/STM32F4xx_StdPeriph_Driver/src/stm32f4xx_rtc.c ****   * @param  RTC_Format: specifies the format of the entered parameters.
 934:../../lib/STM32F4xx_StdPeriph_Driver/src/stm32f4xx_rtc.c ****   *          This parameter can be  one of the following values:
 935:../../lib/STM32F4xx_StdPeriph_Driver/src/stm32f4xx_rtc.c ****   *            @arg RTC_Format_BIN:  Binary data format 
 936:../../lib/STM32F4xx_StdPeriph_Driver/src/stm32f4xx_rtc.c ****   *            @arg RTC_Format_BCD:  BCD data format
 937:../../lib/STM32F4xx_StdPeriph_Driver/src/stm32f4xx_rtc.c ****   * @param  RTC_DateStruct: pointer to a RTC_DateTypeDef structure that contains 
 938:../../lib/STM32F4xx_StdPeriph_Driver/src/stm32f4xx_rtc.c ****   *                         the date configuration information for the RTC.
 939:../../lib/STM32F4xx_StdPeriph_Driver/src/stm32f4xx_rtc.c ****   * @retval An ErrorStatus enumeration value:
 940:../../lib/STM32F4xx_StdPeriph_Driver/src/stm32f4xx_rtc.c ****   *          - SUCCESS: RTC Date register is configured
 941:../../lib/STM32F4xx_StdPeriph_Driver/src/stm32f4xx_rtc.c ****   *          - ERROR: RTC Date register is not configured
 942:../../lib/STM32F4xx_StdPeriph_Driver/src/stm32f4xx_rtc.c ****   */
 943:../../lib/STM32F4xx_StdPeriph_Driver/src/stm32f4xx_rtc.c **** ErrorStatus RTC_SetDate(uint32_t RTC_Format, RTC_DateTypeDef* RTC_DateStruct)
 944:../../lib/STM32F4xx_StdPeriph_Driver/src/stm32f4xx_rtc.c **** {
 945:../../lib/STM32F4xx_StdPeriph_Driver/src/stm32f4xx_rtc.c ****   uint32_t tmpreg = 0;
 946:../../lib/STM32F4xx_StdPeriph_Driver/src/stm32f4xx_rtc.c ****   ErrorStatus status = ERROR;
 947:../../lib/STM32F4xx_StdPeriph_Driver/src/stm32f4xx_rtc.c ****   
 948:../../lib/STM32F4xx_StdPeriph_Driver/src/stm32f4xx_rtc.c ****   /* Check the parameters */
 949:../../lib/STM32F4xx_StdPeriph_Driver/src/stm32f4xx_rtc.c ****   assert_param(IS_RTC_FORMAT(RTC_Format));
 950:../../lib/STM32F4xx_StdPeriph_Driver/src/stm32f4xx_rtc.c **** 
 951:../../lib/STM32F4xx_StdPeriph_Driver/src/stm32f4xx_rtc.c ****   if ((RTC_Format == RTC_Format_BIN) && ((RTC_DateStruct->RTC_Month & 0x10) == 0x10))
 952:../../lib/STM32F4xx_StdPeriph_Driver/src/stm32f4xx_rtc.c ****   {
 953:../../lib/STM32F4xx_StdPeriph_Driver/src/stm32f4xx_rtc.c ****     RTC_DateStruct->RTC_Month = (RTC_DateStruct->RTC_Month & (uint32_t)~(0x10)) + 0x0A;
 954:../../lib/STM32F4xx_StdPeriph_Driver/src/stm32f4xx_rtc.c ****   }  
 955:../../lib/STM32F4xx_StdPeriph_Driver/src/stm32f4xx_rtc.c ****   if (RTC_Format == RTC_Format_BIN)
 956:../../lib/STM32F4xx_StdPeriph_Driver/src/stm32f4xx_rtc.c ****   {
 957:../../lib/STM32F4xx_StdPeriph_Driver/src/stm32f4xx_rtc.c ****     assert_param(IS_RTC_YEAR(RTC_DateStruct->RTC_Year));
 958:../../lib/STM32F4xx_StdPeriph_Driver/src/stm32f4xx_rtc.c ****     assert_param(IS_RTC_MONTH(RTC_DateStruct->RTC_Month));
 959:../../lib/STM32F4xx_StdPeriph_Driver/src/stm32f4xx_rtc.c ****     assert_param(IS_RTC_DATE(RTC_DateStruct->RTC_Date));
 960:../../lib/STM32F4xx_StdPeriph_Driver/src/stm32f4xx_rtc.c ****   }
 961:../../lib/STM32F4xx_StdPeriph_Driver/src/stm32f4xx_rtc.c ****   else
 962:../../lib/STM32F4xx_StdPeriph_Driver/src/stm32f4xx_rtc.c ****   {
 963:../../lib/STM32F4xx_StdPeriph_Driver/src/stm32f4xx_rtc.c ****     assert_param(IS_RTC_YEAR(RTC_Bcd2ToByte(RTC_DateStruct->RTC_Year)));
 964:../../lib/STM32F4xx_StdPeriph_Driver/src/stm32f4xx_rtc.c ****     tmpreg = RTC_Bcd2ToByte(RTC_DateStruct->RTC_Month);
 965:../../lib/STM32F4xx_StdPeriph_Driver/src/stm32f4xx_rtc.c ****     assert_param(IS_RTC_MONTH(tmpreg));
 966:../../lib/STM32F4xx_StdPeriph_Driver/src/stm32f4xx_rtc.c ****     tmpreg = RTC_Bcd2ToByte(RTC_DateStruct->RTC_Date);
 967:../../lib/STM32F4xx_StdPeriph_Driver/src/stm32f4xx_rtc.c ****     assert_param(IS_RTC_DATE(tmpreg));
 968:../../lib/STM32F4xx_StdPeriph_Driver/src/stm32f4xx_rtc.c ****   }
 969:../../lib/STM32F4xx_StdPeriph_Driver/src/stm32f4xx_rtc.c ****   assert_param(IS_RTC_WEEKDAY(RTC_DateStruct->RTC_WeekDay));
 970:../../lib/STM32F4xx_StdPeriph_Driver/src/stm32f4xx_rtc.c **** 
 971:../../lib/STM32F4xx_StdPeriph_Driver/src/stm32f4xx_rtc.c ****   /* Check the input parameters format */
 972:../../lib/STM32F4xx_StdPeriph_Driver/src/stm32f4xx_rtc.c ****   if (RTC_Format != RTC_Format_BIN)
 973:../../lib/STM32F4xx_StdPeriph_Driver/src/stm32f4xx_rtc.c ****   {
 974:../../lib/STM32F4xx_StdPeriph_Driver/src/stm32f4xx_rtc.c ****     tmpreg = ((((uint32_t)RTC_DateStruct->RTC_Year) << 16) | \
 975:../../lib/STM32F4xx_StdPeriph_Driver/src/stm32f4xx_rtc.c ****               (((uint32_t)RTC_DateStruct->RTC_Month) << 8) | \
 976:../../lib/STM32F4xx_StdPeriph_Driver/src/stm32f4xx_rtc.c ****               ((uint32_t)RTC_DateStruct->RTC_Date) | \
 977:../../lib/STM32F4xx_StdPeriph_Driver/src/stm32f4xx_rtc.c ****               (((uint32_t)RTC_DateStruct->RTC_WeekDay) << 13)); 
 978:../../lib/STM32F4xx_StdPeriph_Driver/src/stm32f4xx_rtc.c ****   }  
 979:../../lib/STM32F4xx_StdPeriph_Driver/src/stm32f4xx_rtc.c ****   else
 980:../../lib/STM32F4xx_StdPeriph_Driver/src/stm32f4xx_rtc.c ****   {
 981:../../lib/STM32F4xx_StdPeriph_Driver/src/stm32f4xx_rtc.c ****     tmpreg = (((uint32_t)RTC_ByteToBcd2(RTC_DateStruct->RTC_Year) << 16) | \
 982:../../lib/STM32F4xx_StdPeriph_Driver/src/stm32f4xx_rtc.c ****               ((uint32_t)RTC_ByteToBcd2(RTC_DateStruct->RTC_Month) << 8) | \
 983:../../lib/STM32F4xx_StdPeriph_Driver/src/stm32f4xx_rtc.c ****               ((uint32_t)RTC_ByteToBcd2(RTC_DateStruct->RTC_Date)) | \
 984:../../lib/STM32F4xx_StdPeriph_Driver/src/stm32f4xx_rtc.c ****               ((uint32_t)RTC_DateStruct->RTC_WeekDay << 13));
 985:../../lib/STM32F4xx_StdPeriph_Driver/src/stm32f4xx_rtc.c ****   }
 986:../../lib/STM32F4xx_StdPeriph_Driver/src/stm32f4xx_rtc.c **** 
 987:../../lib/STM32F4xx_StdPeriph_Driver/src/stm32f4xx_rtc.c ****   /* Disable the write protection for RTC registers */
 988:../../lib/STM32F4xx_StdPeriph_Driver/src/stm32f4xx_rtc.c ****   RTC->WPR = 0xCA;
 989:../../lib/STM32F4xx_StdPeriph_Driver/src/stm32f4xx_rtc.c ****   RTC->WPR = 0x53;
 990:../../lib/STM32F4xx_StdPeriph_Driver/src/stm32f4xx_rtc.c **** 
 991:../../lib/STM32F4xx_StdPeriph_Driver/src/stm32f4xx_rtc.c ****   /* Set Initialization mode */
 992:../../lib/STM32F4xx_StdPeriph_Driver/src/stm32f4xx_rtc.c ****   if (RTC_EnterInitMode() == ERROR)
 993:../../lib/STM32F4xx_StdPeriph_Driver/src/stm32f4xx_rtc.c ****   {
 994:../../lib/STM32F4xx_StdPeriph_Driver/src/stm32f4xx_rtc.c ****     status = ERROR;
 995:../../lib/STM32F4xx_StdPeriph_Driver/src/stm32f4xx_rtc.c ****   } 
 996:../../lib/STM32F4xx_StdPeriph_Driver/src/stm32f4xx_rtc.c ****   else
 997:../../lib/STM32F4xx_StdPeriph_Driver/src/stm32f4xx_rtc.c ****   {
 998:../../lib/STM32F4xx_StdPeriph_Driver/src/stm32f4xx_rtc.c ****     /* Set the RTC_DR register */
 999:../../lib/STM32F4xx_StdPeriph_Driver/src/stm32f4xx_rtc.c ****     RTC->DR = (uint32_t)(tmpreg & RTC_DR_RESERVED_MASK);
1000:../../lib/STM32F4xx_StdPeriph_Driver/src/stm32f4xx_rtc.c **** 
1001:../../lib/STM32F4xx_StdPeriph_Driver/src/stm32f4xx_rtc.c ****     /* Exit Initialization mode */
1002:../../lib/STM32F4xx_StdPeriph_Driver/src/stm32f4xx_rtc.c ****     RTC_ExitInitMode(); 
1003:../../lib/STM32F4xx_StdPeriph_Driver/src/stm32f4xx_rtc.c **** 
1004:../../lib/STM32F4xx_StdPeriph_Driver/src/stm32f4xx_rtc.c ****     /* If  RTC_CR_BYPSHAD bit = 0, wait for synchro else this check is not needed */
1005:../../lib/STM32F4xx_StdPeriph_Driver/src/stm32f4xx_rtc.c ****     if ((RTC->CR & RTC_CR_BYPSHAD) == RESET)
1006:../../lib/STM32F4xx_StdPeriph_Driver/src/stm32f4xx_rtc.c ****     {
1007:../../lib/STM32F4xx_StdPeriph_Driver/src/stm32f4xx_rtc.c ****       if (RTC_WaitForSynchro() == ERROR)
1008:../../lib/STM32F4xx_StdPeriph_Driver/src/stm32f4xx_rtc.c ****       {
1009:../../lib/STM32F4xx_StdPeriph_Driver/src/stm32f4xx_rtc.c ****         status = ERROR;
1010:../../lib/STM32F4xx_StdPeriph_Driver/src/stm32f4xx_rtc.c ****       }
1011:../../lib/STM32F4xx_StdPeriph_Driver/src/stm32f4xx_rtc.c ****       else
1012:../../lib/STM32F4xx_StdPeriph_Driver/src/stm32f4xx_rtc.c ****       {
1013:../../lib/STM32F4xx_StdPeriph_Driver/src/stm32f4xx_rtc.c ****         status = SUCCESS;
1014:../../lib/STM32F4xx_StdPeriph_Driver/src/stm32f4xx_rtc.c ****       }
1015:../../lib/STM32F4xx_StdPeriph_Driver/src/stm32f4xx_rtc.c ****     }
1016:../../lib/STM32F4xx_StdPeriph_Driver/src/stm32f4xx_rtc.c ****     else
1017:../../lib/STM32F4xx_StdPeriph_Driver/src/stm32f4xx_rtc.c ****     {
1018:../../lib/STM32F4xx_StdPeriph_Driver/src/stm32f4xx_rtc.c ****       status = SUCCESS;
1019:../../lib/STM32F4xx_StdPeriph_Driver/src/stm32f4xx_rtc.c ****     }
1020:../../lib/STM32F4xx_StdPeriph_Driver/src/stm32f4xx_rtc.c ****   }
1021:../../lib/STM32F4xx_StdPeriph_Driver/src/stm32f4xx_rtc.c ****   /* Enable the write protection for RTC registers */
1022:../../lib/STM32F4xx_StdPeriph_Driver/src/stm32f4xx_rtc.c ****   RTC->WPR = 0xFF;   
1023:../../lib/STM32F4xx_StdPeriph_Driver/src/stm32f4xx_rtc.c ****   
1024:../../lib/STM32F4xx_StdPeriph_Driver/src/stm32f4xx_rtc.c ****   return status;
1025:../../lib/STM32F4xx_StdPeriph_Driver/src/stm32f4xx_rtc.c **** }
1026:../../lib/STM32F4xx_StdPeriph_Driver/src/stm32f4xx_rtc.c **** 
1027:../../lib/STM32F4xx_StdPeriph_Driver/src/stm32f4xx_rtc.c **** /**
1028:../../lib/STM32F4xx_StdPeriph_Driver/src/stm32f4xx_rtc.c ****   * @brief  Fills each RTC_DateStruct member with its default value
1029:../../lib/STM32F4xx_StdPeriph_Driver/src/stm32f4xx_rtc.c ****   *         (Monday, January 01 xx00).
1030:../../lib/STM32F4xx_StdPeriph_Driver/src/stm32f4xx_rtc.c ****   * @param  RTC_DateStruct: pointer to a RTC_DateTypeDef structure which will be 
1031:../../lib/STM32F4xx_StdPeriph_Driver/src/stm32f4xx_rtc.c ****   *         initialized.
1032:../../lib/STM32F4xx_StdPeriph_Driver/src/stm32f4xx_rtc.c ****   * @retval None
1033:../../lib/STM32F4xx_StdPeriph_Driver/src/stm32f4xx_rtc.c ****   */
1034:../../lib/STM32F4xx_StdPeriph_Driver/src/stm32f4xx_rtc.c **** void RTC_DateStructInit(RTC_DateTypeDef* RTC_DateStruct)
1035:../../lib/STM32F4xx_StdPeriph_Driver/src/stm32f4xx_rtc.c **** {
1036:../../lib/STM32F4xx_StdPeriph_Driver/src/stm32f4xx_rtc.c ****   /* Monday, January 01 xx00 */
1037:../../lib/STM32F4xx_StdPeriph_Driver/src/stm32f4xx_rtc.c ****   RTC_DateStruct->RTC_WeekDay = RTC_Weekday_Monday;
1038:../../lib/STM32F4xx_StdPeriph_Driver/src/stm32f4xx_rtc.c ****   RTC_DateStruct->RTC_Date = 1;
1039:../../lib/STM32F4xx_StdPeriph_Driver/src/stm32f4xx_rtc.c ****   RTC_DateStruct->RTC_Month = RTC_Month_January;
1040:../../lib/STM32F4xx_StdPeriph_Driver/src/stm32f4xx_rtc.c ****   RTC_DateStruct->RTC_Year = 0;
1041:../../lib/STM32F4xx_StdPeriph_Driver/src/stm32f4xx_rtc.c **** }
1042:../../lib/STM32F4xx_StdPeriph_Driver/src/stm32f4xx_rtc.c **** 
1043:../../lib/STM32F4xx_StdPeriph_Driver/src/stm32f4xx_rtc.c **** /**
1044:../../lib/STM32F4xx_StdPeriph_Driver/src/stm32f4xx_rtc.c ****   * @brief  Get the RTC current date. 
1045:../../lib/STM32F4xx_StdPeriph_Driver/src/stm32f4xx_rtc.c ****   * @param  RTC_Format: specifies the format of the returned parameters.
1046:../../lib/STM32F4xx_StdPeriph_Driver/src/stm32f4xx_rtc.c ****   *          This parameter can be one of the following values:
1047:../../lib/STM32F4xx_StdPeriph_Driver/src/stm32f4xx_rtc.c ****   *            @arg RTC_Format_BIN: Binary data format 
1048:../../lib/STM32F4xx_StdPeriph_Driver/src/stm32f4xx_rtc.c ****   *            @arg RTC_Format_BCD: BCD data format
1049:../../lib/STM32F4xx_StdPeriph_Driver/src/stm32f4xx_rtc.c ****   * @param RTC_DateStruct: pointer to a RTC_DateTypeDef structure that will 
1050:../../lib/STM32F4xx_StdPeriph_Driver/src/stm32f4xx_rtc.c ****   *                        contain the returned current date configuration.     
1051:../../lib/STM32F4xx_StdPeriph_Driver/src/stm32f4xx_rtc.c ****   * @retval None
1052:../../lib/STM32F4xx_StdPeriph_Driver/src/stm32f4xx_rtc.c ****   */
1053:../../lib/STM32F4xx_StdPeriph_Driver/src/stm32f4xx_rtc.c **** void RTC_GetDate(uint32_t RTC_Format, RTC_DateTypeDef* RTC_DateStruct)
1054:../../lib/STM32F4xx_StdPeriph_Driver/src/stm32f4xx_rtc.c **** {
1055:../../lib/STM32F4xx_StdPeriph_Driver/src/stm32f4xx_rtc.c ****   uint32_t tmpreg = 0;
1056:../../lib/STM32F4xx_StdPeriph_Driver/src/stm32f4xx_rtc.c **** 
1057:../../lib/STM32F4xx_StdPeriph_Driver/src/stm32f4xx_rtc.c ****   /* Check the parameters */
1058:../../lib/STM32F4xx_StdPeriph_Driver/src/stm32f4xx_rtc.c ****   assert_param(IS_RTC_FORMAT(RTC_Format));
1059:../../lib/STM32F4xx_StdPeriph_Driver/src/stm32f4xx_rtc.c ****   
1060:../../lib/STM32F4xx_StdPeriph_Driver/src/stm32f4xx_rtc.c ****   /* Get the RTC_TR register */
1061:../../lib/STM32F4xx_StdPeriph_Driver/src/stm32f4xx_rtc.c ****   tmpreg = (uint32_t)(RTC->DR & RTC_DR_RESERVED_MASK); 
1062:../../lib/STM32F4xx_StdPeriph_Driver/src/stm32f4xx_rtc.c **** 
1063:../../lib/STM32F4xx_StdPeriph_Driver/src/stm32f4xx_rtc.c ****   /* Fill the structure fields with the read parameters */
1064:../../lib/STM32F4xx_StdPeriph_Driver/src/stm32f4xx_rtc.c ****   RTC_DateStruct->RTC_Year = (uint8_t)((tmpreg & (RTC_DR_YT | RTC_DR_YU)) >> 16);
1065:../../lib/STM32F4xx_StdPeriph_Driver/src/stm32f4xx_rtc.c ****   RTC_DateStruct->RTC_Month = (uint8_t)((tmpreg & (RTC_DR_MT | RTC_DR_MU)) >> 8);
1066:../../lib/STM32F4xx_StdPeriph_Driver/src/stm32f4xx_rtc.c ****   RTC_DateStruct->RTC_Date = (uint8_t)(tmpreg & (RTC_DR_DT | RTC_DR_DU));
1067:../../lib/STM32F4xx_StdPeriph_Driver/src/stm32f4xx_rtc.c ****   RTC_DateStruct->RTC_WeekDay = (uint8_t)((tmpreg & (RTC_DR_WDU)) >> 13);
1068:../../lib/STM32F4xx_StdPeriph_Driver/src/stm32f4xx_rtc.c **** 
1069:../../lib/STM32F4xx_StdPeriph_Driver/src/stm32f4xx_rtc.c ****   /* Check the input parameters format */
1070:../../lib/STM32F4xx_StdPeriph_Driver/src/stm32f4xx_rtc.c ****   if (RTC_Format == RTC_Format_BIN)
1071:../../lib/STM32F4xx_StdPeriph_Driver/src/stm32f4xx_rtc.c ****   {
1072:../../lib/STM32F4xx_StdPeriph_Driver/src/stm32f4xx_rtc.c ****     /* Convert the structure parameters to Binary format */
1073:../../lib/STM32F4xx_StdPeriph_Driver/src/stm32f4xx_rtc.c ****     RTC_DateStruct->RTC_Year = (uint8_t)RTC_Bcd2ToByte(RTC_DateStruct->RTC_Year);
1074:../../lib/STM32F4xx_StdPeriph_Driver/src/stm32f4xx_rtc.c ****     RTC_DateStruct->RTC_Month = (uint8_t)RTC_Bcd2ToByte(RTC_DateStruct->RTC_Month);
1075:../../lib/STM32F4xx_StdPeriph_Driver/src/stm32f4xx_rtc.c ****     RTC_DateStruct->RTC_Date = (uint8_t)RTC_Bcd2ToByte(RTC_DateStruct->RTC_Date);
1076:../../lib/STM32F4xx_StdPeriph_Driver/src/stm32f4xx_rtc.c ****   }
1077:../../lib/STM32F4xx_StdPeriph_Driver/src/stm32f4xx_rtc.c **** }
1078:../../lib/STM32F4xx_StdPeriph_Driver/src/stm32f4xx_rtc.c **** 
1079:../../lib/STM32F4xx_StdPeriph_Driver/src/stm32f4xx_rtc.c **** /**
1080:../../lib/STM32F4xx_StdPeriph_Driver/src/stm32f4xx_rtc.c ****   * @}
1081:../../lib/STM32F4xx_StdPeriph_Driver/src/stm32f4xx_rtc.c ****   */
1082:../../lib/STM32F4xx_StdPeriph_Driver/src/stm32f4xx_rtc.c **** 
1083:../../lib/STM32F4xx_StdPeriph_Driver/src/stm32f4xx_rtc.c **** /** @defgroup RTC_Group3 Alarms configuration functions
1084:../../lib/STM32F4xx_StdPeriph_Driver/src/stm32f4xx_rtc.c ****  *  @brief   Alarms (Alarm A and Alarm B) configuration functions 
1085:../../lib/STM32F4xx_StdPeriph_Driver/src/stm32f4xx_rtc.c ****  *
1086:../../lib/STM32F4xx_StdPeriph_Driver/src/stm32f4xx_rtc.c **** @verbatim   
1087:../../lib/STM32F4xx_StdPeriph_Driver/src/stm32f4xx_rtc.c ****  ===============================================================================
1088:../../lib/STM32F4xx_StdPeriph_Driver/src/stm32f4xx_rtc.c ****               Alarms (Alarm A and Alarm B) configuration functions
1089:../../lib/STM32F4xx_StdPeriph_Driver/src/stm32f4xx_rtc.c ****  ===============================================================================  
1090:../../lib/STM32F4xx_StdPeriph_Driver/src/stm32f4xx_rtc.c **** 
1091:../../lib/STM32F4xx_StdPeriph_Driver/src/stm32f4xx_rtc.c ****   This section provide functions allowing to program and read the RTC Alarms.
1092:../../lib/STM32F4xx_StdPeriph_Driver/src/stm32f4xx_rtc.c **** 
1093:../../lib/STM32F4xx_StdPeriph_Driver/src/stm32f4xx_rtc.c **** @endverbatim
1094:../../lib/STM32F4xx_StdPeriph_Driver/src/stm32f4xx_rtc.c ****   * @{
1095:../../lib/STM32F4xx_StdPeriph_Driver/src/stm32f4xx_rtc.c ****   */
1096:../../lib/STM32F4xx_StdPeriph_Driver/src/stm32f4xx_rtc.c **** 
1097:../../lib/STM32F4xx_StdPeriph_Driver/src/stm32f4xx_rtc.c **** /**
1098:../../lib/STM32F4xx_StdPeriph_Driver/src/stm32f4xx_rtc.c ****   * @brief  Set the specified RTC Alarm.
1099:../../lib/STM32F4xx_StdPeriph_Driver/src/stm32f4xx_rtc.c ****   * @note   The Alarm register can only be written when the corresponding Alarm
1100:../../lib/STM32F4xx_StdPeriph_Driver/src/stm32f4xx_rtc.c ****   *         is disabled (Use the RTC_AlarmCmd(DISABLE)).    
1101:../../lib/STM32F4xx_StdPeriph_Driver/src/stm32f4xx_rtc.c ****   * @param  RTC_Format: specifies the format of the returned parameters.
1102:../../lib/STM32F4xx_StdPeriph_Driver/src/stm32f4xx_rtc.c ****   *          This parameter can be one of the following values:
1103:../../lib/STM32F4xx_StdPeriph_Driver/src/stm32f4xx_rtc.c ****   *            @arg RTC_Format_BIN: Binary data format 
1104:../../lib/STM32F4xx_StdPeriph_Driver/src/stm32f4xx_rtc.c ****   *            @arg RTC_Format_BCD: BCD data format
1105:../../lib/STM32F4xx_StdPeriph_Driver/src/stm32f4xx_rtc.c ****   * @param  RTC_Alarm: specifies the alarm to be configured.
1106:../../lib/STM32F4xx_StdPeriph_Driver/src/stm32f4xx_rtc.c ****   *          This parameter can be one of the following values:
1107:../../lib/STM32F4xx_StdPeriph_Driver/src/stm32f4xx_rtc.c ****   *            @arg RTC_Alarm_A: to select Alarm A
1108:../../lib/STM32F4xx_StdPeriph_Driver/src/stm32f4xx_rtc.c ****   *            @arg RTC_Alarm_B: to select Alarm B  
1109:../../lib/STM32F4xx_StdPeriph_Driver/src/stm32f4xx_rtc.c ****   * @param  RTC_AlarmStruct: pointer to a RTC_AlarmTypeDef structure that 
1110:../../lib/STM32F4xx_StdPeriph_Driver/src/stm32f4xx_rtc.c ****   *                          contains the alarm configuration parameters.     
1111:../../lib/STM32F4xx_StdPeriph_Driver/src/stm32f4xx_rtc.c ****   * @retval None
1112:../../lib/STM32F4xx_StdPeriph_Driver/src/stm32f4xx_rtc.c ****   */
1113:../../lib/STM32F4xx_StdPeriph_Driver/src/stm32f4xx_rtc.c **** void RTC_SetAlarm(uint32_t RTC_Format, uint32_t RTC_Alarm, RTC_AlarmTypeDef* RTC_AlarmStruct)
1114:../../lib/STM32F4xx_StdPeriph_Driver/src/stm32f4xx_rtc.c **** {
1115:../../lib/STM32F4xx_StdPeriph_Driver/src/stm32f4xx_rtc.c ****   uint32_t tmpreg = 0;
1116:../../lib/STM32F4xx_StdPeriph_Driver/src/stm32f4xx_rtc.c ****   
1117:../../lib/STM32F4xx_StdPeriph_Driver/src/stm32f4xx_rtc.c ****   /* Check the parameters */
1118:../../lib/STM32F4xx_StdPeriph_Driver/src/stm32f4xx_rtc.c ****   assert_param(IS_RTC_FORMAT(RTC_Format));
1119:../../lib/STM32F4xx_StdPeriph_Driver/src/stm32f4xx_rtc.c ****   assert_param(IS_RTC_ALARM(RTC_Alarm));
1120:../../lib/STM32F4xx_StdPeriph_Driver/src/stm32f4xx_rtc.c ****   assert_param(IS_ALARM_MASK(RTC_AlarmStruct->RTC_AlarmMask));
1121:../../lib/STM32F4xx_StdPeriph_Driver/src/stm32f4xx_rtc.c ****   assert_param(IS_RTC_ALARM_DATE_WEEKDAY_SEL(RTC_AlarmStruct->RTC_AlarmDateWeekDaySel));
1122:../../lib/STM32F4xx_StdPeriph_Driver/src/stm32f4xx_rtc.c **** 
1123:../../lib/STM32F4xx_StdPeriph_Driver/src/stm32f4xx_rtc.c ****   if (RTC_Format == RTC_Format_BIN)
1124:../../lib/STM32F4xx_StdPeriph_Driver/src/stm32f4xx_rtc.c ****   {
1125:../../lib/STM32F4xx_StdPeriph_Driver/src/stm32f4xx_rtc.c ****     if ((RTC->CR & RTC_CR_FMT) != (uint32_t)RESET)
1126:../../lib/STM32F4xx_StdPeriph_Driver/src/stm32f4xx_rtc.c ****     {
1127:../../lib/STM32F4xx_StdPeriph_Driver/src/stm32f4xx_rtc.c ****       assert_param(IS_RTC_HOUR12(RTC_AlarmStruct->RTC_AlarmTime.RTC_Hours));
1128:../../lib/STM32F4xx_StdPeriph_Driver/src/stm32f4xx_rtc.c ****       assert_param(IS_RTC_H12(RTC_AlarmStruct->RTC_AlarmTime.RTC_H12));
1129:../../lib/STM32F4xx_StdPeriph_Driver/src/stm32f4xx_rtc.c ****     } 
1130:../../lib/STM32F4xx_StdPeriph_Driver/src/stm32f4xx_rtc.c ****     else
1131:../../lib/STM32F4xx_StdPeriph_Driver/src/stm32f4xx_rtc.c ****     {
1132:../../lib/STM32F4xx_StdPeriph_Driver/src/stm32f4xx_rtc.c ****       RTC_AlarmStruct->RTC_AlarmTime.RTC_H12 = 0x00;
1133:../../lib/STM32F4xx_StdPeriph_Driver/src/stm32f4xx_rtc.c ****       assert_param(IS_RTC_HOUR24(RTC_AlarmStruct->RTC_AlarmTime.RTC_Hours));
1134:../../lib/STM32F4xx_StdPeriph_Driver/src/stm32f4xx_rtc.c ****     }
1135:../../lib/STM32F4xx_StdPeriph_Driver/src/stm32f4xx_rtc.c ****     assert_param(IS_RTC_MINUTES(RTC_AlarmStruct->RTC_AlarmTime.RTC_Minutes));
1136:../../lib/STM32F4xx_StdPeriph_Driver/src/stm32f4xx_rtc.c ****     assert_param(IS_RTC_SECONDS(RTC_AlarmStruct->RTC_AlarmTime.RTC_Seconds));
1137:../../lib/STM32F4xx_StdPeriph_Driver/src/stm32f4xx_rtc.c ****     
1138:../../lib/STM32F4xx_StdPeriph_Driver/src/stm32f4xx_rtc.c ****     if(RTC_AlarmStruct->RTC_AlarmDateWeekDaySel == RTC_AlarmDateWeekDaySel_Date)
1139:../../lib/STM32F4xx_StdPeriph_Driver/src/stm32f4xx_rtc.c ****     {
1140:../../lib/STM32F4xx_StdPeriph_Driver/src/stm32f4xx_rtc.c ****       assert_param(IS_RTC_ALARM_DATE_WEEKDAY_DATE(RTC_AlarmStruct->RTC_AlarmDateWeekDay));
1141:../../lib/STM32F4xx_StdPeriph_Driver/src/stm32f4xx_rtc.c ****     }
1142:../../lib/STM32F4xx_StdPeriph_Driver/src/stm32f4xx_rtc.c ****     else
1143:../../lib/STM32F4xx_StdPeriph_Driver/src/stm32f4xx_rtc.c ****     {
1144:../../lib/STM32F4xx_StdPeriph_Driver/src/stm32f4xx_rtc.c ****       assert_param(IS_RTC_ALARM_DATE_WEEKDAY_WEEKDAY(RTC_AlarmStruct->RTC_AlarmDateWeekDay));
1145:../../lib/STM32F4xx_StdPeriph_Driver/src/stm32f4xx_rtc.c ****     }
1146:../../lib/STM32F4xx_StdPeriph_Driver/src/stm32f4xx_rtc.c ****   }
1147:../../lib/STM32F4xx_StdPeriph_Driver/src/stm32f4xx_rtc.c ****   else
1148:../../lib/STM32F4xx_StdPeriph_Driver/src/stm32f4xx_rtc.c ****   {
1149:../../lib/STM32F4xx_StdPeriph_Driver/src/stm32f4xx_rtc.c ****     if ((RTC->CR & RTC_CR_FMT) != (uint32_t)RESET)
1150:../../lib/STM32F4xx_StdPeriph_Driver/src/stm32f4xx_rtc.c ****     {
1151:../../lib/STM32F4xx_StdPeriph_Driver/src/stm32f4xx_rtc.c ****       tmpreg = RTC_Bcd2ToByte(RTC_AlarmStruct->RTC_AlarmTime.RTC_Hours);
1152:../../lib/STM32F4xx_StdPeriph_Driver/src/stm32f4xx_rtc.c ****       assert_param(IS_RTC_HOUR12(tmpreg));
1153:../../lib/STM32F4xx_StdPeriph_Driver/src/stm32f4xx_rtc.c ****       assert_param(IS_RTC_H12(RTC_AlarmStruct->RTC_AlarmTime.RTC_H12));
1154:../../lib/STM32F4xx_StdPeriph_Driver/src/stm32f4xx_rtc.c ****     } 
1155:../../lib/STM32F4xx_StdPeriph_Driver/src/stm32f4xx_rtc.c ****     else
1156:../../lib/STM32F4xx_StdPeriph_Driver/src/stm32f4xx_rtc.c ****     {
1157:../../lib/STM32F4xx_StdPeriph_Driver/src/stm32f4xx_rtc.c ****       RTC_AlarmStruct->RTC_AlarmTime.RTC_H12 = 0x00;
1158:../../lib/STM32F4xx_StdPeriph_Driver/src/stm32f4xx_rtc.c ****       assert_param(IS_RTC_HOUR24(RTC_Bcd2ToByte(RTC_AlarmStruct->RTC_AlarmTime.RTC_Hours)));
1159:../../lib/STM32F4xx_StdPeriph_Driver/src/stm32f4xx_rtc.c ****     }
1160:../../lib/STM32F4xx_StdPeriph_Driver/src/stm32f4xx_rtc.c ****     
1161:../../lib/STM32F4xx_StdPeriph_Driver/src/stm32f4xx_rtc.c ****     assert_param(IS_RTC_MINUTES(RTC_Bcd2ToByte(RTC_AlarmStruct->RTC_AlarmTime.RTC_Minutes)));
1162:../../lib/STM32F4xx_StdPeriph_Driver/src/stm32f4xx_rtc.c ****     assert_param(IS_RTC_SECONDS(RTC_Bcd2ToByte(RTC_AlarmStruct->RTC_AlarmTime.RTC_Seconds)));
1163:../../lib/STM32F4xx_StdPeriph_Driver/src/stm32f4xx_rtc.c ****     
1164:../../lib/STM32F4xx_StdPeriph_Driver/src/stm32f4xx_rtc.c ****     if(RTC_AlarmStruct->RTC_AlarmDateWeekDaySel == RTC_AlarmDateWeekDaySel_Date)
1165:../../lib/STM32F4xx_StdPeriph_Driver/src/stm32f4xx_rtc.c ****     {
1166:../../lib/STM32F4xx_StdPeriph_Driver/src/stm32f4xx_rtc.c ****       tmpreg = RTC_Bcd2ToByte(RTC_AlarmStruct->RTC_AlarmDateWeekDay);
1167:../../lib/STM32F4xx_StdPeriph_Driver/src/stm32f4xx_rtc.c ****       assert_param(IS_RTC_ALARM_DATE_WEEKDAY_DATE(tmpreg));    
1168:../../lib/STM32F4xx_StdPeriph_Driver/src/stm32f4xx_rtc.c ****     }
1169:../../lib/STM32F4xx_StdPeriph_Driver/src/stm32f4xx_rtc.c ****     else
1170:../../lib/STM32F4xx_StdPeriph_Driver/src/stm32f4xx_rtc.c ****     {
1171:../../lib/STM32F4xx_StdPeriph_Driver/src/stm32f4xx_rtc.c ****       tmpreg = RTC_Bcd2ToByte(RTC_AlarmStruct->RTC_AlarmDateWeekDay);
1172:../../lib/STM32F4xx_StdPeriph_Driver/src/stm32f4xx_rtc.c ****       assert_param(IS_RTC_ALARM_DATE_WEEKDAY_WEEKDAY(tmpreg));      
1173:../../lib/STM32F4xx_StdPeriph_Driver/src/stm32f4xx_rtc.c ****     }    
1174:../../lib/STM32F4xx_StdPeriph_Driver/src/stm32f4xx_rtc.c ****   }
1175:../../lib/STM32F4xx_StdPeriph_Driver/src/stm32f4xx_rtc.c **** 
1176:../../lib/STM32F4xx_StdPeriph_Driver/src/stm32f4xx_rtc.c ****   /* Check the input parameters format */
1177:../../lib/STM32F4xx_StdPeriph_Driver/src/stm32f4xx_rtc.c ****   if (RTC_Format != RTC_Format_BIN)
1178:../../lib/STM32F4xx_StdPeriph_Driver/src/stm32f4xx_rtc.c ****   {
1179:../../lib/STM32F4xx_StdPeriph_Driver/src/stm32f4xx_rtc.c ****     tmpreg = (((uint32_t)(RTC_AlarmStruct->RTC_AlarmTime.RTC_Hours) << 16) | \
1180:../../lib/STM32F4xx_StdPeriph_Driver/src/stm32f4xx_rtc.c ****               ((uint32_t)(RTC_AlarmStruct->RTC_AlarmTime.RTC_Minutes) << 8) | \
1181:../../lib/STM32F4xx_StdPeriph_Driver/src/stm32f4xx_rtc.c ****               ((uint32_t)RTC_AlarmStruct->RTC_AlarmTime.RTC_Seconds) | \
1182:../../lib/STM32F4xx_StdPeriph_Driver/src/stm32f4xx_rtc.c ****               ((uint32_t)(RTC_AlarmStruct->RTC_AlarmTime.RTC_H12) << 16) | \
1183:../../lib/STM32F4xx_StdPeriph_Driver/src/stm32f4xx_rtc.c ****               ((uint32_t)(RTC_AlarmStruct->RTC_AlarmDateWeekDay) << 24) | \
1184:../../lib/STM32F4xx_StdPeriph_Driver/src/stm32f4xx_rtc.c ****               ((uint32_t)RTC_AlarmStruct->RTC_AlarmDateWeekDaySel) | \
1185:../../lib/STM32F4xx_StdPeriph_Driver/src/stm32f4xx_rtc.c ****               ((uint32_t)RTC_AlarmStruct->RTC_AlarmMask)); 
1186:../../lib/STM32F4xx_StdPeriph_Driver/src/stm32f4xx_rtc.c ****   }  
1187:../../lib/STM32F4xx_StdPeriph_Driver/src/stm32f4xx_rtc.c ****   else
1188:../../lib/STM32F4xx_StdPeriph_Driver/src/stm32f4xx_rtc.c ****   {
1189:../../lib/STM32F4xx_StdPeriph_Driver/src/stm32f4xx_rtc.c ****     tmpreg = (((uint32_t)RTC_ByteToBcd2(RTC_AlarmStruct->RTC_AlarmTime.RTC_Hours) << 16) | \
1190:../../lib/STM32F4xx_StdPeriph_Driver/src/stm32f4xx_rtc.c ****               ((uint32_t)RTC_ByteToBcd2(RTC_AlarmStruct->RTC_AlarmTime.RTC_Minutes) << 8) | \
1191:../../lib/STM32F4xx_StdPeriph_Driver/src/stm32f4xx_rtc.c ****               ((uint32_t)RTC_ByteToBcd2(RTC_AlarmStruct->RTC_AlarmTime.RTC_Seconds)) | \
1192:../../lib/STM32F4xx_StdPeriph_Driver/src/stm32f4xx_rtc.c ****               ((uint32_t)(RTC_AlarmStruct->RTC_AlarmTime.RTC_H12) << 16) | \
1193:../../lib/STM32F4xx_StdPeriph_Driver/src/stm32f4xx_rtc.c ****               ((uint32_t)RTC_ByteToBcd2(RTC_AlarmStruct->RTC_AlarmDateWeekDay) << 24) | \
1194:../../lib/STM32F4xx_StdPeriph_Driver/src/stm32f4xx_rtc.c ****               ((uint32_t)RTC_AlarmStruct->RTC_AlarmDateWeekDaySel) | \
1195:../../lib/STM32F4xx_StdPeriph_Driver/src/stm32f4xx_rtc.c ****               ((uint32_t)RTC_AlarmStruct->RTC_AlarmMask)); 
1196:../../lib/STM32F4xx_StdPeriph_Driver/src/stm32f4xx_rtc.c ****   } 
1197:../../lib/STM32F4xx_StdPeriph_Driver/src/stm32f4xx_rtc.c **** 
1198:../../lib/STM32F4xx_StdPeriph_Driver/src/stm32f4xx_rtc.c ****   /* Disable the write protection for RTC registers */
1199:../../lib/STM32F4xx_StdPeriph_Driver/src/stm32f4xx_rtc.c ****   RTC->WPR = 0xCA;
1200:../../lib/STM32F4xx_StdPeriph_Driver/src/stm32f4xx_rtc.c ****   RTC->WPR = 0x53;
1201:../../lib/STM32F4xx_StdPeriph_Driver/src/stm32f4xx_rtc.c **** 
1202:../../lib/STM32F4xx_StdPeriph_Driver/src/stm32f4xx_rtc.c ****   /* Configure the Alarm register */
1203:../../lib/STM32F4xx_StdPeriph_Driver/src/stm32f4xx_rtc.c ****   if (RTC_Alarm == RTC_Alarm_A)
1204:../../lib/STM32F4xx_StdPeriph_Driver/src/stm32f4xx_rtc.c ****   {
1205:../../lib/STM32F4xx_StdPeriph_Driver/src/stm32f4xx_rtc.c ****     RTC->ALRMAR = (uint32_t)tmpreg;
1206:../../lib/STM32F4xx_StdPeriph_Driver/src/stm32f4xx_rtc.c ****   }
1207:../../lib/STM32F4xx_StdPeriph_Driver/src/stm32f4xx_rtc.c ****   else
1208:../../lib/STM32F4xx_StdPeriph_Driver/src/stm32f4xx_rtc.c ****   {
1209:../../lib/STM32F4xx_StdPeriph_Driver/src/stm32f4xx_rtc.c ****     RTC->ALRMBR = (uint32_t)tmpreg;
1210:../../lib/STM32F4xx_StdPeriph_Driver/src/stm32f4xx_rtc.c ****   }
1211:../../lib/STM32F4xx_StdPeriph_Driver/src/stm32f4xx_rtc.c **** 
1212:../../lib/STM32F4xx_StdPeriph_Driver/src/stm32f4xx_rtc.c ****   /* Enable the write protection for RTC registers */
1213:../../lib/STM32F4xx_StdPeriph_Driver/src/stm32f4xx_rtc.c ****   RTC->WPR = 0xFF;   
1214:../../lib/STM32F4xx_StdPeriph_Driver/src/stm32f4xx_rtc.c **** }
1215:../../lib/STM32F4xx_StdPeriph_Driver/src/stm32f4xx_rtc.c **** 
1216:../../lib/STM32F4xx_StdPeriph_Driver/src/stm32f4xx_rtc.c **** /**
1217:../../lib/STM32F4xx_StdPeriph_Driver/src/stm32f4xx_rtc.c ****   * @brief  Fills each RTC_AlarmStruct member with its default value
1218:../../lib/STM32F4xx_StdPeriph_Driver/src/stm32f4xx_rtc.c ****   *         (Time = 00h:00mn:00sec / Date = 1st day of the month/Mask =
1219:../../lib/STM32F4xx_StdPeriph_Driver/src/stm32f4xx_rtc.c ****   *         all fields are masked).
1220:../../lib/STM32F4xx_StdPeriph_Driver/src/stm32f4xx_rtc.c ****   * @param  RTC_AlarmStruct: pointer to a @ref RTC_AlarmTypeDef structure which
1221:../../lib/STM32F4xx_StdPeriph_Driver/src/stm32f4xx_rtc.c ****   *         will be initialized.
1222:../../lib/STM32F4xx_StdPeriph_Driver/src/stm32f4xx_rtc.c ****   * @retval None
1223:../../lib/STM32F4xx_StdPeriph_Driver/src/stm32f4xx_rtc.c ****   */
1224:../../lib/STM32F4xx_StdPeriph_Driver/src/stm32f4xx_rtc.c **** void RTC_AlarmStructInit(RTC_AlarmTypeDef* RTC_AlarmStruct)
1225:../../lib/STM32F4xx_StdPeriph_Driver/src/stm32f4xx_rtc.c **** {
1226:../../lib/STM32F4xx_StdPeriph_Driver/src/stm32f4xx_rtc.c ****   /* Alarm Time Settings : Time = 00h:00mn:00sec */
1227:../../lib/STM32F4xx_StdPeriph_Driver/src/stm32f4xx_rtc.c ****   RTC_AlarmStruct->RTC_AlarmTime.RTC_H12 = RTC_H12_AM;
1228:../../lib/STM32F4xx_StdPeriph_Driver/src/stm32f4xx_rtc.c ****   RTC_AlarmStruct->RTC_AlarmTime.RTC_Hours = 0;
1229:../../lib/STM32F4xx_StdPeriph_Driver/src/stm32f4xx_rtc.c ****   RTC_AlarmStruct->RTC_AlarmTime.RTC_Minutes = 0;
1230:../../lib/STM32F4xx_StdPeriph_Driver/src/stm32f4xx_rtc.c ****   RTC_AlarmStruct->RTC_AlarmTime.RTC_Seconds = 0;
1231:../../lib/STM32F4xx_StdPeriph_Driver/src/stm32f4xx_rtc.c **** 
1232:../../lib/STM32F4xx_StdPeriph_Driver/src/stm32f4xx_rtc.c ****   /* Alarm Date Settings : Date = 1st day of the month */
1233:../../lib/STM32F4xx_StdPeriph_Driver/src/stm32f4xx_rtc.c ****   RTC_AlarmStruct->RTC_AlarmDateWeekDaySel = RTC_AlarmDateWeekDaySel_Date;
1234:../../lib/STM32F4xx_StdPeriph_Driver/src/stm32f4xx_rtc.c ****   RTC_AlarmStruct->RTC_AlarmDateWeekDay = 1;
1235:../../lib/STM32F4xx_StdPeriph_Driver/src/stm32f4xx_rtc.c **** 
1236:../../lib/STM32F4xx_StdPeriph_Driver/src/stm32f4xx_rtc.c ****   /* Alarm Masks Settings : Mask =  all fields are not masked */
1237:../../lib/STM32F4xx_StdPeriph_Driver/src/stm32f4xx_rtc.c ****   RTC_AlarmStruct->RTC_AlarmMask = RTC_AlarmMask_None;
1238:../../lib/STM32F4xx_StdPeriph_Driver/src/stm32f4xx_rtc.c **** }
1239:../../lib/STM32F4xx_StdPeriph_Driver/src/stm32f4xx_rtc.c **** 
1240:../../lib/STM32F4xx_StdPeriph_Driver/src/stm32f4xx_rtc.c **** /**
1241:../../lib/STM32F4xx_StdPeriph_Driver/src/stm32f4xx_rtc.c ****   * @brief  Get the RTC Alarm value and masks.
1242:../../lib/STM32F4xx_StdPeriph_Driver/src/stm32f4xx_rtc.c ****   * @param  RTC_Format: specifies the format of the output parameters.
1243:../../lib/STM32F4xx_StdPeriph_Driver/src/stm32f4xx_rtc.c ****   *          This parameter can be one of the following values:
1244:../../lib/STM32F4xx_StdPeriph_Driver/src/stm32f4xx_rtc.c ****   *            @arg RTC_Format_BIN: Binary data format 
1245:../../lib/STM32F4xx_StdPeriph_Driver/src/stm32f4xx_rtc.c ****   *            @arg RTC_Format_BCD: BCD data format
1246:../../lib/STM32F4xx_StdPeriph_Driver/src/stm32f4xx_rtc.c ****   * @param  RTC_Alarm: specifies the alarm to be read.
1247:../../lib/STM32F4xx_StdPeriph_Driver/src/stm32f4xx_rtc.c ****   *          This parameter can be one of the following values:
1248:../../lib/STM32F4xx_StdPeriph_Driver/src/stm32f4xx_rtc.c ****   *            @arg RTC_Alarm_A: to select Alarm A
1249:../../lib/STM32F4xx_StdPeriph_Driver/src/stm32f4xx_rtc.c ****   *            @arg RTC_Alarm_B: to select Alarm B  
1250:../../lib/STM32F4xx_StdPeriph_Driver/src/stm32f4xx_rtc.c ****   * @param  RTC_AlarmStruct: pointer to a RTC_AlarmTypeDef structure that will 
1251:../../lib/STM32F4xx_StdPeriph_Driver/src/stm32f4xx_rtc.c ****   *                          contains the output alarm configuration values.     
1252:../../lib/STM32F4xx_StdPeriph_Driver/src/stm32f4xx_rtc.c ****   * @retval None
1253:../../lib/STM32F4xx_StdPeriph_Driver/src/stm32f4xx_rtc.c ****   */
1254:../../lib/STM32F4xx_StdPeriph_Driver/src/stm32f4xx_rtc.c **** void RTC_GetAlarm(uint32_t RTC_Format, uint32_t RTC_Alarm, RTC_AlarmTypeDef* RTC_AlarmStruct)
1255:../../lib/STM32F4xx_StdPeriph_Driver/src/stm32f4xx_rtc.c **** {
1256:../../lib/STM32F4xx_StdPeriph_Driver/src/stm32f4xx_rtc.c ****   uint32_t tmpreg = 0;
1257:../../lib/STM32F4xx_StdPeriph_Driver/src/stm32f4xx_rtc.c **** 
1258:../../lib/STM32F4xx_StdPeriph_Driver/src/stm32f4xx_rtc.c ****   /* Check the parameters */
1259:../../lib/STM32F4xx_StdPeriph_Driver/src/stm32f4xx_rtc.c ****   assert_param(IS_RTC_FORMAT(RTC_Format));
1260:../../lib/STM32F4xx_StdPeriph_Driver/src/stm32f4xx_rtc.c ****   assert_param(IS_RTC_ALARM(RTC_Alarm)); 
1261:../../lib/STM32F4xx_StdPeriph_Driver/src/stm32f4xx_rtc.c **** 
1262:../../lib/STM32F4xx_StdPeriph_Driver/src/stm32f4xx_rtc.c ****   /* Get the RTC_ALRMxR register */
1263:../../lib/STM32F4xx_StdPeriph_Driver/src/stm32f4xx_rtc.c ****   if (RTC_Alarm == RTC_Alarm_A)
1264:../../lib/STM32F4xx_StdPeriph_Driver/src/stm32f4xx_rtc.c ****   {
1265:../../lib/STM32F4xx_StdPeriph_Driver/src/stm32f4xx_rtc.c ****     tmpreg = (uint32_t)(RTC->ALRMAR);
1266:../../lib/STM32F4xx_StdPeriph_Driver/src/stm32f4xx_rtc.c ****   }
1267:../../lib/STM32F4xx_StdPeriph_Driver/src/stm32f4xx_rtc.c ****   else
1268:../../lib/STM32F4xx_StdPeriph_Driver/src/stm32f4xx_rtc.c ****   {
1269:../../lib/STM32F4xx_StdPeriph_Driver/src/stm32f4xx_rtc.c ****     tmpreg = (uint32_t)(RTC->ALRMBR);
1270:../../lib/STM32F4xx_StdPeriph_Driver/src/stm32f4xx_rtc.c ****   }
1271:../../lib/STM32F4xx_StdPeriph_Driver/src/stm32f4xx_rtc.c **** 
1272:../../lib/STM32F4xx_StdPeriph_Driver/src/stm32f4xx_rtc.c ****   /* Fill the structure with the read parameters */
1273:../../lib/STM32F4xx_StdPeriph_Driver/src/stm32f4xx_rtc.c ****   RTC_AlarmStruct->RTC_AlarmTime.RTC_Hours = (uint32_t)((tmpreg & (RTC_ALRMAR_HT | \
1274:../../lib/STM32F4xx_StdPeriph_Driver/src/stm32f4xx_rtc.c ****                                                      RTC_ALRMAR_HU)) >> 16);
1275:../../lib/STM32F4xx_StdPeriph_Driver/src/stm32f4xx_rtc.c ****   RTC_AlarmStruct->RTC_AlarmTime.RTC_Minutes = (uint32_t)((tmpreg & (RTC_ALRMAR_MNT | \
1276:../../lib/STM32F4xx_StdPeriph_Driver/src/stm32f4xx_rtc.c ****                                                      RTC_ALRMAR_MNU)) >> 8);
1277:../../lib/STM32F4xx_StdPeriph_Driver/src/stm32f4xx_rtc.c ****   RTC_AlarmStruct->RTC_AlarmTime.RTC_Seconds = (uint32_t)(tmpreg & (RTC_ALRMAR_ST | \
1278:../../lib/STM32F4xx_StdPeriph_Driver/src/stm32f4xx_rtc.c ****                                                      RTC_ALRMAR_SU));
1279:../../lib/STM32F4xx_StdPeriph_Driver/src/stm32f4xx_rtc.c ****   RTC_AlarmStruct->RTC_AlarmTime.RTC_H12 = (uint32_t)((tmpreg & RTC_ALRMAR_PM) >> 16);
1280:../../lib/STM32F4xx_StdPeriph_Driver/src/stm32f4xx_rtc.c ****   RTC_AlarmStruct->RTC_AlarmDateWeekDay = (uint32_t)((tmpreg & (RTC_ALRMAR_DT | RTC_ALRMAR_DU)) >> 
1281:../../lib/STM32F4xx_StdPeriph_Driver/src/stm32f4xx_rtc.c ****   RTC_AlarmStruct->RTC_AlarmDateWeekDaySel = (uint32_t)(tmpreg & RTC_ALRMAR_WDSEL);
1282:../../lib/STM32F4xx_StdPeriph_Driver/src/stm32f4xx_rtc.c ****   RTC_AlarmStruct->RTC_AlarmMask = (uint32_t)(tmpreg & RTC_AlarmMask_All);
1283:../../lib/STM32F4xx_StdPeriph_Driver/src/stm32f4xx_rtc.c **** 
1284:../../lib/STM32F4xx_StdPeriph_Driver/src/stm32f4xx_rtc.c ****   if (RTC_Format == RTC_Format_BIN)
1285:../../lib/STM32F4xx_StdPeriph_Driver/src/stm32f4xx_rtc.c ****   {
1286:../../lib/STM32F4xx_StdPeriph_Driver/src/stm32f4xx_rtc.c ****     RTC_AlarmStruct->RTC_AlarmTime.RTC_Hours = RTC_Bcd2ToByte(RTC_AlarmStruct-> \
1287:../../lib/STM32F4xx_StdPeriph_Driver/src/stm32f4xx_rtc.c ****                                                         RTC_AlarmTime.RTC_Hours);
1288:../../lib/STM32F4xx_StdPeriph_Driver/src/stm32f4xx_rtc.c ****     RTC_AlarmStruct->RTC_AlarmTime.RTC_Minutes = RTC_Bcd2ToByte(RTC_AlarmStruct-> \
1289:../../lib/STM32F4xx_StdPeriph_Driver/src/stm32f4xx_rtc.c ****                                                         RTC_AlarmTime.RTC_Minutes);
1290:../../lib/STM32F4xx_StdPeriph_Driver/src/stm32f4xx_rtc.c ****     RTC_AlarmStruct->RTC_AlarmTime.RTC_Seconds = RTC_Bcd2ToByte(RTC_AlarmStruct-> \
1291:../../lib/STM32F4xx_StdPeriph_Driver/src/stm32f4xx_rtc.c ****                                                         RTC_AlarmTime.RTC_Seconds);
1292:../../lib/STM32F4xx_StdPeriph_Driver/src/stm32f4xx_rtc.c ****     RTC_AlarmStruct->RTC_AlarmDateWeekDay = RTC_Bcd2ToByte(RTC_AlarmStruct->RTC_AlarmDateWeekDay);
1293:../../lib/STM32F4xx_StdPeriph_Driver/src/stm32f4xx_rtc.c ****   }  
1294:../../lib/STM32F4xx_StdPeriph_Driver/src/stm32f4xx_rtc.c **** }
1295:../../lib/STM32F4xx_StdPeriph_Driver/src/stm32f4xx_rtc.c **** 
1296:../../lib/STM32F4xx_StdPeriph_Driver/src/stm32f4xx_rtc.c **** /**
1297:../../lib/STM32F4xx_StdPeriph_Driver/src/stm32f4xx_rtc.c ****   * @brief  Enables or disables the specified RTC Alarm.
1298:../../lib/STM32F4xx_StdPeriph_Driver/src/stm32f4xx_rtc.c ****   * @param  RTC_Alarm: specifies the alarm to be configured.
1299:../../lib/STM32F4xx_StdPeriph_Driver/src/stm32f4xx_rtc.c ****   *          This parameter can be any combination of the following values:
1300:../../lib/STM32F4xx_StdPeriph_Driver/src/stm32f4xx_rtc.c ****   *            @arg RTC_Alarm_A: to select Alarm A
1301:../../lib/STM32F4xx_StdPeriph_Driver/src/stm32f4xx_rtc.c ****   *            @arg RTC_Alarm_B: to select Alarm B  
1302:../../lib/STM32F4xx_StdPeriph_Driver/src/stm32f4xx_rtc.c ****   * @param  NewState: new state of the specified alarm.
1303:../../lib/STM32F4xx_StdPeriph_Driver/src/stm32f4xx_rtc.c ****   *          This parameter can be: ENABLE or DISABLE.
1304:../../lib/STM32F4xx_StdPeriph_Driver/src/stm32f4xx_rtc.c ****   * @retval An ErrorStatus enumeration value:
1305:../../lib/STM32F4xx_StdPeriph_Driver/src/stm32f4xx_rtc.c ****   *          - SUCCESS: RTC Alarm is enabled/disabled
1306:../../lib/STM32F4xx_StdPeriph_Driver/src/stm32f4xx_rtc.c ****   *          - ERROR: RTC Alarm is not enabled/disabled  
1307:../../lib/STM32F4xx_StdPeriph_Driver/src/stm32f4xx_rtc.c ****   */
1308:../../lib/STM32F4xx_StdPeriph_Driver/src/stm32f4xx_rtc.c **** ErrorStatus RTC_AlarmCmd(uint32_t RTC_Alarm, FunctionalState NewState)
1309:../../lib/STM32F4xx_StdPeriph_Driver/src/stm32f4xx_rtc.c **** {
1310:../../lib/STM32F4xx_StdPeriph_Driver/src/stm32f4xx_rtc.c ****   __IO uint32_t alarmcounter = 0x00;
1311:../../lib/STM32F4xx_StdPeriph_Driver/src/stm32f4xx_rtc.c ****   uint32_t alarmstatus = 0x00;
1312:../../lib/STM32F4xx_StdPeriph_Driver/src/stm32f4xx_rtc.c ****   ErrorStatus status = ERROR;
1313:../../lib/STM32F4xx_StdPeriph_Driver/src/stm32f4xx_rtc.c ****     
1314:../../lib/STM32F4xx_StdPeriph_Driver/src/stm32f4xx_rtc.c ****   /* Check the parameters */
1315:../../lib/STM32F4xx_StdPeriph_Driver/src/stm32f4xx_rtc.c ****   assert_param(IS_RTC_CMD_ALARM(RTC_Alarm));
1316:../../lib/STM32F4xx_StdPeriph_Driver/src/stm32f4xx_rtc.c ****   assert_param(IS_FUNCTIONAL_STATE(NewState));
1317:../../lib/STM32F4xx_StdPeriph_Driver/src/stm32f4xx_rtc.c **** 
1318:../../lib/STM32F4xx_StdPeriph_Driver/src/stm32f4xx_rtc.c ****   /* Disable the write protection for RTC registers */
1319:../../lib/STM32F4xx_StdPeriph_Driver/src/stm32f4xx_rtc.c ****   RTC->WPR = 0xCA;
1320:../../lib/STM32F4xx_StdPeriph_Driver/src/stm32f4xx_rtc.c ****   RTC->WPR = 0x53;
1321:../../lib/STM32F4xx_StdPeriph_Driver/src/stm32f4xx_rtc.c **** 
1322:../../lib/STM32F4xx_StdPeriph_Driver/src/stm32f4xx_rtc.c ****   /* Configure the Alarm state */
1323:../../lib/STM32F4xx_StdPeriph_Driver/src/stm32f4xx_rtc.c ****   if (NewState != DISABLE)
1324:../../lib/STM32F4xx_StdPeriph_Driver/src/stm32f4xx_rtc.c ****   {
1325:../../lib/STM32F4xx_StdPeriph_Driver/src/stm32f4xx_rtc.c ****     RTC->CR |= (uint32_t)RTC_Alarm;
1326:../../lib/STM32F4xx_StdPeriph_Driver/src/stm32f4xx_rtc.c **** 
1327:../../lib/STM32F4xx_StdPeriph_Driver/src/stm32f4xx_rtc.c ****     status = SUCCESS;    
1328:../../lib/STM32F4xx_StdPeriph_Driver/src/stm32f4xx_rtc.c ****   }
1329:../../lib/STM32F4xx_StdPeriph_Driver/src/stm32f4xx_rtc.c ****   else
1330:../../lib/STM32F4xx_StdPeriph_Driver/src/stm32f4xx_rtc.c ****   { 
1331:../../lib/STM32F4xx_StdPeriph_Driver/src/stm32f4xx_rtc.c ****     /* Disable the Alarm in RTC_CR register */
1332:../../lib/STM32F4xx_StdPeriph_Driver/src/stm32f4xx_rtc.c ****     RTC->CR &= (uint32_t)~RTC_Alarm;
1333:../../lib/STM32F4xx_StdPeriph_Driver/src/stm32f4xx_rtc.c ****    
1334:../../lib/STM32F4xx_StdPeriph_Driver/src/stm32f4xx_rtc.c ****     /* Wait till RTC ALRxWF flag is set and if Time out is reached exit */
1335:../../lib/STM32F4xx_StdPeriph_Driver/src/stm32f4xx_rtc.c ****     do
1336:../../lib/STM32F4xx_StdPeriph_Driver/src/stm32f4xx_rtc.c ****     {
1337:../../lib/STM32F4xx_StdPeriph_Driver/src/stm32f4xx_rtc.c ****       alarmstatus = RTC->ISR & (RTC_Alarm >> 8);
1338:../../lib/STM32F4xx_StdPeriph_Driver/src/stm32f4xx_rtc.c ****       alarmcounter++;  
1339:../../lib/STM32F4xx_StdPeriph_Driver/src/stm32f4xx_rtc.c ****     } while((alarmcounter != INITMODE_TIMEOUT) && (alarmstatus == 0x00));
1340:../../lib/STM32F4xx_StdPeriph_Driver/src/stm32f4xx_rtc.c ****     
1341:../../lib/STM32F4xx_StdPeriph_Driver/src/stm32f4xx_rtc.c ****     if ((RTC->ISR & (RTC_Alarm >> 8)) == RESET)
1342:../../lib/STM32F4xx_StdPeriph_Driver/src/stm32f4xx_rtc.c ****     {
1343:../../lib/STM32F4xx_StdPeriph_Driver/src/stm32f4xx_rtc.c ****       status = ERROR;
1344:../../lib/STM32F4xx_StdPeriph_Driver/src/stm32f4xx_rtc.c ****     } 
1345:../../lib/STM32F4xx_StdPeriph_Driver/src/stm32f4xx_rtc.c ****     else
1346:../../lib/STM32F4xx_StdPeriph_Driver/src/stm32f4xx_rtc.c ****     {
1347:../../lib/STM32F4xx_StdPeriph_Driver/src/stm32f4xx_rtc.c ****       status = SUCCESS;
1348:../../lib/STM32F4xx_StdPeriph_Driver/src/stm32f4xx_rtc.c ****     }        
1349:../../lib/STM32F4xx_StdPeriph_Driver/src/stm32f4xx_rtc.c ****   } 
1350:../../lib/STM32F4xx_StdPeriph_Driver/src/stm32f4xx_rtc.c **** 
1351:../../lib/STM32F4xx_StdPeriph_Driver/src/stm32f4xx_rtc.c ****   /* Enable the write protection for RTC registers */
1352:../../lib/STM32F4xx_StdPeriph_Driver/src/stm32f4xx_rtc.c ****   RTC->WPR = 0xFF; 
1353:../../lib/STM32F4xx_StdPeriph_Driver/src/stm32f4xx_rtc.c ****   
1354:../../lib/STM32F4xx_StdPeriph_Driver/src/stm32f4xx_rtc.c ****   return status;
1355:../../lib/STM32F4xx_StdPeriph_Driver/src/stm32f4xx_rtc.c **** }
1356:../../lib/STM32F4xx_StdPeriph_Driver/src/stm32f4xx_rtc.c **** 
1357:../../lib/STM32F4xx_StdPeriph_Driver/src/stm32f4xx_rtc.c **** /**
1358:../../lib/STM32F4xx_StdPeriph_Driver/src/stm32f4xx_rtc.c ****   * @brief  Configure the RTC AlarmA/B Subseconds value and mask.*
1359:../../lib/STM32F4xx_StdPeriph_Driver/src/stm32f4xx_rtc.c ****   * @note   This function is performed only when the Alarm is disabled. 
1360:../../lib/STM32F4xx_StdPeriph_Driver/src/stm32f4xx_rtc.c ****   * @param  RTC_Alarm: specifies the alarm to be configured.
1361:../../lib/STM32F4xx_StdPeriph_Driver/src/stm32f4xx_rtc.c ****   *   This parameter can be one of the following values:
1362:../../lib/STM32F4xx_StdPeriph_Driver/src/stm32f4xx_rtc.c ****   *     @arg RTC_Alarm_A: to select Alarm A
1363:../../lib/STM32F4xx_StdPeriph_Driver/src/stm32f4xx_rtc.c ****   *     @arg RTC_Alarm_B: to select Alarm B
1364:../../lib/STM32F4xx_StdPeriph_Driver/src/stm32f4xx_rtc.c ****   * @param  RTC_AlarmSubSecondValue: specifies the Subseconds value.
1365:../../lib/STM32F4xx_StdPeriph_Driver/src/stm32f4xx_rtc.c ****   *   This parameter can be a value from 0 to 0x00007FFF.
1366:../../lib/STM32F4xx_StdPeriph_Driver/src/stm32f4xx_rtc.c ****   * @param  RTC_AlarmSubSecondMask:  specifies the Subseconds Mask.
1367:../../lib/STM32F4xx_StdPeriph_Driver/src/stm32f4xx_rtc.c ****   *   This parameter can be any combination of the following values:
1368:../../lib/STM32F4xx_StdPeriph_Driver/src/stm32f4xx_rtc.c ****   *     @arg RTC_AlarmSubSecondMask_All    : All Alarm SS fields are masked.
1369:../../lib/STM32F4xx_StdPeriph_Driver/src/stm32f4xx_rtc.c ****   *                                          There is no comparison on sub seconds for Alarm.
1370:../../lib/STM32F4xx_StdPeriph_Driver/src/stm32f4xx_rtc.c ****   *     @arg RTC_AlarmSubSecondMask_SS14_1 : SS[14:1] are don't care in Alarm comparison.
1371:../../lib/STM32F4xx_StdPeriph_Driver/src/stm32f4xx_rtc.c ****   *                                          Only SS[0] is compared
1372:../../lib/STM32F4xx_StdPeriph_Driver/src/stm32f4xx_rtc.c ****   *     @arg RTC_AlarmSubSecondMask_SS14_2 : SS[14:2] are don't care in Alarm comparison.
1373:../../lib/STM32F4xx_StdPeriph_Driver/src/stm32f4xx_rtc.c ****   *                                          Only SS[1:0] are compared
1374:../../lib/STM32F4xx_StdPeriph_Driver/src/stm32f4xx_rtc.c ****   *     @arg RTC_AlarmSubSecondMask_SS14_3 : SS[14:3] are don't care in Alarm comparison.
1375:../../lib/STM32F4xx_StdPeriph_Driver/src/stm32f4xx_rtc.c ****   *                                          Only SS[2:0] are compared
1376:../../lib/STM32F4xx_StdPeriph_Driver/src/stm32f4xx_rtc.c ****   *     @arg RTC_AlarmSubSecondMask_SS14_4 : SS[14:4] are don't care in Alarm comparison.
1377:../../lib/STM32F4xx_StdPeriph_Driver/src/stm32f4xx_rtc.c ****   *                                          Only SS[3:0] are compared
1378:../../lib/STM32F4xx_StdPeriph_Driver/src/stm32f4xx_rtc.c ****   *     @arg RTC_AlarmSubSecondMask_SS14_5 : SS[14:5] are don't care in Alarm comparison.
1379:../../lib/STM32F4xx_StdPeriph_Driver/src/stm32f4xx_rtc.c ****   *                                          Only SS[4:0] are compared
1380:../../lib/STM32F4xx_StdPeriph_Driver/src/stm32f4xx_rtc.c ****   *     @arg RTC_AlarmSubSecondMask_SS14_6 : SS[14:6] are don't care in Alarm comparison.
1381:../../lib/STM32F4xx_StdPeriph_Driver/src/stm32f4xx_rtc.c ****   *                                          Only SS[5:0] are compared
1382:../../lib/STM32F4xx_StdPeriph_Driver/src/stm32f4xx_rtc.c ****   *     @arg RTC_AlarmSubSecondMask_SS14_7 : SS[14:7] are don't care in Alarm comparison.
1383:../../lib/STM32F4xx_StdPeriph_Driver/src/stm32f4xx_rtc.c ****   *                                          Only SS[6:0] are compared
1384:../../lib/STM32F4xx_StdPeriph_Driver/src/stm32f4xx_rtc.c ****   *     @arg RTC_AlarmSubSecondMask_SS14_8 : SS[14:8] are don't care in Alarm comparison.
1385:../../lib/STM32F4xx_StdPeriph_Driver/src/stm32f4xx_rtc.c ****   *                                          Only SS[7:0] are compared
1386:../../lib/STM32F4xx_StdPeriph_Driver/src/stm32f4xx_rtc.c ****   *     @arg RTC_AlarmSubSecondMask_SS14_9 : SS[14:9] are don't care in Alarm comparison.
1387:../../lib/STM32F4xx_StdPeriph_Driver/src/stm32f4xx_rtc.c ****   *                                          Only SS[8:0] are compared
1388:../../lib/STM32F4xx_StdPeriph_Driver/src/stm32f4xx_rtc.c ****   *     @arg RTC_AlarmSubSecondMask_SS14_10: SS[14:10] are don't care in Alarm comparison.
1389:../../lib/STM32F4xx_StdPeriph_Driver/src/stm32f4xx_rtc.c ****   *                                          Only SS[9:0] are compared
1390:../../lib/STM32F4xx_StdPeriph_Driver/src/stm32f4xx_rtc.c ****   *     @arg RTC_AlarmSubSecondMask_SS14_11: SS[14:11] are don't care in Alarm comparison.
1391:../../lib/STM32F4xx_StdPeriph_Driver/src/stm32f4xx_rtc.c ****   *                                          Only SS[10:0] are compared
1392:../../lib/STM32F4xx_StdPeriph_Driver/src/stm32f4xx_rtc.c ****   *     @arg RTC_AlarmSubSecondMask_SS14_12: SS[14:12] are don't care in Alarm comparison.
1393:../../lib/STM32F4xx_StdPeriph_Driver/src/stm32f4xx_rtc.c ****   *                                          Only SS[11:0] are compared
1394:../../lib/STM32F4xx_StdPeriph_Driver/src/stm32f4xx_rtc.c ****   *     @arg RTC_AlarmSubSecondMask_SS14_13: SS[14:13] are don't care in Alarm comparison.
1395:../../lib/STM32F4xx_StdPeriph_Driver/src/stm32f4xx_rtc.c ****   *                                          Only SS[12:0] are compared
1396:../../lib/STM32F4xx_StdPeriph_Driver/src/stm32f4xx_rtc.c ****   *     @arg RTC_AlarmSubSecondMask_SS14   : SS[14] is don't care in Alarm comparison.
1397:../../lib/STM32F4xx_StdPeriph_Driver/src/stm32f4xx_rtc.c ****   *                                          Only SS[13:0] are compared
1398:../../lib/STM32F4xx_StdPeriph_Driver/src/stm32f4xx_rtc.c ****   *     @arg RTC_AlarmSubSecondMask_None   : SS[14:0] are compared and must match
1399:../../lib/STM32F4xx_StdPeriph_Driver/src/stm32f4xx_rtc.c ****   *                                          to activate alarm
1400:../../lib/STM32F4xx_StdPeriph_Driver/src/stm32f4xx_rtc.c ****   * @retval None
1401:../../lib/STM32F4xx_StdPeriph_Driver/src/stm32f4xx_rtc.c ****   */
1402:../../lib/STM32F4xx_StdPeriph_Driver/src/stm32f4xx_rtc.c **** void RTC_AlarmSubSecondConfig(uint32_t RTC_Alarm, uint32_t RTC_AlarmSubSecondValue, uint32_t RTC_Al
1403:../../lib/STM32F4xx_StdPeriph_Driver/src/stm32f4xx_rtc.c **** {
1404:../../lib/STM32F4xx_StdPeriph_Driver/src/stm32f4xx_rtc.c ****   uint32_t tmpreg = 0;
1405:../../lib/STM32F4xx_StdPeriph_Driver/src/stm32f4xx_rtc.c **** 
1406:../../lib/STM32F4xx_StdPeriph_Driver/src/stm32f4xx_rtc.c ****   /* Check the parameters */
1407:../../lib/STM32F4xx_StdPeriph_Driver/src/stm32f4xx_rtc.c ****   assert_param(IS_RTC_ALARM(RTC_Alarm));
1408:../../lib/STM32F4xx_StdPeriph_Driver/src/stm32f4xx_rtc.c ****   assert_param(IS_RTC_ALARM_SUB_SECOND_VALUE(RTC_AlarmSubSecondValue));
1409:../../lib/STM32F4xx_StdPeriph_Driver/src/stm32f4xx_rtc.c ****   assert_param(IS_RTC_ALARM_SUB_SECOND_MASK(RTC_AlarmSubSecondMask));
1410:../../lib/STM32F4xx_StdPeriph_Driver/src/stm32f4xx_rtc.c ****   
1411:../../lib/STM32F4xx_StdPeriph_Driver/src/stm32f4xx_rtc.c ****   /* Disable the write protection for RTC registers */
1412:../../lib/STM32F4xx_StdPeriph_Driver/src/stm32f4xx_rtc.c ****   RTC->WPR = 0xCA;
1413:../../lib/STM32F4xx_StdPeriph_Driver/src/stm32f4xx_rtc.c ****   RTC->WPR = 0x53;
1414:../../lib/STM32F4xx_StdPeriph_Driver/src/stm32f4xx_rtc.c ****   
1415:../../lib/STM32F4xx_StdPeriph_Driver/src/stm32f4xx_rtc.c ****   /* Configure the Alarm A or Alarm B SubSecond registers */
1416:../../lib/STM32F4xx_StdPeriph_Driver/src/stm32f4xx_rtc.c ****   tmpreg = (uint32_t) (uint32_t)(RTC_AlarmSubSecondValue) | (uint32_t)(RTC_AlarmSubSecondMask);
1417:../../lib/STM32F4xx_StdPeriph_Driver/src/stm32f4xx_rtc.c ****   
1418:../../lib/STM32F4xx_StdPeriph_Driver/src/stm32f4xx_rtc.c ****   if (RTC_Alarm == RTC_Alarm_A)
1419:../../lib/STM32F4xx_StdPeriph_Driver/src/stm32f4xx_rtc.c ****   {
1420:../../lib/STM32F4xx_StdPeriph_Driver/src/stm32f4xx_rtc.c ****     /* Configure the AlarmA SubSecond register */
1421:../../lib/STM32F4xx_StdPeriph_Driver/src/stm32f4xx_rtc.c ****     RTC->ALRMASSR = tmpreg;
1422:../../lib/STM32F4xx_StdPeriph_Driver/src/stm32f4xx_rtc.c ****   }
1423:../../lib/STM32F4xx_StdPeriph_Driver/src/stm32f4xx_rtc.c ****   else
1424:../../lib/STM32F4xx_StdPeriph_Driver/src/stm32f4xx_rtc.c ****   {
1425:../../lib/STM32F4xx_StdPeriph_Driver/src/stm32f4xx_rtc.c ****     /* Configure the Alarm B SubSecond register */
1426:../../lib/STM32F4xx_StdPeriph_Driver/src/stm32f4xx_rtc.c ****     RTC->ALRMBSSR = tmpreg;
1427:../../lib/STM32F4xx_StdPeriph_Driver/src/stm32f4xx_rtc.c ****   }
1428:../../lib/STM32F4xx_StdPeriph_Driver/src/stm32f4xx_rtc.c **** 
1429:../../lib/STM32F4xx_StdPeriph_Driver/src/stm32f4xx_rtc.c ****   /* Enable the write protection for RTC registers */
1430:../../lib/STM32F4xx_StdPeriph_Driver/src/stm32f4xx_rtc.c ****   RTC->WPR = 0xFF;
1431:../../lib/STM32F4xx_StdPeriph_Driver/src/stm32f4xx_rtc.c **** 
1432:../../lib/STM32F4xx_StdPeriph_Driver/src/stm32f4xx_rtc.c **** }
1433:../../lib/STM32F4xx_StdPeriph_Driver/src/stm32f4xx_rtc.c **** 
1434:../../lib/STM32F4xx_StdPeriph_Driver/src/stm32f4xx_rtc.c **** /**
1435:../../lib/STM32F4xx_StdPeriph_Driver/src/stm32f4xx_rtc.c ****   * @brief  Gets the RTC Alarm Subseconds value.
1436:../../lib/STM32F4xx_StdPeriph_Driver/src/stm32f4xx_rtc.c ****   * @param  RTC_Alarm: specifies the alarm to be read.
1437:../../lib/STM32F4xx_StdPeriph_Driver/src/stm32f4xx_rtc.c ****   *   This parameter can be one of the following values:
1438:../../lib/STM32F4xx_StdPeriph_Driver/src/stm32f4xx_rtc.c ****   *     @arg RTC_Alarm_A: to select Alarm A
1439:../../lib/STM32F4xx_StdPeriph_Driver/src/stm32f4xx_rtc.c ****   *     @arg RTC_Alarm_B: to select Alarm B
1440:../../lib/STM32F4xx_StdPeriph_Driver/src/stm32f4xx_rtc.c ****   * @param  None
1441:../../lib/STM32F4xx_StdPeriph_Driver/src/stm32f4xx_rtc.c ****   * @retval RTC Alarm Subseconds value.
1442:../../lib/STM32F4xx_StdPeriph_Driver/src/stm32f4xx_rtc.c ****   */
1443:../../lib/STM32F4xx_StdPeriph_Driver/src/stm32f4xx_rtc.c **** uint32_t RTC_GetAlarmSubSecond(uint32_t RTC_Alarm)
1444:../../lib/STM32F4xx_StdPeriph_Driver/src/stm32f4xx_rtc.c **** {
1445:../../lib/STM32F4xx_StdPeriph_Driver/src/stm32f4xx_rtc.c ****   uint32_t tmpreg = 0;
1446:../../lib/STM32F4xx_StdPeriph_Driver/src/stm32f4xx_rtc.c ****   
1447:../../lib/STM32F4xx_StdPeriph_Driver/src/stm32f4xx_rtc.c ****   /* Get the RTC_ALRMxR register */
1448:../../lib/STM32F4xx_StdPeriph_Driver/src/stm32f4xx_rtc.c ****   if (RTC_Alarm == RTC_Alarm_A)
1449:../../lib/STM32F4xx_StdPeriph_Driver/src/stm32f4xx_rtc.c ****   {
1450:../../lib/STM32F4xx_StdPeriph_Driver/src/stm32f4xx_rtc.c ****     tmpreg = (uint32_t)((RTC->ALRMASSR) & RTC_ALRMASSR_SS);
1451:../../lib/STM32F4xx_StdPeriph_Driver/src/stm32f4xx_rtc.c ****   }
1452:../../lib/STM32F4xx_StdPeriph_Driver/src/stm32f4xx_rtc.c ****   else
1453:../../lib/STM32F4xx_StdPeriph_Driver/src/stm32f4xx_rtc.c ****   {
1454:../../lib/STM32F4xx_StdPeriph_Driver/src/stm32f4xx_rtc.c ****     tmpreg = (uint32_t)((RTC->ALRMBSSR) & RTC_ALRMBSSR_SS);
1455:../../lib/STM32F4xx_StdPeriph_Driver/src/stm32f4xx_rtc.c ****   } 
1456:../../lib/STM32F4xx_StdPeriph_Driver/src/stm32f4xx_rtc.c ****   
1457:../../lib/STM32F4xx_StdPeriph_Driver/src/stm32f4xx_rtc.c ****   return (tmpreg);
1458:../../lib/STM32F4xx_StdPeriph_Driver/src/stm32f4xx_rtc.c **** }
1459:../../lib/STM32F4xx_StdPeriph_Driver/src/stm32f4xx_rtc.c **** 
1460:../../lib/STM32F4xx_StdPeriph_Driver/src/stm32f4xx_rtc.c **** /**
1461:../../lib/STM32F4xx_StdPeriph_Driver/src/stm32f4xx_rtc.c ****   * @}
1462:../../lib/STM32F4xx_StdPeriph_Driver/src/stm32f4xx_rtc.c ****   */
1463:../../lib/STM32F4xx_StdPeriph_Driver/src/stm32f4xx_rtc.c **** 
1464:../../lib/STM32F4xx_StdPeriph_Driver/src/stm32f4xx_rtc.c **** /** @defgroup RTC_Group4 WakeUp Timer configuration functions
1465:../../lib/STM32F4xx_StdPeriph_Driver/src/stm32f4xx_rtc.c ****  *  @brief   WakeUp Timer configuration functions 
1466:../../lib/STM32F4xx_StdPeriph_Driver/src/stm32f4xx_rtc.c ****  *
1467:../../lib/STM32F4xx_StdPeriph_Driver/src/stm32f4xx_rtc.c **** @verbatim   
1468:../../lib/STM32F4xx_StdPeriph_Driver/src/stm32f4xx_rtc.c ****  ===============================================================================
1469:../../lib/STM32F4xx_StdPeriph_Driver/src/stm32f4xx_rtc.c ****                      WakeUp Timer configuration functions
1470:../../lib/STM32F4xx_StdPeriph_Driver/src/stm32f4xx_rtc.c ****  ===============================================================================  
1471:../../lib/STM32F4xx_StdPeriph_Driver/src/stm32f4xx_rtc.c **** 
1472:../../lib/STM32F4xx_StdPeriph_Driver/src/stm32f4xx_rtc.c ****   This section provide functions allowing to program and read the RTC WakeUp.
1473:../../lib/STM32F4xx_StdPeriph_Driver/src/stm32f4xx_rtc.c **** 
1474:../../lib/STM32F4xx_StdPeriph_Driver/src/stm32f4xx_rtc.c **** @endverbatim
1475:../../lib/STM32F4xx_StdPeriph_Driver/src/stm32f4xx_rtc.c ****   * @{
1476:../../lib/STM32F4xx_StdPeriph_Driver/src/stm32f4xx_rtc.c ****   */
1477:../../lib/STM32F4xx_StdPeriph_Driver/src/stm32f4xx_rtc.c **** 
1478:../../lib/STM32F4xx_StdPeriph_Driver/src/stm32f4xx_rtc.c **** /**
1479:../../lib/STM32F4xx_StdPeriph_Driver/src/stm32f4xx_rtc.c ****   * @brief  Configures the RTC Wakeup clock source.
1480:../../lib/STM32F4xx_StdPeriph_Driver/src/stm32f4xx_rtc.c ****   * @note   The WakeUp Clock source can only be changed when the RTC WakeUp
1481:../../lib/STM32F4xx_StdPeriph_Driver/src/stm32f4xx_rtc.c ****   *         is disabled (Use the RTC_WakeUpCmd(DISABLE)).      
1482:../../lib/STM32F4xx_StdPeriph_Driver/src/stm32f4xx_rtc.c ****   * @param  RTC_WakeUpClock: Wakeup Clock source.
1483:../../lib/STM32F4xx_StdPeriph_Driver/src/stm32f4xx_rtc.c ****   *          This parameter can be one of the following values:
1484:../../lib/STM32F4xx_StdPeriph_Driver/src/stm32f4xx_rtc.c ****   *            @arg RTC_WakeUpClock_RTCCLK_Div16: RTC Wakeup Counter Clock = RTCCLK/16
1485:../../lib/STM32F4xx_StdPeriph_Driver/src/stm32f4xx_rtc.c ****   *            @arg RTC_WakeUpClock_RTCCLK_Div8: RTC Wakeup Counter Clock = RTCCLK/8
1486:../../lib/STM32F4xx_StdPeriph_Driver/src/stm32f4xx_rtc.c ****   *            @arg RTC_WakeUpClock_RTCCLK_Div4: RTC Wakeup Counter Clock = RTCCLK/4
1487:../../lib/STM32F4xx_StdPeriph_Driver/src/stm32f4xx_rtc.c ****   *            @arg RTC_WakeUpClock_RTCCLK_Div2: RTC Wakeup Counter Clock = RTCCLK/2
1488:../../lib/STM32F4xx_StdPeriph_Driver/src/stm32f4xx_rtc.c ****   *            @arg RTC_WakeUpClock_CK_SPRE_16bits: RTC Wakeup Counter Clock = CK_SPRE
1489:../../lib/STM32F4xx_StdPeriph_Driver/src/stm32f4xx_rtc.c ****   *            @arg RTC_WakeUpClock_CK_SPRE_17bits: RTC Wakeup Counter Clock = CK_SPRE
1490:../../lib/STM32F4xx_StdPeriph_Driver/src/stm32f4xx_rtc.c ****   * @retval None
1491:../../lib/STM32F4xx_StdPeriph_Driver/src/stm32f4xx_rtc.c ****   */
1492:../../lib/STM32F4xx_StdPeriph_Driver/src/stm32f4xx_rtc.c **** void RTC_WakeUpClockConfig(uint32_t RTC_WakeUpClock)
1493:../../lib/STM32F4xx_StdPeriph_Driver/src/stm32f4xx_rtc.c **** {
1494:../../lib/STM32F4xx_StdPeriph_Driver/src/stm32f4xx_rtc.c ****   /* Check the parameters */
1495:../../lib/STM32F4xx_StdPeriph_Driver/src/stm32f4xx_rtc.c ****   assert_param(IS_RTC_WAKEUP_CLOCK(RTC_WakeUpClock));
1496:../../lib/STM32F4xx_StdPeriph_Driver/src/stm32f4xx_rtc.c **** 
1497:../../lib/STM32F4xx_StdPeriph_Driver/src/stm32f4xx_rtc.c ****   /* Disable the write protection for RTC registers */
1498:../../lib/STM32F4xx_StdPeriph_Driver/src/stm32f4xx_rtc.c ****   RTC->WPR = 0xCA;
1499:../../lib/STM32F4xx_StdPeriph_Driver/src/stm32f4xx_rtc.c ****   RTC->WPR = 0x53;
1500:../../lib/STM32F4xx_StdPeriph_Driver/src/stm32f4xx_rtc.c **** 
1501:../../lib/STM32F4xx_StdPeriph_Driver/src/stm32f4xx_rtc.c ****   /* Clear the Wakeup Timer clock source bits in CR register */
1502:../../lib/STM32F4xx_StdPeriph_Driver/src/stm32f4xx_rtc.c ****   RTC->CR &= (uint32_t)~RTC_CR_WUCKSEL;
1503:../../lib/STM32F4xx_StdPeriph_Driver/src/stm32f4xx_rtc.c **** 
1504:../../lib/STM32F4xx_StdPeriph_Driver/src/stm32f4xx_rtc.c ****   /* Configure the clock source */
1505:../../lib/STM32F4xx_StdPeriph_Driver/src/stm32f4xx_rtc.c ****   RTC->CR |= (uint32_t)RTC_WakeUpClock;
1506:../../lib/STM32F4xx_StdPeriph_Driver/src/stm32f4xx_rtc.c ****   
1507:../../lib/STM32F4xx_StdPeriph_Driver/src/stm32f4xx_rtc.c ****   /* Enable the write protection for RTC registers */
1508:../../lib/STM32F4xx_StdPeriph_Driver/src/stm32f4xx_rtc.c ****   RTC->WPR = 0xFF; 
1509:../../lib/STM32F4xx_StdPeriph_Driver/src/stm32f4xx_rtc.c **** }
1510:../../lib/STM32F4xx_StdPeriph_Driver/src/stm32f4xx_rtc.c **** 
1511:../../lib/STM32F4xx_StdPeriph_Driver/src/stm32f4xx_rtc.c **** /**
1512:../../lib/STM32F4xx_StdPeriph_Driver/src/stm32f4xx_rtc.c ****   * @brief  Configures the RTC Wakeup counter.
1513:../../lib/STM32F4xx_StdPeriph_Driver/src/stm32f4xx_rtc.c ****   * @note   The RTC WakeUp counter can only be written when the RTC WakeUp
1514:../../lib/STM32F4xx_StdPeriph_Driver/src/stm32f4xx_rtc.c ****   *         is disabled (Use the RTC_WakeUpCmd(DISABLE)).        
1515:../../lib/STM32F4xx_StdPeriph_Driver/src/stm32f4xx_rtc.c ****   * @param  RTC_WakeUpCounter: specifies the WakeUp counter.
1516:../../lib/STM32F4xx_StdPeriph_Driver/src/stm32f4xx_rtc.c ****   *          This parameter can be a value from 0x0000 to 0xFFFF. 
1517:../../lib/STM32F4xx_StdPeriph_Driver/src/stm32f4xx_rtc.c ****   * @retval None
1518:../../lib/STM32F4xx_StdPeriph_Driver/src/stm32f4xx_rtc.c ****   */
1519:../../lib/STM32F4xx_StdPeriph_Driver/src/stm32f4xx_rtc.c **** void RTC_SetWakeUpCounter(uint32_t RTC_WakeUpCounter)
1520:../../lib/STM32F4xx_StdPeriph_Driver/src/stm32f4xx_rtc.c **** {
1521:../../lib/STM32F4xx_StdPeriph_Driver/src/stm32f4xx_rtc.c ****   /* Check the parameters */
1522:../../lib/STM32F4xx_StdPeriph_Driver/src/stm32f4xx_rtc.c ****   assert_param(IS_RTC_WAKEUP_COUNTER(RTC_WakeUpCounter));
1523:../../lib/STM32F4xx_StdPeriph_Driver/src/stm32f4xx_rtc.c ****   
1524:../../lib/STM32F4xx_StdPeriph_Driver/src/stm32f4xx_rtc.c ****   /* Disable the write protection for RTC registers */
1525:../../lib/STM32F4xx_StdPeriph_Driver/src/stm32f4xx_rtc.c ****   RTC->WPR = 0xCA;
1526:../../lib/STM32F4xx_StdPeriph_Driver/src/stm32f4xx_rtc.c ****   RTC->WPR = 0x53;
1527:../../lib/STM32F4xx_StdPeriph_Driver/src/stm32f4xx_rtc.c ****   
1528:../../lib/STM32F4xx_StdPeriph_Driver/src/stm32f4xx_rtc.c ****   /* Configure the Wakeup Timer counter */
1529:../../lib/STM32F4xx_StdPeriph_Driver/src/stm32f4xx_rtc.c ****   RTC->WUTR = (uint32_t)RTC_WakeUpCounter;
1530:../../lib/STM32F4xx_StdPeriph_Driver/src/stm32f4xx_rtc.c ****   
1531:../../lib/STM32F4xx_StdPeriph_Driver/src/stm32f4xx_rtc.c ****   /* Enable the write protection for RTC registers */
1532:../../lib/STM32F4xx_StdPeriph_Driver/src/stm32f4xx_rtc.c ****   RTC->WPR = 0xFF; 
1533:../../lib/STM32F4xx_StdPeriph_Driver/src/stm32f4xx_rtc.c **** }
1534:../../lib/STM32F4xx_StdPeriph_Driver/src/stm32f4xx_rtc.c **** 
1535:../../lib/STM32F4xx_StdPeriph_Driver/src/stm32f4xx_rtc.c **** /**
1536:../../lib/STM32F4xx_StdPeriph_Driver/src/stm32f4xx_rtc.c ****   * @brief  Returns the RTC WakeUp timer counter value.
1537:../../lib/STM32F4xx_StdPeriph_Driver/src/stm32f4xx_rtc.c ****   * @param  None
1538:../../lib/STM32F4xx_StdPeriph_Driver/src/stm32f4xx_rtc.c ****   * @retval The RTC WakeUp Counter value.
1539:../../lib/STM32F4xx_StdPeriph_Driver/src/stm32f4xx_rtc.c ****   */
1540:../../lib/STM32F4xx_StdPeriph_Driver/src/stm32f4xx_rtc.c **** uint32_t RTC_GetWakeUpCounter(void)
1541:../../lib/STM32F4xx_StdPeriph_Driver/src/stm32f4xx_rtc.c **** {
1542:../../lib/STM32F4xx_StdPeriph_Driver/src/stm32f4xx_rtc.c ****   /* Get the counter value */
1543:../../lib/STM32F4xx_StdPeriph_Driver/src/stm32f4xx_rtc.c ****   return ((uint32_t)(RTC->WUTR & RTC_WUTR_WUT));
1544:../../lib/STM32F4xx_StdPeriph_Driver/src/stm32f4xx_rtc.c **** }
1545:../../lib/STM32F4xx_StdPeriph_Driver/src/stm32f4xx_rtc.c **** 
1546:../../lib/STM32F4xx_StdPeriph_Driver/src/stm32f4xx_rtc.c **** /**
1547:../../lib/STM32F4xx_StdPeriph_Driver/src/stm32f4xx_rtc.c ****   * @brief  Enables or Disables the RTC WakeUp timer.
1548:../../lib/STM32F4xx_StdPeriph_Driver/src/stm32f4xx_rtc.c ****   * @param  NewState: new state of the WakeUp timer.
1549:../../lib/STM32F4xx_StdPeriph_Driver/src/stm32f4xx_rtc.c ****   *          This parameter can be: ENABLE or DISABLE.
1550:../../lib/STM32F4xx_StdPeriph_Driver/src/stm32f4xx_rtc.c ****   * @retval None
1551:../../lib/STM32F4xx_StdPeriph_Driver/src/stm32f4xx_rtc.c ****   */
1552:../../lib/STM32F4xx_StdPeriph_Driver/src/stm32f4xx_rtc.c **** ErrorStatus RTC_WakeUpCmd(FunctionalState NewState)
1553:../../lib/STM32F4xx_StdPeriph_Driver/src/stm32f4xx_rtc.c **** {
1554:../../lib/STM32F4xx_StdPeriph_Driver/src/stm32f4xx_rtc.c ****   __IO uint32_t wutcounter = 0x00;
1555:../../lib/STM32F4xx_StdPeriph_Driver/src/stm32f4xx_rtc.c ****   uint32_t wutwfstatus = 0x00;
1556:../../lib/STM32F4xx_StdPeriph_Driver/src/stm32f4xx_rtc.c ****   ErrorStatus status = ERROR;
1557:../../lib/STM32F4xx_StdPeriph_Driver/src/stm32f4xx_rtc.c ****   
1558:../../lib/STM32F4xx_StdPeriph_Driver/src/stm32f4xx_rtc.c ****   /* Check the parameters */
1559:../../lib/STM32F4xx_StdPeriph_Driver/src/stm32f4xx_rtc.c ****   assert_param(IS_FUNCTIONAL_STATE(NewState));
1560:../../lib/STM32F4xx_StdPeriph_Driver/src/stm32f4xx_rtc.c **** 
1561:../../lib/STM32F4xx_StdPeriph_Driver/src/stm32f4xx_rtc.c ****   /* Disable the write protection for RTC registers */
1562:../../lib/STM32F4xx_StdPeriph_Driver/src/stm32f4xx_rtc.c ****   RTC->WPR = 0xCA;
1563:../../lib/STM32F4xx_StdPeriph_Driver/src/stm32f4xx_rtc.c ****   RTC->WPR = 0x53;
1564:../../lib/STM32F4xx_StdPeriph_Driver/src/stm32f4xx_rtc.c **** 
1565:../../lib/STM32F4xx_StdPeriph_Driver/src/stm32f4xx_rtc.c ****   if (NewState != DISABLE)
1566:../../lib/STM32F4xx_StdPeriph_Driver/src/stm32f4xx_rtc.c ****   {
1567:../../lib/STM32F4xx_StdPeriph_Driver/src/stm32f4xx_rtc.c ****     /* Enable the Wakeup Timer */
1568:../../lib/STM32F4xx_StdPeriph_Driver/src/stm32f4xx_rtc.c ****     RTC->CR |= (uint32_t)RTC_CR_WUTE;
1569:../../lib/STM32F4xx_StdPeriph_Driver/src/stm32f4xx_rtc.c ****     status = SUCCESS;    
1570:../../lib/STM32F4xx_StdPeriph_Driver/src/stm32f4xx_rtc.c ****   }
1571:../../lib/STM32F4xx_StdPeriph_Driver/src/stm32f4xx_rtc.c ****   else
1572:../../lib/STM32F4xx_StdPeriph_Driver/src/stm32f4xx_rtc.c ****   {
1573:../../lib/STM32F4xx_StdPeriph_Driver/src/stm32f4xx_rtc.c ****     /* Disable the Wakeup Timer */
1574:../../lib/STM32F4xx_StdPeriph_Driver/src/stm32f4xx_rtc.c ****     RTC->CR &= (uint32_t)~RTC_CR_WUTE;
1575:../../lib/STM32F4xx_StdPeriph_Driver/src/stm32f4xx_rtc.c ****     /* Wait till RTC WUTWF flag is set and if Time out is reached exit */
1576:../../lib/STM32F4xx_StdPeriph_Driver/src/stm32f4xx_rtc.c ****     do
1577:../../lib/STM32F4xx_StdPeriph_Driver/src/stm32f4xx_rtc.c ****     {
1578:../../lib/STM32F4xx_StdPeriph_Driver/src/stm32f4xx_rtc.c ****       wutwfstatus = RTC->ISR & RTC_ISR_WUTWF;
1579:../../lib/STM32F4xx_StdPeriph_Driver/src/stm32f4xx_rtc.c ****       wutcounter++;  
1580:../../lib/STM32F4xx_StdPeriph_Driver/src/stm32f4xx_rtc.c ****     } while((wutcounter != INITMODE_TIMEOUT) && (wutwfstatus == 0x00));
1581:../../lib/STM32F4xx_StdPeriph_Driver/src/stm32f4xx_rtc.c ****     
1582:../../lib/STM32F4xx_StdPeriph_Driver/src/stm32f4xx_rtc.c ****     if ((RTC->ISR & RTC_ISR_WUTWF) == RESET)
1583:../../lib/STM32F4xx_StdPeriph_Driver/src/stm32f4xx_rtc.c ****     {
1584:../../lib/STM32F4xx_StdPeriph_Driver/src/stm32f4xx_rtc.c ****       status = ERROR;
1585:../../lib/STM32F4xx_StdPeriph_Driver/src/stm32f4xx_rtc.c ****     }
1586:../../lib/STM32F4xx_StdPeriph_Driver/src/stm32f4xx_rtc.c ****     else
1587:../../lib/STM32F4xx_StdPeriph_Driver/src/stm32f4xx_rtc.c ****     {
1588:../../lib/STM32F4xx_StdPeriph_Driver/src/stm32f4xx_rtc.c ****       status = SUCCESS;
1589:../../lib/STM32F4xx_StdPeriph_Driver/src/stm32f4xx_rtc.c ****     }    
1590:../../lib/STM32F4xx_StdPeriph_Driver/src/stm32f4xx_rtc.c ****   }
1591:../../lib/STM32F4xx_StdPeriph_Driver/src/stm32f4xx_rtc.c **** 
1592:../../lib/STM32F4xx_StdPeriph_Driver/src/stm32f4xx_rtc.c ****   /* Enable the write protection for RTC registers */
1593:../../lib/STM32F4xx_StdPeriph_Driver/src/stm32f4xx_rtc.c ****   RTC->WPR = 0xFF; 
1594:../../lib/STM32F4xx_StdPeriph_Driver/src/stm32f4xx_rtc.c ****   
1595:../../lib/STM32F4xx_StdPeriph_Driver/src/stm32f4xx_rtc.c ****   return status;
1596:../../lib/STM32F4xx_StdPeriph_Driver/src/stm32f4xx_rtc.c **** }
1597:../../lib/STM32F4xx_StdPeriph_Driver/src/stm32f4xx_rtc.c **** 
1598:../../lib/STM32F4xx_StdPeriph_Driver/src/stm32f4xx_rtc.c **** /**
1599:../../lib/STM32F4xx_StdPeriph_Driver/src/stm32f4xx_rtc.c ****   * @}
1600:../../lib/STM32F4xx_StdPeriph_Driver/src/stm32f4xx_rtc.c ****   */
1601:../../lib/STM32F4xx_StdPeriph_Driver/src/stm32f4xx_rtc.c **** 
1602:../../lib/STM32F4xx_StdPeriph_Driver/src/stm32f4xx_rtc.c **** /** @defgroup RTC_Group5 Daylight Saving configuration functions
1603:../../lib/STM32F4xx_StdPeriph_Driver/src/stm32f4xx_rtc.c ****  *  @brief   Daylight Saving configuration functions 
1604:../../lib/STM32F4xx_StdPeriph_Driver/src/stm32f4xx_rtc.c ****  *
1605:../../lib/STM32F4xx_StdPeriph_Driver/src/stm32f4xx_rtc.c **** @verbatim   
1606:../../lib/STM32F4xx_StdPeriph_Driver/src/stm32f4xx_rtc.c ****  ===============================================================================
1607:../../lib/STM32F4xx_StdPeriph_Driver/src/stm32f4xx_rtc.c ****                     Daylight Saving configuration functions
1608:../../lib/STM32F4xx_StdPeriph_Driver/src/stm32f4xx_rtc.c ****  ===============================================================================  
1609:../../lib/STM32F4xx_StdPeriph_Driver/src/stm32f4xx_rtc.c **** 
1610:../../lib/STM32F4xx_StdPeriph_Driver/src/stm32f4xx_rtc.c ****   This section provide functions allowing to configure the RTC DayLight Saving.
1611:../../lib/STM32F4xx_StdPeriph_Driver/src/stm32f4xx_rtc.c **** 
1612:../../lib/STM32F4xx_StdPeriph_Driver/src/stm32f4xx_rtc.c **** @endverbatim
1613:../../lib/STM32F4xx_StdPeriph_Driver/src/stm32f4xx_rtc.c ****   * @{
1614:../../lib/STM32F4xx_StdPeriph_Driver/src/stm32f4xx_rtc.c ****   */
1615:../../lib/STM32F4xx_StdPeriph_Driver/src/stm32f4xx_rtc.c **** 
1616:../../lib/STM32F4xx_StdPeriph_Driver/src/stm32f4xx_rtc.c **** /**
1617:../../lib/STM32F4xx_StdPeriph_Driver/src/stm32f4xx_rtc.c ****   * @brief  Adds or substract one hour from the current time.
1618:../../lib/STM32F4xx_StdPeriph_Driver/src/stm32f4xx_rtc.c ****   * @param  RTC_DayLightSaveOperation: the value of hour adjustment. 
1619:../../lib/STM32F4xx_StdPeriph_Driver/src/stm32f4xx_rtc.c ****   *          This parameter can be one of the following values:
1620:../../lib/STM32F4xx_StdPeriph_Driver/src/stm32f4xx_rtc.c ****   *            @arg RTC_DayLightSaving_SUB1H: Substract one hour (winter time)
1621:../../lib/STM32F4xx_StdPeriph_Driver/src/stm32f4xx_rtc.c ****   *            @arg RTC_DayLightSaving_ADD1H: Add one hour (summer time)
1622:../../lib/STM32F4xx_StdPeriph_Driver/src/stm32f4xx_rtc.c ****   * @param  RTC_StoreOperation: Specifies the value to be written in the BCK bit 
1623:../../lib/STM32F4xx_StdPeriph_Driver/src/stm32f4xx_rtc.c ****   *                            in CR register to store the operation.
1624:../../lib/STM32F4xx_StdPeriph_Driver/src/stm32f4xx_rtc.c ****   *          This parameter can be one of the following values:
1625:../../lib/STM32F4xx_StdPeriph_Driver/src/stm32f4xx_rtc.c ****   *            @arg RTC_StoreOperation_Reset: BCK Bit Reset
1626:../../lib/STM32F4xx_StdPeriph_Driver/src/stm32f4xx_rtc.c ****   *            @arg RTC_StoreOperation_Set: BCK Bit Set
1627:../../lib/STM32F4xx_StdPeriph_Driver/src/stm32f4xx_rtc.c ****   * @retval None
1628:../../lib/STM32F4xx_StdPeriph_Driver/src/stm32f4xx_rtc.c ****   */
1629:../../lib/STM32F4xx_StdPeriph_Driver/src/stm32f4xx_rtc.c **** void RTC_DayLightSavingConfig(uint32_t RTC_DayLightSaving, uint32_t RTC_StoreOperation)
1630:../../lib/STM32F4xx_StdPeriph_Driver/src/stm32f4xx_rtc.c **** {
1631:../../lib/STM32F4xx_StdPeriph_Driver/src/stm32f4xx_rtc.c ****   /* Check the parameters */
1632:../../lib/STM32F4xx_StdPeriph_Driver/src/stm32f4xx_rtc.c ****   assert_param(IS_RTC_DAYLIGHT_SAVING(RTC_DayLightSaving));
1633:../../lib/STM32F4xx_StdPeriph_Driver/src/stm32f4xx_rtc.c ****   assert_param(IS_RTC_STORE_OPERATION(RTC_StoreOperation));
1634:../../lib/STM32F4xx_StdPeriph_Driver/src/stm32f4xx_rtc.c **** 
1635:../../lib/STM32F4xx_StdPeriph_Driver/src/stm32f4xx_rtc.c ****   /* Disable the write protection for RTC registers */
1636:../../lib/STM32F4xx_StdPeriph_Driver/src/stm32f4xx_rtc.c ****   RTC->WPR = 0xCA;
1637:../../lib/STM32F4xx_StdPeriph_Driver/src/stm32f4xx_rtc.c ****   RTC->WPR = 0x53;
1638:../../lib/STM32F4xx_StdPeriph_Driver/src/stm32f4xx_rtc.c **** 
1639:../../lib/STM32F4xx_StdPeriph_Driver/src/stm32f4xx_rtc.c ****   /* Clear the bits to be configured */
1640:../../lib/STM32F4xx_StdPeriph_Driver/src/stm32f4xx_rtc.c ****   RTC->CR &= (uint32_t)~(RTC_CR_BCK);
1641:../../lib/STM32F4xx_StdPeriph_Driver/src/stm32f4xx_rtc.c **** 
1642:../../lib/STM32F4xx_StdPeriph_Driver/src/stm32f4xx_rtc.c ****   /* Configure the RTC_CR register */
1643:../../lib/STM32F4xx_StdPeriph_Driver/src/stm32f4xx_rtc.c ****   RTC->CR |= (uint32_t)(RTC_DayLightSaving | RTC_StoreOperation);
1644:../../lib/STM32F4xx_StdPeriph_Driver/src/stm32f4xx_rtc.c **** 
1645:../../lib/STM32F4xx_StdPeriph_Driver/src/stm32f4xx_rtc.c ****   /* Enable the write protection for RTC registers */
1646:../../lib/STM32F4xx_StdPeriph_Driver/src/stm32f4xx_rtc.c ****   RTC->WPR = 0xFF; 
1647:../../lib/STM32F4xx_StdPeriph_Driver/src/stm32f4xx_rtc.c **** }
1648:../../lib/STM32F4xx_StdPeriph_Driver/src/stm32f4xx_rtc.c **** 
1649:../../lib/STM32F4xx_StdPeriph_Driver/src/stm32f4xx_rtc.c **** /**
1650:../../lib/STM32F4xx_StdPeriph_Driver/src/stm32f4xx_rtc.c ****   * @brief  Returns the RTC Day Light Saving stored operation.
1651:../../lib/STM32F4xx_StdPeriph_Driver/src/stm32f4xx_rtc.c ****   * @param  None
1652:../../lib/STM32F4xx_StdPeriph_Driver/src/stm32f4xx_rtc.c ****   * @retval RTC Day Light Saving stored operation.
1653:../../lib/STM32F4xx_StdPeriph_Driver/src/stm32f4xx_rtc.c ****   *          - RTC_StoreOperation_Reset
1654:../../lib/STM32F4xx_StdPeriph_Driver/src/stm32f4xx_rtc.c ****   *          - RTC_StoreOperation_Set       
1655:../../lib/STM32F4xx_StdPeriph_Driver/src/stm32f4xx_rtc.c ****   */
1656:../../lib/STM32F4xx_StdPeriph_Driver/src/stm32f4xx_rtc.c **** uint32_t RTC_GetStoreOperation(void)
1657:../../lib/STM32F4xx_StdPeriph_Driver/src/stm32f4xx_rtc.c **** {
1658:../../lib/STM32F4xx_StdPeriph_Driver/src/stm32f4xx_rtc.c ****   return (RTC->CR & RTC_CR_BCK);
1659:../../lib/STM32F4xx_StdPeriph_Driver/src/stm32f4xx_rtc.c **** }
1660:../../lib/STM32F4xx_StdPeriph_Driver/src/stm32f4xx_rtc.c **** 
1661:../../lib/STM32F4xx_StdPeriph_Driver/src/stm32f4xx_rtc.c **** /**
1662:../../lib/STM32F4xx_StdPeriph_Driver/src/stm32f4xx_rtc.c ****   * @}
1663:../../lib/STM32F4xx_StdPeriph_Driver/src/stm32f4xx_rtc.c ****   */
1664:../../lib/STM32F4xx_StdPeriph_Driver/src/stm32f4xx_rtc.c **** 
1665:../../lib/STM32F4xx_StdPeriph_Driver/src/stm32f4xx_rtc.c **** /** @defgroup RTC_Group6 Output pin Configuration function
1666:../../lib/STM32F4xx_StdPeriph_Driver/src/stm32f4xx_rtc.c ****  *  @brief   Output pin Configuration function 
1667:../../lib/STM32F4xx_StdPeriph_Driver/src/stm32f4xx_rtc.c ****  *
1668:../../lib/STM32F4xx_StdPeriph_Driver/src/stm32f4xx_rtc.c **** @verbatim   
1669:../../lib/STM32F4xx_StdPeriph_Driver/src/stm32f4xx_rtc.c ****  ===============================================================================
1670:../../lib/STM32F4xx_StdPeriph_Driver/src/stm32f4xx_rtc.c ****                          Output pin Configuration function
1671:../../lib/STM32F4xx_StdPeriph_Driver/src/stm32f4xx_rtc.c ****  ===============================================================================  
1672:../../lib/STM32F4xx_StdPeriph_Driver/src/stm32f4xx_rtc.c **** 
1673:../../lib/STM32F4xx_StdPeriph_Driver/src/stm32f4xx_rtc.c ****   This section provide functions allowing to configure the RTC Output source.
1674:../../lib/STM32F4xx_StdPeriph_Driver/src/stm32f4xx_rtc.c **** 
1675:../../lib/STM32F4xx_StdPeriph_Driver/src/stm32f4xx_rtc.c **** @endverbatim
1676:../../lib/STM32F4xx_StdPeriph_Driver/src/stm32f4xx_rtc.c ****   * @{
1677:../../lib/STM32F4xx_StdPeriph_Driver/src/stm32f4xx_rtc.c ****   */
1678:../../lib/STM32F4xx_StdPeriph_Driver/src/stm32f4xx_rtc.c **** 
1679:../../lib/STM32F4xx_StdPeriph_Driver/src/stm32f4xx_rtc.c **** /**
1680:../../lib/STM32F4xx_StdPeriph_Driver/src/stm32f4xx_rtc.c ****   * @brief  Configures the RTC output source (AFO_ALARM).
1681:../../lib/STM32F4xx_StdPeriph_Driver/src/stm32f4xx_rtc.c ****   * @param  RTC_Output: Specifies which signal will be routed to the RTC output. 
1682:../../lib/STM32F4xx_StdPeriph_Driver/src/stm32f4xx_rtc.c ****   *          This parameter can be one of the following values:
1683:../../lib/STM32F4xx_StdPeriph_Driver/src/stm32f4xx_rtc.c ****   *            @arg RTC_Output_Disable: No output selected
1684:../../lib/STM32F4xx_StdPeriph_Driver/src/stm32f4xx_rtc.c ****   *            @arg RTC_Output_AlarmA: signal of AlarmA mapped to output
1685:../../lib/STM32F4xx_StdPeriph_Driver/src/stm32f4xx_rtc.c ****   *            @arg RTC_Output_AlarmB: signal of AlarmB mapped to output
1686:../../lib/STM32F4xx_StdPeriph_Driver/src/stm32f4xx_rtc.c ****   *            @arg RTC_Output_WakeUp: signal of WakeUp mapped to output
1687:../../lib/STM32F4xx_StdPeriph_Driver/src/stm32f4xx_rtc.c ****   * @param  RTC_OutputPolarity: Specifies the polarity of the output signal. 
1688:../../lib/STM32F4xx_StdPeriph_Driver/src/stm32f4xx_rtc.c ****   *          This parameter can be one of the following:
1689:../../lib/STM32F4xx_StdPeriph_Driver/src/stm32f4xx_rtc.c ****   *            @arg RTC_OutputPolarity_High: The output pin is high when the 
1690:../../lib/STM32F4xx_StdPeriph_Driver/src/stm32f4xx_rtc.c ****   *                                 ALRAF/ALRBF/WUTF is high (depending on OSEL)
1691:../../lib/STM32F4xx_StdPeriph_Driver/src/stm32f4xx_rtc.c ****   *            @arg RTC_OutputPolarity_Low: The output pin is low when the 
1692:../../lib/STM32F4xx_StdPeriph_Driver/src/stm32f4xx_rtc.c ****   *                                 ALRAF/ALRBF/WUTF is high (depending on OSEL)
1693:../../lib/STM32F4xx_StdPeriph_Driver/src/stm32f4xx_rtc.c ****   * @retval None
1694:../../lib/STM32F4xx_StdPeriph_Driver/src/stm32f4xx_rtc.c ****   */
1695:../../lib/STM32F4xx_StdPeriph_Driver/src/stm32f4xx_rtc.c **** void RTC_OutputConfig(uint32_t RTC_Output, uint32_t RTC_OutputPolarity)
1696:../../lib/STM32F4xx_StdPeriph_Driver/src/stm32f4xx_rtc.c **** {
1697:../../lib/STM32F4xx_StdPeriph_Driver/src/stm32f4xx_rtc.c ****   /* Check the parameters */
1698:../../lib/STM32F4xx_StdPeriph_Driver/src/stm32f4xx_rtc.c ****   assert_param(IS_RTC_OUTPUT(RTC_Output));
1699:../../lib/STM32F4xx_StdPeriph_Driver/src/stm32f4xx_rtc.c ****   assert_param(IS_RTC_OUTPUT_POL(RTC_OutputPolarity));
1700:../../lib/STM32F4xx_StdPeriph_Driver/src/stm32f4xx_rtc.c **** 
1701:../../lib/STM32F4xx_StdPeriph_Driver/src/stm32f4xx_rtc.c ****   /* Disable the write protection for RTC registers */
1702:../../lib/STM32F4xx_StdPeriph_Driver/src/stm32f4xx_rtc.c ****   RTC->WPR = 0xCA;
1703:../../lib/STM32F4xx_StdPeriph_Driver/src/stm32f4xx_rtc.c ****   RTC->WPR = 0x53;
1704:../../lib/STM32F4xx_StdPeriph_Driver/src/stm32f4xx_rtc.c **** 
1705:../../lib/STM32F4xx_StdPeriph_Driver/src/stm32f4xx_rtc.c ****   /* Clear the bits to be configured */
1706:../../lib/STM32F4xx_StdPeriph_Driver/src/stm32f4xx_rtc.c ****   RTC->CR &= (uint32_t)~(RTC_CR_OSEL | RTC_CR_POL);
1707:../../lib/STM32F4xx_StdPeriph_Driver/src/stm32f4xx_rtc.c **** 
1708:../../lib/STM32F4xx_StdPeriph_Driver/src/stm32f4xx_rtc.c ****   /* Configure the output selection and polarity */
1709:../../lib/STM32F4xx_StdPeriph_Driver/src/stm32f4xx_rtc.c ****   RTC->CR |= (uint32_t)(RTC_Output | RTC_OutputPolarity);
1710:../../lib/STM32F4xx_StdPeriph_Driver/src/stm32f4xx_rtc.c **** 
1711:../../lib/STM32F4xx_StdPeriph_Driver/src/stm32f4xx_rtc.c ****   /* Enable the write protection for RTC registers */
1712:../../lib/STM32F4xx_StdPeriph_Driver/src/stm32f4xx_rtc.c ****   RTC->WPR = 0xFF; 
1713:../../lib/STM32F4xx_StdPeriph_Driver/src/stm32f4xx_rtc.c **** }
1714:../../lib/STM32F4xx_StdPeriph_Driver/src/stm32f4xx_rtc.c **** 
1715:../../lib/STM32F4xx_StdPeriph_Driver/src/stm32f4xx_rtc.c **** /**
1716:../../lib/STM32F4xx_StdPeriph_Driver/src/stm32f4xx_rtc.c ****   * @}
1717:../../lib/STM32F4xx_StdPeriph_Driver/src/stm32f4xx_rtc.c ****   */
1718:../../lib/STM32F4xx_StdPeriph_Driver/src/stm32f4xx_rtc.c **** 
1719:../../lib/STM32F4xx_StdPeriph_Driver/src/stm32f4xx_rtc.c **** /** @defgroup RTC_Group7 Digital Calibration configuration functions
1720:../../lib/STM32F4xx_StdPeriph_Driver/src/stm32f4xx_rtc.c ****  *  @brief   Coarse Calibration configuration functions 
1721:../../lib/STM32F4xx_StdPeriph_Driver/src/stm32f4xx_rtc.c ****  *
1722:../../lib/STM32F4xx_StdPeriph_Driver/src/stm32f4xx_rtc.c **** @verbatim   
1723:../../lib/STM32F4xx_StdPeriph_Driver/src/stm32f4xx_rtc.c ****  ===============================================================================
1724:../../lib/STM32F4xx_StdPeriph_Driver/src/stm32f4xx_rtc.c ****                   Digital Calibration configuration functions
1725:../../lib/STM32F4xx_StdPeriph_Driver/src/stm32f4xx_rtc.c ****  ===============================================================================  
1726:../../lib/STM32F4xx_StdPeriph_Driver/src/stm32f4xx_rtc.c **** 
1727:../../lib/STM32F4xx_StdPeriph_Driver/src/stm32f4xx_rtc.c **** @endverbatim
1728:../../lib/STM32F4xx_StdPeriph_Driver/src/stm32f4xx_rtc.c ****   * @{
1729:../../lib/STM32F4xx_StdPeriph_Driver/src/stm32f4xx_rtc.c ****   */
1730:../../lib/STM32F4xx_StdPeriph_Driver/src/stm32f4xx_rtc.c **** 
1731:../../lib/STM32F4xx_StdPeriph_Driver/src/stm32f4xx_rtc.c **** /**
1732:../../lib/STM32F4xx_StdPeriph_Driver/src/stm32f4xx_rtc.c ****   * @brief  Configures the Coarse calibration parameters.
1733:../../lib/STM32F4xx_StdPeriph_Driver/src/stm32f4xx_rtc.c ****   * @param  RTC_CalibSign: specifies the sign of the coarse calibration value.
1734:../../lib/STM32F4xx_StdPeriph_Driver/src/stm32f4xx_rtc.c ****   *          This parameter can be  one of the following values:
1735:../../lib/STM32F4xx_StdPeriph_Driver/src/stm32f4xx_rtc.c ****   *            @arg RTC_CalibSign_Positive: The value sign is positive 
1736:../../lib/STM32F4xx_StdPeriph_Driver/src/stm32f4xx_rtc.c ****   *            @arg RTC_CalibSign_Negative: The value sign is negative
1737:../../lib/STM32F4xx_StdPeriph_Driver/src/stm32f4xx_rtc.c ****   * @param  Value: value of coarse calibration expressed in ppm (coded on 5 bits).
1738:../../lib/STM32F4xx_StdPeriph_Driver/src/stm32f4xx_rtc.c ****   *    
1739:../../lib/STM32F4xx_StdPeriph_Driver/src/stm32f4xx_rtc.c ****   * @note   This Calibration value should be between 0 and 63 when using negative
1740:../../lib/STM32F4xx_StdPeriph_Driver/src/stm32f4xx_rtc.c ****   *         sign with a 2-ppm step.
1741:../../lib/STM32F4xx_StdPeriph_Driver/src/stm32f4xx_rtc.c ****   *           
1742:../../lib/STM32F4xx_StdPeriph_Driver/src/stm32f4xx_rtc.c ****   * @note   This Calibration value should be between 0 and 126 when using positive
1743:../../lib/STM32F4xx_StdPeriph_Driver/src/stm32f4xx_rtc.c ****   *         sign with a 4-ppm step.
1744:../../lib/STM32F4xx_StdPeriph_Driver/src/stm32f4xx_rtc.c ****   *           
1745:../../lib/STM32F4xx_StdPeriph_Driver/src/stm32f4xx_rtc.c ****   * @retval An ErrorStatus enumeration value:
1746:../../lib/STM32F4xx_StdPeriph_Driver/src/stm32f4xx_rtc.c ****   *          - SUCCESS: RTC Coarse calibration are initialized
1747:../../lib/STM32F4xx_StdPeriph_Driver/src/stm32f4xx_rtc.c ****   *          - ERROR: RTC Coarse calibration are not initialized     
1748:../../lib/STM32F4xx_StdPeriph_Driver/src/stm32f4xx_rtc.c ****   */
1749:../../lib/STM32F4xx_StdPeriph_Driver/src/stm32f4xx_rtc.c **** ErrorStatus RTC_CoarseCalibConfig(uint32_t RTC_CalibSign, uint32_t Value)
1750:../../lib/STM32F4xx_StdPeriph_Driver/src/stm32f4xx_rtc.c **** {
1751:../../lib/STM32F4xx_StdPeriph_Driver/src/stm32f4xx_rtc.c ****   ErrorStatus status = ERROR;
1752:../../lib/STM32F4xx_StdPeriph_Driver/src/stm32f4xx_rtc.c ****    
1753:../../lib/STM32F4xx_StdPeriph_Driver/src/stm32f4xx_rtc.c ****   /* Check the parameters */
1754:../../lib/STM32F4xx_StdPeriph_Driver/src/stm32f4xx_rtc.c ****   assert_param(IS_RTC_CALIB_SIGN(RTC_CalibSign));
1755:../../lib/STM32F4xx_StdPeriph_Driver/src/stm32f4xx_rtc.c ****   assert_param(IS_RTC_CALIB_VALUE(Value)); 
1756:../../lib/STM32F4xx_StdPeriph_Driver/src/stm32f4xx_rtc.c **** 
1757:../../lib/STM32F4xx_StdPeriph_Driver/src/stm32f4xx_rtc.c ****   /* Disable the write protection for RTC registers */
1758:../../lib/STM32F4xx_StdPeriph_Driver/src/stm32f4xx_rtc.c ****   RTC->WPR = 0xCA;
1759:../../lib/STM32F4xx_StdPeriph_Driver/src/stm32f4xx_rtc.c ****   RTC->WPR = 0x53;
1760:../../lib/STM32F4xx_StdPeriph_Driver/src/stm32f4xx_rtc.c **** 
1761:../../lib/STM32F4xx_StdPeriph_Driver/src/stm32f4xx_rtc.c ****   /* Set Initialization mode */
1762:../../lib/STM32F4xx_StdPeriph_Driver/src/stm32f4xx_rtc.c ****   if (RTC_EnterInitMode() == ERROR)
1763:../../lib/STM32F4xx_StdPeriph_Driver/src/stm32f4xx_rtc.c ****   {
1764:../../lib/STM32F4xx_StdPeriph_Driver/src/stm32f4xx_rtc.c ****     status = ERROR;
1765:../../lib/STM32F4xx_StdPeriph_Driver/src/stm32f4xx_rtc.c ****   } 
1766:../../lib/STM32F4xx_StdPeriph_Driver/src/stm32f4xx_rtc.c ****   else
1767:../../lib/STM32F4xx_StdPeriph_Driver/src/stm32f4xx_rtc.c ****   {
1768:../../lib/STM32F4xx_StdPeriph_Driver/src/stm32f4xx_rtc.c ****     /* Set the coarse calibration value */
1769:../../lib/STM32F4xx_StdPeriph_Driver/src/stm32f4xx_rtc.c ****     RTC->CALIBR = (uint32_t)(RTC_CalibSign | Value);
1770:../../lib/STM32F4xx_StdPeriph_Driver/src/stm32f4xx_rtc.c ****     /* Exit Initialization mode */
1771:../../lib/STM32F4xx_StdPeriph_Driver/src/stm32f4xx_rtc.c ****     RTC_ExitInitMode();
1772:../../lib/STM32F4xx_StdPeriph_Driver/src/stm32f4xx_rtc.c ****     
1773:../../lib/STM32F4xx_StdPeriph_Driver/src/stm32f4xx_rtc.c ****     status = SUCCESS;
1774:../../lib/STM32F4xx_StdPeriph_Driver/src/stm32f4xx_rtc.c ****   } 
1775:../../lib/STM32F4xx_StdPeriph_Driver/src/stm32f4xx_rtc.c **** 
1776:../../lib/STM32F4xx_StdPeriph_Driver/src/stm32f4xx_rtc.c ****   /* Enable the write protection for RTC registers */
1777:../../lib/STM32F4xx_StdPeriph_Driver/src/stm32f4xx_rtc.c ****   RTC->WPR = 0xFF; 
1778:../../lib/STM32F4xx_StdPeriph_Driver/src/stm32f4xx_rtc.c ****   
1779:../../lib/STM32F4xx_StdPeriph_Driver/src/stm32f4xx_rtc.c ****   return status;
1780:../../lib/STM32F4xx_StdPeriph_Driver/src/stm32f4xx_rtc.c **** }
1781:../../lib/STM32F4xx_StdPeriph_Driver/src/stm32f4xx_rtc.c **** 
1782:../../lib/STM32F4xx_StdPeriph_Driver/src/stm32f4xx_rtc.c **** /**
1783:../../lib/STM32F4xx_StdPeriph_Driver/src/stm32f4xx_rtc.c ****   * @brief  Enables or disables the Coarse calibration process.
1784:../../lib/STM32F4xx_StdPeriph_Driver/src/stm32f4xx_rtc.c ****   * @param  NewState: new state of the Coarse calibration.
1785:../../lib/STM32F4xx_StdPeriph_Driver/src/stm32f4xx_rtc.c ****   *          This parameter can be: ENABLE or DISABLE.
1786:../../lib/STM32F4xx_StdPeriph_Driver/src/stm32f4xx_rtc.c ****   * @retval An ErrorStatus enumeration value:
1787:../../lib/STM32F4xx_StdPeriph_Driver/src/stm32f4xx_rtc.c ****   *          - SUCCESS: RTC Coarse calibration are enabled/disabled
1788:../../lib/STM32F4xx_StdPeriph_Driver/src/stm32f4xx_rtc.c ****   *          - ERROR: RTC Coarse calibration are not enabled/disabled    
1789:../../lib/STM32F4xx_StdPeriph_Driver/src/stm32f4xx_rtc.c ****   */
1790:../../lib/STM32F4xx_StdPeriph_Driver/src/stm32f4xx_rtc.c **** ErrorStatus RTC_CoarseCalibCmd(FunctionalState NewState)
1791:../../lib/STM32F4xx_StdPeriph_Driver/src/stm32f4xx_rtc.c **** {
1792:../../lib/STM32F4xx_StdPeriph_Driver/src/stm32f4xx_rtc.c ****   ErrorStatus status = ERROR;
1793:../../lib/STM32F4xx_StdPeriph_Driver/src/stm32f4xx_rtc.c ****   
1794:../../lib/STM32F4xx_StdPeriph_Driver/src/stm32f4xx_rtc.c ****   /* Check the parameters */
1795:../../lib/STM32F4xx_StdPeriph_Driver/src/stm32f4xx_rtc.c ****   assert_param(IS_FUNCTIONAL_STATE(NewState));
1796:../../lib/STM32F4xx_StdPeriph_Driver/src/stm32f4xx_rtc.c **** 
1797:../../lib/STM32F4xx_StdPeriph_Driver/src/stm32f4xx_rtc.c ****   /* Disable the write protection for RTC registers */
1798:../../lib/STM32F4xx_StdPeriph_Driver/src/stm32f4xx_rtc.c ****   RTC->WPR = 0xCA;
1799:../../lib/STM32F4xx_StdPeriph_Driver/src/stm32f4xx_rtc.c ****   RTC->WPR = 0x53;
1800:../../lib/STM32F4xx_StdPeriph_Driver/src/stm32f4xx_rtc.c ****   
1801:../../lib/STM32F4xx_StdPeriph_Driver/src/stm32f4xx_rtc.c ****   /* Set Initialization mode */
1802:../../lib/STM32F4xx_StdPeriph_Driver/src/stm32f4xx_rtc.c ****   if (RTC_EnterInitMode() == ERROR)
1803:../../lib/STM32F4xx_StdPeriph_Driver/src/stm32f4xx_rtc.c ****   {
1804:../../lib/STM32F4xx_StdPeriph_Driver/src/stm32f4xx_rtc.c ****     status =  ERROR;
1805:../../lib/STM32F4xx_StdPeriph_Driver/src/stm32f4xx_rtc.c ****   }
1806:../../lib/STM32F4xx_StdPeriph_Driver/src/stm32f4xx_rtc.c ****   else
1807:../../lib/STM32F4xx_StdPeriph_Driver/src/stm32f4xx_rtc.c ****   {
1808:../../lib/STM32F4xx_StdPeriph_Driver/src/stm32f4xx_rtc.c ****     if (NewState != DISABLE)
1809:../../lib/STM32F4xx_StdPeriph_Driver/src/stm32f4xx_rtc.c ****     {
1810:../../lib/STM32F4xx_StdPeriph_Driver/src/stm32f4xx_rtc.c ****       /* Enable the Coarse Calibration */
1811:../../lib/STM32F4xx_StdPeriph_Driver/src/stm32f4xx_rtc.c ****       RTC->CR |= (uint32_t)RTC_CR_DCE;
1812:../../lib/STM32F4xx_StdPeriph_Driver/src/stm32f4xx_rtc.c ****     }
1813:../../lib/STM32F4xx_StdPeriph_Driver/src/stm32f4xx_rtc.c ****     else
1814:../../lib/STM32F4xx_StdPeriph_Driver/src/stm32f4xx_rtc.c ****     { 
1815:../../lib/STM32F4xx_StdPeriph_Driver/src/stm32f4xx_rtc.c ****       /* Disable the Coarse Calibration */
1816:../../lib/STM32F4xx_StdPeriph_Driver/src/stm32f4xx_rtc.c ****       RTC->CR &= (uint32_t)~RTC_CR_DCE;
1817:../../lib/STM32F4xx_StdPeriph_Driver/src/stm32f4xx_rtc.c ****     }
1818:../../lib/STM32F4xx_StdPeriph_Driver/src/stm32f4xx_rtc.c ****     /* Exit Initialization mode */
1819:../../lib/STM32F4xx_StdPeriph_Driver/src/stm32f4xx_rtc.c ****     RTC_ExitInitMode();
1820:../../lib/STM32F4xx_StdPeriph_Driver/src/stm32f4xx_rtc.c ****     
1821:../../lib/STM32F4xx_StdPeriph_Driver/src/stm32f4xx_rtc.c ****     status = SUCCESS;
1822:../../lib/STM32F4xx_StdPeriph_Driver/src/stm32f4xx_rtc.c ****   } 
1823:../../lib/STM32F4xx_StdPeriph_Driver/src/stm32f4xx_rtc.c ****   
1824:../../lib/STM32F4xx_StdPeriph_Driver/src/stm32f4xx_rtc.c ****   /* Enable the write protection for RTC registers */
1825:../../lib/STM32F4xx_StdPeriph_Driver/src/stm32f4xx_rtc.c ****   RTC->WPR = 0xFF; 
1826:../../lib/STM32F4xx_StdPeriph_Driver/src/stm32f4xx_rtc.c ****   
1827:../../lib/STM32F4xx_StdPeriph_Driver/src/stm32f4xx_rtc.c ****   return status;
1828:../../lib/STM32F4xx_StdPeriph_Driver/src/stm32f4xx_rtc.c **** }
1829:../../lib/STM32F4xx_StdPeriph_Driver/src/stm32f4xx_rtc.c **** 
1830:../../lib/STM32F4xx_StdPeriph_Driver/src/stm32f4xx_rtc.c **** /**
1831:../../lib/STM32F4xx_StdPeriph_Driver/src/stm32f4xx_rtc.c ****   * @brief  Enables or disables the RTC clock to be output through the relative pin.
1832:../../lib/STM32F4xx_StdPeriph_Driver/src/stm32f4xx_rtc.c ****   * @param  NewState: new state of the digital calibration Output.
1833:../../lib/STM32F4xx_StdPeriph_Driver/src/stm32f4xx_rtc.c ****   *          This parameter can be: ENABLE or DISABLE.
1834:../../lib/STM32F4xx_StdPeriph_Driver/src/stm32f4xx_rtc.c ****   * @retval None
1835:../../lib/STM32F4xx_StdPeriph_Driver/src/stm32f4xx_rtc.c ****   */
1836:../../lib/STM32F4xx_StdPeriph_Driver/src/stm32f4xx_rtc.c **** void RTC_CalibOutputCmd(FunctionalState NewState)
1837:../../lib/STM32F4xx_StdPeriph_Driver/src/stm32f4xx_rtc.c **** {
1838:../../lib/STM32F4xx_StdPeriph_Driver/src/stm32f4xx_rtc.c ****   /* Check the parameters */
1839:../../lib/STM32F4xx_StdPeriph_Driver/src/stm32f4xx_rtc.c ****   assert_param(IS_FUNCTIONAL_STATE(NewState));
1840:../../lib/STM32F4xx_StdPeriph_Driver/src/stm32f4xx_rtc.c ****   
1841:../../lib/STM32F4xx_StdPeriph_Driver/src/stm32f4xx_rtc.c ****   /* Disable the write protection for RTC registers */
1842:../../lib/STM32F4xx_StdPeriph_Driver/src/stm32f4xx_rtc.c ****   RTC->WPR = 0xCA;
1843:../../lib/STM32F4xx_StdPeriph_Driver/src/stm32f4xx_rtc.c ****   RTC->WPR = 0x53;
1844:../../lib/STM32F4xx_StdPeriph_Driver/src/stm32f4xx_rtc.c ****   
1845:../../lib/STM32F4xx_StdPeriph_Driver/src/stm32f4xx_rtc.c ****   if (NewState != DISABLE)
1846:../../lib/STM32F4xx_StdPeriph_Driver/src/stm32f4xx_rtc.c ****   {
1847:../../lib/STM32F4xx_StdPeriph_Driver/src/stm32f4xx_rtc.c ****     /* Enable the RTC clock output */
1848:../../lib/STM32F4xx_StdPeriph_Driver/src/stm32f4xx_rtc.c ****     RTC->CR |= (uint32_t)RTC_CR_COE;
1849:../../lib/STM32F4xx_StdPeriph_Driver/src/stm32f4xx_rtc.c ****   }
1850:../../lib/STM32F4xx_StdPeriph_Driver/src/stm32f4xx_rtc.c ****   else
1851:../../lib/STM32F4xx_StdPeriph_Driver/src/stm32f4xx_rtc.c ****   { 
1852:../../lib/STM32F4xx_StdPeriph_Driver/src/stm32f4xx_rtc.c ****     /* Disable the RTC clock output */
1853:../../lib/STM32F4xx_StdPeriph_Driver/src/stm32f4xx_rtc.c ****     RTC->CR &= (uint32_t)~RTC_CR_COE;
1854:../../lib/STM32F4xx_StdPeriph_Driver/src/stm32f4xx_rtc.c ****   }
1855:../../lib/STM32F4xx_StdPeriph_Driver/src/stm32f4xx_rtc.c ****   
1856:../../lib/STM32F4xx_StdPeriph_Driver/src/stm32f4xx_rtc.c ****   /* Enable the write protection for RTC registers */
1857:../../lib/STM32F4xx_StdPeriph_Driver/src/stm32f4xx_rtc.c ****   RTC->WPR = 0xFF; 
1858:../../lib/STM32F4xx_StdPeriph_Driver/src/stm32f4xx_rtc.c **** }
1859:../../lib/STM32F4xx_StdPeriph_Driver/src/stm32f4xx_rtc.c **** 
1860:../../lib/STM32F4xx_StdPeriph_Driver/src/stm32f4xx_rtc.c **** /**
1861:../../lib/STM32F4xx_StdPeriph_Driver/src/stm32f4xx_rtc.c ****   * @brief  Configure the Calibration Pinout (RTC_CALIB) Selection (1Hz or 512Hz).
1862:../../lib/STM32F4xx_StdPeriph_Driver/src/stm32f4xx_rtc.c ****   * @param  RTC_CalibOutput : Select the Calibration output Selection .
1863:../../lib/STM32F4xx_StdPeriph_Driver/src/stm32f4xx_rtc.c ****   *   This parameter can be one of the following values:
1864:../../lib/STM32F4xx_StdPeriph_Driver/src/stm32f4xx_rtc.c ****   *     @arg RTC_CalibOutput_512Hz: A signal has a regular waveform at 512Hz. 
1865:../../lib/STM32F4xx_StdPeriph_Driver/src/stm32f4xx_rtc.c ****   *     @arg RTC_CalibOutput_1Hz  : A signal has a regular waveform at 1Hz.
1866:../../lib/STM32F4xx_StdPeriph_Driver/src/stm32f4xx_rtc.c ****   * @retval None
1867:../../lib/STM32F4xx_StdPeriph_Driver/src/stm32f4xx_rtc.c **** */
1868:../../lib/STM32F4xx_StdPeriph_Driver/src/stm32f4xx_rtc.c **** void RTC_CalibOutputConfig(uint32_t RTC_CalibOutput)
1869:../../lib/STM32F4xx_StdPeriph_Driver/src/stm32f4xx_rtc.c **** {
1870:../../lib/STM32F4xx_StdPeriph_Driver/src/stm32f4xx_rtc.c ****   /* Check the parameters */
1871:../../lib/STM32F4xx_StdPeriph_Driver/src/stm32f4xx_rtc.c ****   assert_param(IS_RTC_CALIB_OUTPUT(RTC_CalibOutput));
1872:../../lib/STM32F4xx_StdPeriph_Driver/src/stm32f4xx_rtc.c **** 
1873:../../lib/STM32F4xx_StdPeriph_Driver/src/stm32f4xx_rtc.c ****   /* Disable the write protection for RTC registers */
1874:../../lib/STM32F4xx_StdPeriph_Driver/src/stm32f4xx_rtc.c ****   RTC->WPR = 0xCA;
1875:../../lib/STM32F4xx_StdPeriph_Driver/src/stm32f4xx_rtc.c ****   RTC->WPR = 0x53;
1876:../../lib/STM32F4xx_StdPeriph_Driver/src/stm32f4xx_rtc.c ****   
1877:../../lib/STM32F4xx_StdPeriph_Driver/src/stm32f4xx_rtc.c ****   /*clear flags before config*/
1878:../../lib/STM32F4xx_StdPeriph_Driver/src/stm32f4xx_rtc.c ****   RTC->CR &= (uint32_t)~(RTC_CR_COSEL);
1879:../../lib/STM32F4xx_StdPeriph_Driver/src/stm32f4xx_rtc.c **** 
1880:../../lib/STM32F4xx_StdPeriph_Driver/src/stm32f4xx_rtc.c ****   /* Configure the RTC_CR register */
1881:../../lib/STM32F4xx_StdPeriph_Driver/src/stm32f4xx_rtc.c ****   RTC->CR |= (uint32_t)RTC_CalibOutput;
1882:../../lib/STM32F4xx_StdPeriph_Driver/src/stm32f4xx_rtc.c **** 
1883:../../lib/STM32F4xx_StdPeriph_Driver/src/stm32f4xx_rtc.c ****   /* Enable the write protection for RTC registers */
1884:../../lib/STM32F4xx_StdPeriph_Driver/src/stm32f4xx_rtc.c ****   RTC->WPR = 0xFF;
1885:../../lib/STM32F4xx_StdPeriph_Driver/src/stm32f4xx_rtc.c **** }
1886:../../lib/STM32F4xx_StdPeriph_Driver/src/stm32f4xx_rtc.c **** 
1887:../../lib/STM32F4xx_StdPeriph_Driver/src/stm32f4xx_rtc.c **** /**
1888:../../lib/STM32F4xx_StdPeriph_Driver/src/stm32f4xx_rtc.c ****   * @brief  Configures the Smooth Calibration Settings.
1889:../../lib/STM32F4xx_StdPeriph_Driver/src/stm32f4xx_rtc.c ****   * @param  RTC_SmoothCalibPeriod : Select the Smooth Calibration Period.
1890:../../lib/STM32F4xx_StdPeriph_Driver/src/stm32f4xx_rtc.c ****   *   This parameter can be can be one of the following values:
1891:../../lib/STM32F4xx_StdPeriph_Driver/src/stm32f4xx_rtc.c ****   *     @arg RTC_SmoothCalibPeriod_32sec : The smooth calibration periode is 32s.
1892:../../lib/STM32F4xx_StdPeriph_Driver/src/stm32f4xx_rtc.c ****   *     @arg RTC_SmoothCalibPeriod_16sec : The smooth calibration periode is 16s.
1893:../../lib/STM32F4xx_StdPeriph_Driver/src/stm32f4xx_rtc.c ****   *     @arg RTC_SmoothCalibPeriod_8sec  : The smooth calibartion periode is 8s.
1894:../../lib/STM32F4xx_StdPeriph_Driver/src/stm32f4xx_rtc.c ****   * @param  RTC_SmoothCalibPlusPulses : Select to Set or reset the CALP bit.
1895:../../lib/STM32F4xx_StdPeriph_Driver/src/stm32f4xx_rtc.c ****   *   This parameter can be one of the following values:
1896:../../lib/STM32F4xx_StdPeriph_Driver/src/stm32f4xx_rtc.c ****   *     @arg RTC_SmoothCalibPlusPulses_Set  : Add one RTCCLK puls every 2**11 pulses.
1897:../../lib/STM32F4xx_StdPeriph_Driver/src/stm32f4xx_rtc.c ****   *     @arg RTC_SmoothCalibPlusPulses_Reset: No RTCCLK pulses are added.
1898:../../lib/STM32F4xx_StdPeriph_Driver/src/stm32f4xx_rtc.c ****   * @param  RTC_SmouthCalibMinusPulsesValue: Select the value of CALM[8:0] bits.
1899:../../lib/STM32F4xx_StdPeriph_Driver/src/stm32f4xx_rtc.c ****   *   This parameter can be one any value from 0 to 0x000001FF.
1900:../../lib/STM32F4xx_StdPeriph_Driver/src/stm32f4xx_rtc.c ****   * @retval An ErrorStatus enumeration value:
1901:../../lib/STM32F4xx_StdPeriph_Driver/src/stm32f4xx_rtc.c ****   *          - SUCCESS: RTC Calib registers are configured
1902:../../lib/STM32F4xx_StdPeriph_Driver/src/stm32f4xx_rtc.c ****   *          - ERROR: RTC Calib registers are not configured
1903:../../lib/STM32F4xx_StdPeriph_Driver/src/stm32f4xx_rtc.c **** */
1904:../../lib/STM32F4xx_StdPeriph_Driver/src/stm32f4xx_rtc.c **** ErrorStatus RTC_SmoothCalibConfig(uint32_t RTC_SmoothCalibPeriod,
1905:../../lib/STM32F4xx_StdPeriph_Driver/src/stm32f4xx_rtc.c ****                                   uint32_t RTC_SmoothCalibPlusPulses,
1906:../../lib/STM32F4xx_StdPeriph_Driver/src/stm32f4xx_rtc.c ****                                   uint32_t RTC_SmouthCalibMinusPulsesValue)
1907:../../lib/STM32F4xx_StdPeriph_Driver/src/stm32f4xx_rtc.c **** {
1908:../../lib/STM32F4xx_StdPeriph_Driver/src/stm32f4xx_rtc.c ****   ErrorStatus status = ERROR;
1909:../../lib/STM32F4xx_StdPeriph_Driver/src/stm32f4xx_rtc.c ****   uint32_t recalpfcount = 0;
1910:../../lib/STM32F4xx_StdPeriph_Driver/src/stm32f4xx_rtc.c **** 
1911:../../lib/STM32F4xx_StdPeriph_Driver/src/stm32f4xx_rtc.c ****   /* Check the parameters */
1912:../../lib/STM32F4xx_StdPeriph_Driver/src/stm32f4xx_rtc.c ****   assert_param(IS_RTC_SMOOTH_CALIB_PERIOD(RTC_SmoothCalibPeriod));
1913:../../lib/STM32F4xx_StdPeriph_Driver/src/stm32f4xx_rtc.c ****   assert_param(IS_RTC_SMOOTH_CALIB_PLUS(RTC_SmoothCalibPlusPulses));
1914:../../lib/STM32F4xx_StdPeriph_Driver/src/stm32f4xx_rtc.c ****   assert_param(IS_RTC_SMOOTH_CALIB_MINUS(RTC_SmouthCalibMinusPulsesValue));
1915:../../lib/STM32F4xx_StdPeriph_Driver/src/stm32f4xx_rtc.c **** 
1916:../../lib/STM32F4xx_StdPeriph_Driver/src/stm32f4xx_rtc.c ****   /* Disable the write protection for RTC registers */
1917:../../lib/STM32F4xx_StdPeriph_Driver/src/stm32f4xx_rtc.c ****   RTC->WPR = 0xCA;
1918:../../lib/STM32F4xx_StdPeriph_Driver/src/stm32f4xx_rtc.c ****   RTC->WPR = 0x53;
1919:../../lib/STM32F4xx_StdPeriph_Driver/src/stm32f4xx_rtc.c ****   
1920:../../lib/STM32F4xx_StdPeriph_Driver/src/stm32f4xx_rtc.c ****   /* check if a calibration is pending*/
1921:../../lib/STM32F4xx_StdPeriph_Driver/src/stm32f4xx_rtc.c ****   if ((RTC->ISR & RTC_ISR_RECALPF) != RESET)
1922:../../lib/STM32F4xx_StdPeriph_Driver/src/stm32f4xx_rtc.c ****   {
1923:../../lib/STM32F4xx_StdPeriph_Driver/src/stm32f4xx_rtc.c ****     /* wait until the Calibration is completed*/
1924:../../lib/STM32F4xx_StdPeriph_Driver/src/stm32f4xx_rtc.c ****     while (((RTC->ISR & RTC_ISR_RECALPF) != RESET) && (recalpfcount != RECALPF_TIMEOUT))
1925:../../lib/STM32F4xx_StdPeriph_Driver/src/stm32f4xx_rtc.c ****     {
1926:../../lib/STM32F4xx_StdPeriph_Driver/src/stm32f4xx_rtc.c ****       recalpfcount++;
1927:../../lib/STM32F4xx_StdPeriph_Driver/src/stm32f4xx_rtc.c ****     }
1928:../../lib/STM32F4xx_StdPeriph_Driver/src/stm32f4xx_rtc.c ****   }
1929:../../lib/STM32F4xx_StdPeriph_Driver/src/stm32f4xx_rtc.c **** 
1930:../../lib/STM32F4xx_StdPeriph_Driver/src/stm32f4xx_rtc.c ****   /* check if the calibration pending is completed or if there is no calibration operation at all*/
1931:../../lib/STM32F4xx_StdPeriph_Driver/src/stm32f4xx_rtc.c ****   if ((RTC->ISR & RTC_ISR_RECALPF) == RESET)
1932:../../lib/STM32F4xx_StdPeriph_Driver/src/stm32f4xx_rtc.c ****   {
1933:../../lib/STM32F4xx_StdPeriph_Driver/src/stm32f4xx_rtc.c ****     /* Configure the Smooth calibration settings */
1934:../../lib/STM32F4xx_StdPeriph_Driver/src/stm32f4xx_rtc.c ****     RTC->CALR = (uint32_t)((uint32_t)RTC_SmoothCalibPeriod | (uint32_t)RTC_SmoothCalibPlusPulses | 
1935:../../lib/STM32F4xx_StdPeriph_Driver/src/stm32f4xx_rtc.c **** 
1936:../../lib/STM32F4xx_StdPeriph_Driver/src/stm32f4xx_rtc.c ****     status = SUCCESS;
1937:../../lib/STM32F4xx_StdPeriph_Driver/src/stm32f4xx_rtc.c ****   }
1938:../../lib/STM32F4xx_StdPeriph_Driver/src/stm32f4xx_rtc.c ****   else
1939:../../lib/STM32F4xx_StdPeriph_Driver/src/stm32f4xx_rtc.c ****   {
1940:../../lib/STM32F4xx_StdPeriph_Driver/src/stm32f4xx_rtc.c ****     status = ERROR;
1941:../../lib/STM32F4xx_StdPeriph_Driver/src/stm32f4xx_rtc.c ****   }
1942:../../lib/STM32F4xx_StdPeriph_Driver/src/stm32f4xx_rtc.c **** 
1943:../../lib/STM32F4xx_StdPeriph_Driver/src/stm32f4xx_rtc.c ****   /* Enable the write protection for RTC registers */
1944:../../lib/STM32F4xx_StdPeriph_Driver/src/stm32f4xx_rtc.c ****   RTC->WPR = 0xFF;
1945:../../lib/STM32F4xx_StdPeriph_Driver/src/stm32f4xx_rtc.c ****   
1946:../../lib/STM32F4xx_StdPeriph_Driver/src/stm32f4xx_rtc.c ****   return (ErrorStatus)(status);
1947:../../lib/STM32F4xx_StdPeriph_Driver/src/stm32f4xx_rtc.c **** }
1948:../../lib/STM32F4xx_StdPeriph_Driver/src/stm32f4xx_rtc.c **** 
1949:../../lib/STM32F4xx_StdPeriph_Driver/src/stm32f4xx_rtc.c **** /**
1950:../../lib/STM32F4xx_StdPeriph_Driver/src/stm32f4xx_rtc.c ****   * @}
1951:../../lib/STM32F4xx_StdPeriph_Driver/src/stm32f4xx_rtc.c ****   */
1952:../../lib/STM32F4xx_StdPeriph_Driver/src/stm32f4xx_rtc.c **** 
1953:../../lib/STM32F4xx_StdPeriph_Driver/src/stm32f4xx_rtc.c **** 
1954:../../lib/STM32F4xx_StdPeriph_Driver/src/stm32f4xx_rtc.c **** /** @defgroup RTC_Group8 TimeStamp configuration functions
1955:../../lib/STM32F4xx_StdPeriph_Driver/src/stm32f4xx_rtc.c ****  *  @brief   TimeStamp configuration functions 
1956:../../lib/STM32F4xx_StdPeriph_Driver/src/stm32f4xx_rtc.c ****  *
1957:../../lib/STM32F4xx_StdPeriph_Driver/src/stm32f4xx_rtc.c **** @verbatim   
1958:../../lib/STM32F4xx_StdPeriph_Driver/src/stm32f4xx_rtc.c ****  ===============================================================================
1959:../../lib/STM32F4xx_StdPeriph_Driver/src/stm32f4xx_rtc.c ****                        TimeStamp configuration functions
1960:../../lib/STM32F4xx_StdPeriph_Driver/src/stm32f4xx_rtc.c ****  ===============================================================================  
1961:../../lib/STM32F4xx_StdPeriph_Driver/src/stm32f4xx_rtc.c **** 
1962:../../lib/STM32F4xx_StdPeriph_Driver/src/stm32f4xx_rtc.c **** @endverbatim
1963:../../lib/STM32F4xx_StdPeriph_Driver/src/stm32f4xx_rtc.c ****   * @{
1964:../../lib/STM32F4xx_StdPeriph_Driver/src/stm32f4xx_rtc.c ****   */
1965:../../lib/STM32F4xx_StdPeriph_Driver/src/stm32f4xx_rtc.c **** 
1966:../../lib/STM32F4xx_StdPeriph_Driver/src/stm32f4xx_rtc.c **** /**
1967:../../lib/STM32F4xx_StdPeriph_Driver/src/stm32f4xx_rtc.c ****   * @brief  Enables or Disables the RTC TimeStamp functionality with the 
1968:../../lib/STM32F4xx_StdPeriph_Driver/src/stm32f4xx_rtc.c ****   *         specified time stamp pin stimulating edge.
1969:../../lib/STM32F4xx_StdPeriph_Driver/src/stm32f4xx_rtc.c ****   * @param  RTC_TimeStampEdge: Specifies the pin edge on which the TimeStamp is 
1970:../../lib/STM32F4xx_StdPeriph_Driver/src/stm32f4xx_rtc.c ****   *         activated.
1971:../../lib/STM32F4xx_StdPeriph_Driver/src/stm32f4xx_rtc.c ****   *          This parameter can be one of the following:
1972:../../lib/STM32F4xx_StdPeriph_Driver/src/stm32f4xx_rtc.c ****   *            @arg RTC_TimeStampEdge_Rising: the Time stamp event occurs on the rising 
1973:../../lib/STM32F4xx_StdPeriph_Driver/src/stm32f4xx_rtc.c ****   *                                    edge of the related pin.
1974:../../lib/STM32F4xx_StdPeriph_Driver/src/stm32f4xx_rtc.c ****   *            @arg RTC_TimeStampEdge_Falling: the Time stamp event occurs on the 
1975:../../lib/STM32F4xx_StdPeriph_Driver/src/stm32f4xx_rtc.c ****   *                                     falling edge of the related pin.
1976:../../lib/STM32F4xx_StdPeriph_Driver/src/stm32f4xx_rtc.c ****   * @param  NewState: new state of the TimeStamp.
1977:../../lib/STM32F4xx_StdPeriph_Driver/src/stm32f4xx_rtc.c ****   *          This parameter can be: ENABLE or DISABLE.
1978:../../lib/STM32F4xx_StdPeriph_Driver/src/stm32f4xx_rtc.c ****   * @retval None
1979:../../lib/STM32F4xx_StdPeriph_Driver/src/stm32f4xx_rtc.c ****   */
1980:../../lib/STM32F4xx_StdPeriph_Driver/src/stm32f4xx_rtc.c **** void RTC_TimeStampCmd(uint32_t RTC_TimeStampEdge, FunctionalState NewState)
1981:../../lib/STM32F4xx_StdPeriph_Driver/src/stm32f4xx_rtc.c **** {
1982:../../lib/STM32F4xx_StdPeriph_Driver/src/stm32f4xx_rtc.c ****   uint32_t tmpreg = 0;
1983:../../lib/STM32F4xx_StdPeriph_Driver/src/stm32f4xx_rtc.c **** 
1984:../../lib/STM32F4xx_StdPeriph_Driver/src/stm32f4xx_rtc.c ****   /* Check the parameters */
1985:../../lib/STM32F4xx_StdPeriph_Driver/src/stm32f4xx_rtc.c ****   assert_param(IS_RTC_TIMESTAMP_EDGE(RTC_TimeStampEdge));
1986:../../lib/STM32F4xx_StdPeriph_Driver/src/stm32f4xx_rtc.c ****   assert_param(IS_FUNCTIONAL_STATE(NewState));
1987:../../lib/STM32F4xx_StdPeriph_Driver/src/stm32f4xx_rtc.c **** 
1988:../../lib/STM32F4xx_StdPeriph_Driver/src/stm32f4xx_rtc.c ****   /* Get the RTC_CR register and clear the bits to be configured */
1989:../../lib/STM32F4xx_StdPeriph_Driver/src/stm32f4xx_rtc.c ****   tmpreg = (uint32_t)(RTC->CR & (uint32_t)~(RTC_CR_TSEDGE | RTC_CR_TSE));
1990:../../lib/STM32F4xx_StdPeriph_Driver/src/stm32f4xx_rtc.c **** 
1991:../../lib/STM32F4xx_StdPeriph_Driver/src/stm32f4xx_rtc.c ****   /* Get the new configuration */
1992:../../lib/STM32F4xx_StdPeriph_Driver/src/stm32f4xx_rtc.c ****   if (NewState != DISABLE)
1993:../../lib/STM32F4xx_StdPeriph_Driver/src/stm32f4xx_rtc.c ****   {
1994:../../lib/STM32F4xx_StdPeriph_Driver/src/stm32f4xx_rtc.c ****     tmpreg |= (uint32_t)(RTC_TimeStampEdge | RTC_CR_TSE);
1995:../../lib/STM32F4xx_StdPeriph_Driver/src/stm32f4xx_rtc.c ****   }
1996:../../lib/STM32F4xx_StdPeriph_Driver/src/stm32f4xx_rtc.c ****   else
1997:../../lib/STM32F4xx_StdPeriph_Driver/src/stm32f4xx_rtc.c ****   {
1998:../../lib/STM32F4xx_StdPeriph_Driver/src/stm32f4xx_rtc.c ****     tmpreg |= (uint32_t)(RTC_TimeStampEdge);
1999:../../lib/STM32F4xx_StdPeriph_Driver/src/stm32f4xx_rtc.c ****   }
2000:../../lib/STM32F4xx_StdPeriph_Driver/src/stm32f4xx_rtc.c **** 
2001:../../lib/STM32F4xx_StdPeriph_Driver/src/stm32f4xx_rtc.c ****   /* Disable the write protection for RTC registers */
2002:../../lib/STM32F4xx_StdPeriph_Driver/src/stm32f4xx_rtc.c ****   RTC->WPR = 0xCA;
2003:../../lib/STM32F4xx_StdPeriph_Driver/src/stm32f4xx_rtc.c ****   RTC->WPR = 0x53;
2004:../../lib/STM32F4xx_StdPeriph_Driver/src/stm32f4xx_rtc.c **** 
2005:../../lib/STM32F4xx_StdPeriph_Driver/src/stm32f4xx_rtc.c ****   /* Configure the Time Stamp TSEDGE and Enable bits */
2006:../../lib/STM32F4xx_StdPeriph_Driver/src/stm32f4xx_rtc.c ****   RTC->CR = (uint32_t)tmpreg;
2007:../../lib/STM32F4xx_StdPeriph_Driver/src/stm32f4xx_rtc.c **** 
2008:../../lib/STM32F4xx_StdPeriph_Driver/src/stm32f4xx_rtc.c ****   /* Enable the write protection for RTC registers */
2009:../../lib/STM32F4xx_StdPeriph_Driver/src/stm32f4xx_rtc.c ****   RTC->WPR = 0xFF; 
2010:../../lib/STM32F4xx_StdPeriph_Driver/src/stm32f4xx_rtc.c **** }
2011:../../lib/STM32F4xx_StdPeriph_Driver/src/stm32f4xx_rtc.c **** 
2012:../../lib/STM32F4xx_StdPeriph_Driver/src/stm32f4xx_rtc.c **** /**
2013:../../lib/STM32F4xx_StdPeriph_Driver/src/stm32f4xx_rtc.c ****   * @brief  Get the RTC TimeStamp value and masks.
2014:../../lib/STM32F4xx_StdPeriph_Driver/src/stm32f4xx_rtc.c ****   * @param  RTC_Format: specifies the format of the output parameters.
2015:../../lib/STM32F4xx_StdPeriph_Driver/src/stm32f4xx_rtc.c ****   *          This parameter can be one of the following values:
2016:../../lib/STM32F4xx_StdPeriph_Driver/src/stm32f4xx_rtc.c ****   *            @arg RTC_Format_BIN: Binary data format 
