   1              		.syntax unified
   2              		.cpu cortex-m4
   3              		.fpu softvfp
   4              		.eabi_attribute 23, 1
   5              		.eabi_attribute 24, 1
   6              		.eabi_attribute 25, 1
   7              		.eabi_attribute 26, 1
   8              		.eabi_attribute 30, 2
   9              		.eabi_attribute 34, 1
  10              		.eabi_attribute 18, 4
  11              		.thumb
  12              		.file	"stm32f4xx_flash.c"
  13              		.text
  14              	.Ltext0:
  15              		.cfi_sections	.debug_frame
  16              		.section	.text.FLASH_SetLatency,"ax",%progbits
  17              		.align	2
  18              		.global	FLASH_SetLatency
  19              		.thumb
  20              		.thumb_func
  22              	FLASH_SetLatency:
  23              	.LFB110:
  24              		.file 1 "../../lib/STM32F4xx_StdPeriph_Driver/src/stm32f4xx_flash.c"
   1:../../lib/STM32F4xx_StdPeriph_Driver/src/stm32f4xx_flash.c **** /**
   2:../../lib/STM32F4xx_StdPeriph_Driver/src/stm32f4xx_flash.c ****   ******************************************************************************
   3:../../lib/STM32F4xx_StdPeriph_Driver/src/stm32f4xx_flash.c ****   * @file    stm32f4xx_flash.c
   4:../../lib/STM32F4xx_StdPeriph_Driver/src/stm32f4xx_flash.c ****   * @author  MCD Application Team
   5:../../lib/STM32F4xx_StdPeriph_Driver/src/stm32f4xx_flash.c ****   * @version V1.0.2
   6:../../lib/STM32F4xx_StdPeriph_Driver/src/stm32f4xx_flash.c ****   * @date    05-March-2012
   7:../../lib/STM32F4xx_StdPeriph_Driver/src/stm32f4xx_flash.c ****   * @brief   This file provides firmware functions to manage the following 
   8:../../lib/STM32F4xx_StdPeriph_Driver/src/stm32f4xx_flash.c ****   *          functionalities of the FLASH peripheral:
   9:../../lib/STM32F4xx_StdPeriph_Driver/src/stm32f4xx_flash.c ****   *            - FLASH Interface configuration
  10:../../lib/STM32F4xx_StdPeriph_Driver/src/stm32f4xx_flash.c ****   *            - FLASH Memory Programming
  11:../../lib/STM32F4xx_StdPeriph_Driver/src/stm32f4xx_flash.c ****   *            - Option Bytes Programming
  12:../../lib/STM32F4xx_StdPeriph_Driver/src/stm32f4xx_flash.c ****   *            - Interrupts and flags management
  13:../../lib/STM32F4xx_StdPeriph_Driver/src/stm32f4xx_flash.c ****   *  
  14:../../lib/STM32F4xx_StdPeriph_Driver/src/stm32f4xx_flash.c ****   *  @verbatim
  15:../../lib/STM32F4xx_StdPeriph_Driver/src/stm32f4xx_flash.c ****   *  
  16:../../lib/STM32F4xx_StdPeriph_Driver/src/stm32f4xx_flash.c ****   *          ===================================================================
  17:../../lib/STM32F4xx_StdPeriph_Driver/src/stm32f4xx_flash.c ****   *                                 How to use this driver
  18:../../lib/STM32F4xx_StdPeriph_Driver/src/stm32f4xx_flash.c ****   *          ===================================================================
  19:../../lib/STM32F4xx_StdPeriph_Driver/src/stm32f4xx_flash.c ****   *                           
  20:../../lib/STM32F4xx_StdPeriph_Driver/src/stm32f4xx_flash.c ****   *          This driver provides functions to configure and program the FLASH 
  21:../../lib/STM32F4xx_StdPeriph_Driver/src/stm32f4xx_flash.c ****   *          memory of all STM32F4xx devices.
  22:../../lib/STM32F4xx_StdPeriph_Driver/src/stm32f4xx_flash.c ****   *          These functions are split in 4 groups:
  23:../../lib/STM32F4xx_StdPeriph_Driver/src/stm32f4xx_flash.c ****   * 
  24:../../lib/STM32F4xx_StdPeriph_Driver/src/stm32f4xx_flash.c ****   *           1. FLASH Interface configuration functions: this group includes the
  25:../../lib/STM32F4xx_StdPeriph_Driver/src/stm32f4xx_flash.c ****   *              management of the following features:
  26:../../lib/STM32F4xx_StdPeriph_Driver/src/stm32f4xx_flash.c ****   *                    - Set the latency
  27:../../lib/STM32F4xx_StdPeriph_Driver/src/stm32f4xx_flash.c ****   *                    - Enable/Disable the prefetch buffer
  28:../../lib/STM32F4xx_StdPeriph_Driver/src/stm32f4xx_flash.c ****   *                    - Enable/Disable the Instruction cache and the Data cache
  29:../../lib/STM32F4xx_StdPeriph_Driver/src/stm32f4xx_flash.c ****   *                    - Reset the Instruction cache and the Data cache
  30:../../lib/STM32F4xx_StdPeriph_Driver/src/stm32f4xx_flash.c ****   *  
  31:../../lib/STM32F4xx_StdPeriph_Driver/src/stm32f4xx_flash.c ****   *           2. FLASH Memory Programming functions: this group includes all needed
  32:../../lib/STM32F4xx_StdPeriph_Driver/src/stm32f4xx_flash.c ****   *              functions to erase and program the main memory:
  33:../../lib/STM32F4xx_StdPeriph_Driver/src/stm32f4xx_flash.c ****   *                    - Lock and Unlock the FLASH interface
  34:../../lib/STM32F4xx_StdPeriph_Driver/src/stm32f4xx_flash.c ****   *                    - Erase function: Erase sector, erase all sectors
  35:../../lib/STM32F4xx_StdPeriph_Driver/src/stm32f4xx_flash.c ****   *                    - Program functions: byte, half word, word and double word
  36:../../lib/STM32F4xx_StdPeriph_Driver/src/stm32f4xx_flash.c ****   *  
  37:../../lib/STM32F4xx_StdPeriph_Driver/src/stm32f4xx_flash.c ****   *           3. Option Bytes Programming functions: this group includes all needed
  38:../../lib/STM32F4xx_StdPeriph_Driver/src/stm32f4xx_flash.c ****   *              functions to manage the Option Bytes:
  39:../../lib/STM32F4xx_StdPeriph_Driver/src/stm32f4xx_flash.c ****   *                    - Set/Reset the write protection
  40:../../lib/STM32F4xx_StdPeriph_Driver/src/stm32f4xx_flash.c ****   *                    - Set the Read protection Level
  41:../../lib/STM32F4xx_StdPeriph_Driver/src/stm32f4xx_flash.c ****   *                    - Set the BOR level
  42:../../lib/STM32F4xx_StdPeriph_Driver/src/stm32f4xx_flash.c ****   *                    - Program the user Option Bytes
  43:../../lib/STM32F4xx_StdPeriph_Driver/src/stm32f4xx_flash.c ****   *                    - Launch the Option Bytes loader
  44:../../lib/STM32F4xx_StdPeriph_Driver/src/stm32f4xx_flash.c ****   *  
  45:../../lib/STM32F4xx_StdPeriph_Driver/src/stm32f4xx_flash.c ****   *           4. Interrupts and flags management functions: this group 
  46:../../lib/STM32F4xx_StdPeriph_Driver/src/stm32f4xx_flash.c ****   *              includes all needed functions to:
  47:../../lib/STM32F4xx_StdPeriph_Driver/src/stm32f4xx_flash.c ****   *                    - Enable/Disable the FLASH interrupt sources
  48:../../lib/STM32F4xx_StdPeriph_Driver/src/stm32f4xx_flash.c ****   *                    - Get flags status
  49:../../lib/STM32F4xx_StdPeriph_Driver/src/stm32f4xx_flash.c ****   *                    - Clear flags
  50:../../lib/STM32F4xx_StdPeriph_Driver/src/stm32f4xx_flash.c ****   *                    - Get FLASH operation status
  51:../../lib/STM32F4xx_StdPeriph_Driver/src/stm32f4xx_flash.c ****   *                    - Wait for last FLASH operation
  52:../../lib/STM32F4xx_StdPeriph_Driver/src/stm32f4xx_flash.c ****   * 
  53:../../lib/STM32F4xx_StdPeriph_Driver/src/stm32f4xx_flash.c ****   *  @endverbatim
  54:../../lib/STM32F4xx_StdPeriph_Driver/src/stm32f4xx_flash.c ****   *                      
  55:../../lib/STM32F4xx_StdPeriph_Driver/src/stm32f4xx_flash.c ****   ******************************************************************************
  56:../../lib/STM32F4xx_StdPeriph_Driver/src/stm32f4xx_flash.c ****   * @attention
  57:../../lib/STM32F4xx_StdPeriph_Driver/src/stm32f4xx_flash.c ****   *
  58:../../lib/STM32F4xx_StdPeriph_Driver/src/stm32f4xx_flash.c ****   * <h2><center>&copy; COPYRIGHT 2012 STMicroelectronics</center></h2>
  59:../../lib/STM32F4xx_StdPeriph_Driver/src/stm32f4xx_flash.c ****   *
  60:../../lib/STM32F4xx_StdPeriph_Driver/src/stm32f4xx_flash.c ****   * Licensed under MCD-ST Liberty SW License Agreement V2, (the "License");
  61:../../lib/STM32F4xx_StdPeriph_Driver/src/stm32f4xx_flash.c ****   * You may not use this file except in compliance with the License.
  62:../../lib/STM32F4xx_StdPeriph_Driver/src/stm32f4xx_flash.c ****   * You may obtain a copy of the License at:
  63:../../lib/STM32F4xx_StdPeriph_Driver/src/stm32f4xx_flash.c ****   *
  64:../../lib/STM32F4xx_StdPeriph_Driver/src/stm32f4xx_flash.c ****   *        http://www.st.com/software_license_agreement_liberty_v2
  65:../../lib/STM32F4xx_StdPeriph_Driver/src/stm32f4xx_flash.c ****   *
  66:../../lib/STM32F4xx_StdPeriph_Driver/src/stm32f4xx_flash.c ****   * Unless required by applicable law or agreed to in writing, software 
  67:../../lib/STM32F4xx_StdPeriph_Driver/src/stm32f4xx_flash.c ****   * distributed under the License is distributed on an "AS IS" BASIS, 
  68:../../lib/STM32F4xx_StdPeriph_Driver/src/stm32f4xx_flash.c ****   * WITHOUT WARRANTIES OR CONDITIONS OF ANY KIND, either express or implied.
  69:../../lib/STM32F4xx_StdPeriph_Driver/src/stm32f4xx_flash.c ****   * See the License for the specific language governing permissions and
  70:../../lib/STM32F4xx_StdPeriph_Driver/src/stm32f4xx_flash.c ****   * limitations under the License.
  71:../../lib/STM32F4xx_StdPeriph_Driver/src/stm32f4xx_flash.c ****   *
  72:../../lib/STM32F4xx_StdPeriph_Driver/src/stm32f4xx_flash.c ****   ******************************************************************************
  73:../../lib/STM32F4xx_StdPeriph_Driver/src/stm32f4xx_flash.c ****   */
  74:../../lib/STM32F4xx_StdPeriph_Driver/src/stm32f4xx_flash.c **** 
  75:../../lib/STM32F4xx_StdPeriph_Driver/src/stm32f4xx_flash.c **** /* Includes ------------------------------------------------------------------*/
  76:../../lib/STM32F4xx_StdPeriph_Driver/src/stm32f4xx_flash.c **** #include "stm32f4xx_flash.h"
  77:../../lib/STM32F4xx_StdPeriph_Driver/src/stm32f4xx_flash.c **** 
  78:../../lib/STM32F4xx_StdPeriph_Driver/src/stm32f4xx_flash.c **** /** @addtogroup STM32F4xx_StdPeriph_Driver
  79:../../lib/STM32F4xx_StdPeriph_Driver/src/stm32f4xx_flash.c ****   * @{
  80:../../lib/STM32F4xx_StdPeriph_Driver/src/stm32f4xx_flash.c ****   */
  81:../../lib/STM32F4xx_StdPeriph_Driver/src/stm32f4xx_flash.c **** 
  82:../../lib/STM32F4xx_StdPeriph_Driver/src/stm32f4xx_flash.c **** /** @defgroup FLASH 
  83:../../lib/STM32F4xx_StdPeriph_Driver/src/stm32f4xx_flash.c ****   * @brief FLASH driver modules
  84:../../lib/STM32F4xx_StdPeriph_Driver/src/stm32f4xx_flash.c ****   * @{
  85:../../lib/STM32F4xx_StdPeriph_Driver/src/stm32f4xx_flash.c ****   */ 
  86:../../lib/STM32F4xx_StdPeriph_Driver/src/stm32f4xx_flash.c **** 
  87:../../lib/STM32F4xx_StdPeriph_Driver/src/stm32f4xx_flash.c **** /* Private typedef -----------------------------------------------------------*/
  88:../../lib/STM32F4xx_StdPeriph_Driver/src/stm32f4xx_flash.c **** /* Private define ------------------------------------------------------------*/ 
  89:../../lib/STM32F4xx_StdPeriph_Driver/src/stm32f4xx_flash.c **** #define SECTOR_MASK               ((uint32_t)0xFFFFFF07)
  90:../../lib/STM32F4xx_StdPeriph_Driver/src/stm32f4xx_flash.c **** 
  91:../../lib/STM32F4xx_StdPeriph_Driver/src/stm32f4xx_flash.c **** /* Private macro -------------------------------------------------------------*/
  92:../../lib/STM32F4xx_StdPeriph_Driver/src/stm32f4xx_flash.c **** /* Private variables ---------------------------------------------------------*/
  93:../../lib/STM32F4xx_StdPeriph_Driver/src/stm32f4xx_flash.c **** /* Private function prototypes -----------------------------------------------*/
  94:../../lib/STM32F4xx_StdPeriph_Driver/src/stm32f4xx_flash.c **** /* Private functions ---------------------------------------------------------*/
  95:../../lib/STM32F4xx_StdPeriph_Driver/src/stm32f4xx_flash.c **** 
  96:../../lib/STM32F4xx_StdPeriph_Driver/src/stm32f4xx_flash.c **** /** @defgroup FLASH_Private_Functions
  97:../../lib/STM32F4xx_StdPeriph_Driver/src/stm32f4xx_flash.c ****   * @{
  98:../../lib/STM32F4xx_StdPeriph_Driver/src/stm32f4xx_flash.c ****   */ 
  99:../../lib/STM32F4xx_StdPeriph_Driver/src/stm32f4xx_flash.c **** 
 100:../../lib/STM32F4xx_StdPeriph_Driver/src/stm32f4xx_flash.c **** /** @defgroup FLASH_Group1 FLASH Interface configuration functions
 101:../../lib/STM32F4xx_StdPeriph_Driver/src/stm32f4xx_flash.c ****   *  @brief   FLASH Interface configuration functions 
 102:../../lib/STM32F4xx_StdPeriph_Driver/src/stm32f4xx_flash.c ****  *
 103:../../lib/STM32F4xx_StdPeriph_Driver/src/stm32f4xx_flash.c **** 
 104:../../lib/STM32F4xx_StdPeriph_Driver/src/stm32f4xx_flash.c **** @verbatim   
 105:../../lib/STM32F4xx_StdPeriph_Driver/src/stm32f4xx_flash.c ****  ===============================================================================
 106:../../lib/STM32F4xx_StdPeriph_Driver/src/stm32f4xx_flash.c ****                        FLASH Interface configuration functions
 107:../../lib/STM32F4xx_StdPeriph_Driver/src/stm32f4xx_flash.c ****  ===============================================================================
 108:../../lib/STM32F4xx_StdPeriph_Driver/src/stm32f4xx_flash.c **** 
 109:../../lib/STM32F4xx_StdPeriph_Driver/src/stm32f4xx_flash.c ****    This group includes the following functions:
 110:../../lib/STM32F4xx_StdPeriph_Driver/src/stm32f4xx_flash.c ****     - void FLASH_SetLatency(uint32_t FLASH_Latency)
 111:../../lib/STM32F4xx_StdPeriph_Driver/src/stm32f4xx_flash.c ****        To correctly read data from FLASH memory, the number of wait states (LATENCY) 
 112:../../lib/STM32F4xx_StdPeriph_Driver/src/stm32f4xx_flash.c ****        must be correctly programmed according to the frequency of the CPU clock 
 113:../../lib/STM32F4xx_StdPeriph_Driver/src/stm32f4xx_flash.c ****       (HCLK) and the supply voltage of the device.
 114:../../lib/STM32F4xx_StdPeriph_Driver/src/stm32f4xx_flash.c ****  +-------------------------------------------------------------------------------------+     
 115:../../lib/STM32F4xx_StdPeriph_Driver/src/stm32f4xx_flash.c ****  | Latency       |                HCLK clock frequency (MHz)                           |
 116:../../lib/STM32F4xx_StdPeriph_Driver/src/stm32f4xx_flash.c ****  |               |---------------------------------------------------------------------|     
 117:../../lib/STM32F4xx_StdPeriph_Driver/src/stm32f4xx_flash.c ****  |               | voltage range  | voltage range  | voltage range   | voltage range   |
 118:../../lib/STM32F4xx_StdPeriph_Driver/src/stm32f4xx_flash.c ****  |               | 2.7 V - 3.6 V  | 2.4 V - 2.7 V  | 2.1 V - 2.4 V   | 1.8 V - 2.1 V   |
 119:../../lib/STM32F4xx_StdPeriph_Driver/src/stm32f4xx_flash.c ****  |---------------|----------------|----------------|-----------------|-----------------|           
 120:../../lib/STM32F4xx_StdPeriph_Driver/src/stm32f4xx_flash.c ****  |0WS(1CPU cycle)|0 < HCLK <= 30  |0 < HCLK <= 24  |0 < HCLK <= 18   |0 < HCLK <= 16   |
 121:../../lib/STM32F4xx_StdPeriph_Driver/src/stm32f4xx_flash.c ****  |---------------|----------------|----------------|-----------------|-----------------|   
 122:../../lib/STM32F4xx_StdPeriph_Driver/src/stm32f4xx_flash.c ****  |1WS(2CPU cycle)|30 < HCLK <= 60 |24 < HCLK <= 48 |18 < HCLK <= 36  |16 < HCLK <= 32  | 
 123:../../lib/STM32F4xx_StdPeriph_Driver/src/stm32f4xx_flash.c ****  |---------------|----------------|----------------|-----------------|-----------------|   
 124:../../lib/STM32F4xx_StdPeriph_Driver/src/stm32f4xx_flash.c ****  |2WS(3CPU cycle)|60 < HCLK <= 90 |48 < HCLK <= 72 |36 < HCLK <= 54  |32 < HCLK <= 48  |
 125:../../lib/STM32F4xx_StdPeriph_Driver/src/stm32f4xx_flash.c ****  |---------------|----------------|----------------|-----------------|-----------------| 
 126:../../lib/STM32F4xx_StdPeriph_Driver/src/stm32f4xx_flash.c ****  |3WS(4CPU cycle)|90 < HCLK <= 120|72 < HCLK <= 96 |54 < HCLK <= 72  |48 < HCLK <= 64  |
 127:../../lib/STM32F4xx_StdPeriph_Driver/src/stm32f4xx_flash.c ****  |---------------|----------------|----------------|-----------------|-----------------| 
 128:../../lib/STM32F4xx_StdPeriph_Driver/src/stm32f4xx_flash.c ****  |4WS(5CPU cycle)|120< HCLK <= 150|96 < HCLK <= 120|72 < HCLK <= 90  |64 < HCLK <= 80  |
 129:../../lib/STM32F4xx_StdPeriph_Driver/src/stm32f4xx_flash.c ****  |---------------|----------------|----------------|-----------------|-----------------| 
 130:../../lib/STM32F4xx_StdPeriph_Driver/src/stm32f4xx_flash.c ****  |5WS(6CPU cycle)|120< HCLK <= 168|120< HCLK <= 144|90 < HCLK <= 108 |80 < HCLK <= 96  | 
 131:../../lib/STM32F4xx_StdPeriph_Driver/src/stm32f4xx_flash.c ****  |---------------|----------------|----------------|-----------------|-----------------| 
 132:../../lib/STM32F4xx_StdPeriph_Driver/src/stm32f4xx_flash.c ****  |6WS(7CPU cycle)|      NA        |144< HCLK <= 168|108 < HCLK <= 120|96 < HCLK <= 112 | 
 133:../../lib/STM32F4xx_StdPeriph_Driver/src/stm32f4xx_flash.c ****  |---------------|----------------|----------------|-----------------|-----------------| 
 134:../../lib/STM32F4xx_StdPeriph_Driver/src/stm32f4xx_flash.c ****  |7WS(8CPU cycle)|      NA        |      NA        |120 < HCLK <= 138|112 < HCLK <= 120| 
 135:../../lib/STM32F4xx_StdPeriph_Driver/src/stm32f4xx_flash.c ****  |***************|****************|****************|*****************|*****************|***********
 136:../../lib/STM32F4xx_StdPeriph_Driver/src/stm32f4xx_flash.c ****  |               | voltage range  | voltage range  | voltage range   | voltage range   | voltage ra
 137:../../lib/STM32F4xx_StdPeriph_Driver/src/stm32f4xx_flash.c ****  |               | 2.7 V - 3.6 V  | 2.4 V - 2.7 V  | 2.1 V - 2.4 V   | 1.8 V - 2.1 V   | with Exter
 138:../../lib/STM32F4xx_StdPeriph_Driver/src/stm32f4xx_flash.c ****  |---------------|----------------|----------------|-----------------|-----------------|-----------
 139:../../lib/STM32F4xx_StdPeriph_Driver/src/stm32f4xx_flash.c ****  |Max Parallelism|      x32       |               x16                |       x8        |          x
 140:../../lib/STM32F4xx_StdPeriph_Driver/src/stm32f4xx_flash.c ****  |---------------|----------------|----------------|-----------------|-----------------|-----------
 141:../../lib/STM32F4xx_StdPeriph_Driver/src/stm32f4xx_flash.c ****  |PSIZE[1:0]     |      10        |               01                 |       00        |           
 142:../../lib/STM32F4xx_StdPeriph_Driver/src/stm32f4xx_flash.c ****  +-------------------------------------------------------------------------------------------------
 143:../../lib/STM32F4xx_StdPeriph_Driver/src/stm32f4xx_flash.c ****    @note When VOS bit (in PWR_CR register) is reset to '0’, the maximum value of HCLK is 144 MHz.
 144:../../lib/STM32F4xx_StdPeriph_Driver/src/stm32f4xx_flash.c ****          You can use PWR_MainRegulatorModeConfig() function to set or reset this bit.
 145:../../lib/STM32F4xx_StdPeriph_Driver/src/stm32f4xx_flash.c ****              
 146:../../lib/STM32F4xx_StdPeriph_Driver/src/stm32f4xx_flash.c ****     - void FLASH_PrefetchBufferCmd(FunctionalState NewState)
 147:../../lib/STM32F4xx_StdPeriph_Driver/src/stm32f4xx_flash.c ****     - void FLASH_InstructionCacheCmd(FunctionalState NewState)
 148:../../lib/STM32F4xx_StdPeriph_Driver/src/stm32f4xx_flash.c ****     - void FLASH_DataCacheCmd(FunctionalState NewState)
 149:../../lib/STM32F4xx_StdPeriph_Driver/src/stm32f4xx_flash.c ****     - void FLASH_InstructionCacheReset(void)
 150:../../lib/STM32F4xx_StdPeriph_Driver/src/stm32f4xx_flash.c ****     - void FLASH_DataCacheReset(void)
 151:../../lib/STM32F4xx_StdPeriph_Driver/src/stm32f4xx_flash.c ****    
 152:../../lib/STM32F4xx_StdPeriph_Driver/src/stm32f4xx_flash.c ****    The unlock sequence is not needed for these functions.
 153:../../lib/STM32F4xx_StdPeriph_Driver/src/stm32f4xx_flash.c ****  
 154:../../lib/STM32F4xx_StdPeriph_Driver/src/stm32f4xx_flash.c **** @endverbatim
 155:../../lib/STM32F4xx_StdPeriph_Driver/src/stm32f4xx_flash.c ****   * @{
 156:../../lib/STM32F4xx_StdPeriph_Driver/src/stm32f4xx_flash.c ****   */
 157:../../lib/STM32F4xx_StdPeriph_Driver/src/stm32f4xx_flash.c ****  
 158:../../lib/STM32F4xx_StdPeriph_Driver/src/stm32f4xx_flash.c **** /**
 159:../../lib/STM32F4xx_StdPeriph_Driver/src/stm32f4xx_flash.c ****   * @brief  Sets the code latency value.
 160:../../lib/STM32F4xx_StdPeriph_Driver/src/stm32f4xx_flash.c ****   * @param  FLASH_Latency: specifies the FLASH Latency value.
 161:../../lib/STM32F4xx_StdPeriph_Driver/src/stm32f4xx_flash.c ****   *          This parameter can be one of the following values:
 162:../../lib/STM32F4xx_StdPeriph_Driver/src/stm32f4xx_flash.c ****   *            @arg FLASH_Latency_0: FLASH Zero Latency cycle
 163:../../lib/STM32F4xx_StdPeriph_Driver/src/stm32f4xx_flash.c ****   *            @arg FLASH_Latency_1: FLASH One Latency cycle
 164:../../lib/STM32F4xx_StdPeriph_Driver/src/stm32f4xx_flash.c ****   *            @arg FLASH_Latency_2: FLASH Two Latency cycles
 165:../../lib/STM32F4xx_StdPeriph_Driver/src/stm32f4xx_flash.c ****   *            @arg FLASH_Latency_3: FLASH Three Latency cycles
 166:../../lib/STM32F4xx_StdPeriph_Driver/src/stm32f4xx_flash.c ****   *            @arg FLASH_Latency_4: FLASH Four Latency cycles 
 167:../../lib/STM32F4xx_StdPeriph_Driver/src/stm32f4xx_flash.c ****   *            @arg FLASH_Latency_5: FLASH Five Latency cycles 
 168:../../lib/STM32F4xx_StdPeriph_Driver/src/stm32f4xx_flash.c ****   *            @arg FLASH_Latency_6: FLASH Six Latency cycles
 169:../../lib/STM32F4xx_StdPeriph_Driver/src/stm32f4xx_flash.c ****   *            @arg FLASH_Latency_7: FLASH Seven Latency cycles      
 170:../../lib/STM32F4xx_StdPeriph_Driver/src/stm32f4xx_flash.c ****   * @retval None
 171:../../lib/STM32F4xx_StdPeriph_Driver/src/stm32f4xx_flash.c ****   */
 172:../../lib/STM32F4xx_StdPeriph_Driver/src/stm32f4xx_flash.c **** void FLASH_SetLatency(uint32_t FLASH_Latency)
 173:../../lib/STM32F4xx_StdPeriph_Driver/src/stm32f4xx_flash.c **** {
  25              		.loc 1 173 0
  26              		.cfi_startproc
  27              		@ args = 0, pretend = 0, frame = 0
  28              		@ frame_needed = 0, uses_anonymous_args = 0
  29              		@ link register save eliminated.
  30              	.LVL0:
 174:../../lib/STM32F4xx_StdPeriph_Driver/src/stm32f4xx_flash.c ****   /* Check the parameters */
 175:../../lib/STM32F4xx_StdPeriph_Driver/src/stm32f4xx_flash.c ****   assert_param(IS_FLASH_LATENCY(FLASH_Latency));
 176:../../lib/STM32F4xx_StdPeriph_Driver/src/stm32f4xx_flash.c ****   
 177:../../lib/STM32F4xx_StdPeriph_Driver/src/stm32f4xx_flash.c ****   /* Perform Byte access to FLASH_ACR[8:0] to set the Latency value */
 178:../../lib/STM32F4xx_StdPeriph_Driver/src/stm32f4xx_flash.c ****   *(__IO uint8_t *)ACR_BYTE0_ADDRESS = (uint8_t)FLASH_Latency;
  31              		.loc 1 178 0
  32 0000 014B     		ldr	r3, .L2
  33 0002 1870     		strb	r0, [r3, #0]
  34 0004 7047     		bx	lr
  35              	.L3:
  36 0006 00BF     		.align	2
  37              	.L2:
  38 0008 003C0240 		.word	1073888256
  39              		.cfi_endproc
  40              	.LFE110:
  42              		.section	.text.FLASH_PrefetchBufferCmd,"ax",%progbits
  43              		.align	2
  44              		.global	FLASH_PrefetchBufferCmd
  45              		.thumb
  46              		.thumb_func
  48              	FLASH_PrefetchBufferCmd:
  49              	.LFB111:
 179:../../lib/STM32F4xx_StdPeriph_Driver/src/stm32f4xx_flash.c **** }
 180:../../lib/STM32F4xx_StdPeriph_Driver/src/stm32f4xx_flash.c **** 
 181:../../lib/STM32F4xx_StdPeriph_Driver/src/stm32f4xx_flash.c **** /**
 182:../../lib/STM32F4xx_StdPeriph_Driver/src/stm32f4xx_flash.c ****   * @brief  Enables or disables the Prefetch Buffer.
 183:../../lib/STM32F4xx_StdPeriph_Driver/src/stm32f4xx_flash.c ****   * @param  NewState: new state of the Prefetch Buffer.
 184:../../lib/STM32F4xx_StdPeriph_Driver/src/stm32f4xx_flash.c ****   *          This parameter  can be: ENABLE or DISABLE.
 185:../../lib/STM32F4xx_StdPeriph_Driver/src/stm32f4xx_flash.c ****   * @retval None
 186:../../lib/STM32F4xx_StdPeriph_Driver/src/stm32f4xx_flash.c ****   */
 187:../../lib/STM32F4xx_StdPeriph_Driver/src/stm32f4xx_flash.c **** void FLASH_PrefetchBufferCmd(FunctionalState NewState)
 188:../../lib/STM32F4xx_StdPeriph_Driver/src/stm32f4xx_flash.c **** {
  50              		.loc 1 188 0
  51              		.cfi_startproc
  52              		@ args = 0, pretend = 0, frame = 0
  53              		@ frame_needed = 0, uses_anonymous_args = 0
  54              		@ link register save eliminated.
  55              	.LVL1:
 189:../../lib/STM32F4xx_StdPeriph_Driver/src/stm32f4xx_flash.c ****   /* Check the parameters */
 190:../../lib/STM32F4xx_StdPeriph_Driver/src/stm32f4xx_flash.c ****   assert_param(IS_FUNCTIONAL_STATE(NewState));
 191:../../lib/STM32F4xx_StdPeriph_Driver/src/stm32f4xx_flash.c ****   
 192:../../lib/STM32F4xx_StdPeriph_Driver/src/stm32f4xx_flash.c ****   /* Enable or disable the Prefetch Buffer */
 193:../../lib/STM32F4xx_StdPeriph_Driver/src/stm32f4xx_flash.c ****   if(NewState != DISABLE)
 194:../../lib/STM32F4xx_StdPeriph_Driver/src/stm32f4xx_flash.c ****   {
 195:../../lib/STM32F4xx_StdPeriph_Driver/src/stm32f4xx_flash.c ****     FLASH->ACR |= FLASH_ACR_PRFTEN;
  56              		.loc 1 195 0
  57 0000 054B     		ldr	r3, .L9
  58 0002 1A68     		ldr	r2, [r3, #0]
 193:../../lib/STM32F4xx_StdPeriph_Driver/src/stm32f4xx_flash.c ****   if(NewState != DISABLE)
  59              		.loc 1 193 0
  60 0004 18B9     		cbnz	r0, .L8
 196:../../lib/STM32F4xx_StdPeriph_Driver/src/stm32f4xx_flash.c ****   }
 197:../../lib/STM32F4xx_StdPeriph_Driver/src/stm32f4xx_flash.c ****   else
 198:../../lib/STM32F4xx_StdPeriph_Driver/src/stm32f4xx_flash.c ****   {
 199:../../lib/STM32F4xx_StdPeriph_Driver/src/stm32f4xx_flash.c ****     FLASH->ACR &= (~FLASH_ACR_PRFTEN);
  61              		.loc 1 199 0
  62 0006 22F48072 		bic	r2, r2, #256
  63 000a 1A60     		str	r2, [r3, #0]
  64 000c 7047     		bx	lr
  65              	.L8:
 195:../../lib/STM32F4xx_StdPeriph_Driver/src/stm32f4xx_flash.c ****     FLASH->ACR |= FLASH_ACR_PRFTEN;
  66              		.loc 1 195 0
  67 000e 42F48072 		orr	r2, r2, #256
  68 0012 1A60     		str	r2, [r3, #0]
  69 0014 7047     		bx	lr
  70              	.L10:
  71 0016 00BF     		.align	2
  72              	.L9:
  73 0018 003C0240 		.word	1073888256
  74              		.cfi_endproc
  75              	.LFE111:
  77              		.section	.text.FLASH_InstructionCacheCmd,"ax",%progbits
  78              		.align	2
  79              		.global	FLASH_InstructionCacheCmd
  80              		.thumb
  81              		.thumb_func
  83              	FLASH_InstructionCacheCmd:
  84              	.LFB112:
 200:../../lib/STM32F4xx_StdPeriph_Driver/src/stm32f4xx_flash.c ****   }
 201:../../lib/STM32F4xx_StdPeriph_Driver/src/stm32f4xx_flash.c **** }
 202:../../lib/STM32F4xx_StdPeriph_Driver/src/stm32f4xx_flash.c **** 
 203:../../lib/STM32F4xx_StdPeriph_Driver/src/stm32f4xx_flash.c **** /**
 204:../../lib/STM32F4xx_StdPeriph_Driver/src/stm32f4xx_flash.c ****   * @brief  Enables or disables the Instruction Cache feature.
 205:../../lib/STM32F4xx_StdPeriph_Driver/src/stm32f4xx_flash.c ****   * @param  NewState: new state of the Instruction Cache.
 206:../../lib/STM32F4xx_StdPeriph_Driver/src/stm32f4xx_flash.c ****   *          This parameter  can be: ENABLE or DISABLE.
 207:../../lib/STM32F4xx_StdPeriph_Driver/src/stm32f4xx_flash.c ****   * @retval None
 208:../../lib/STM32F4xx_StdPeriph_Driver/src/stm32f4xx_flash.c ****   */
 209:../../lib/STM32F4xx_StdPeriph_Driver/src/stm32f4xx_flash.c **** void FLASH_InstructionCacheCmd(FunctionalState NewState)
 210:../../lib/STM32F4xx_StdPeriph_Driver/src/stm32f4xx_flash.c **** {
  85              		.loc 1 210 0
  86              		.cfi_startproc
  87              		@ args = 0, pretend = 0, frame = 0
  88              		@ frame_needed = 0, uses_anonymous_args = 0
  89              		@ link register save eliminated.
  90              	.LVL2:
 211:../../lib/STM32F4xx_StdPeriph_Driver/src/stm32f4xx_flash.c ****   /* Check the parameters */
 212:../../lib/STM32F4xx_StdPeriph_Driver/src/stm32f4xx_flash.c ****   assert_param(IS_FUNCTIONAL_STATE(NewState));
 213:../../lib/STM32F4xx_StdPeriph_Driver/src/stm32f4xx_flash.c ****   
 214:../../lib/STM32F4xx_StdPeriph_Driver/src/stm32f4xx_flash.c ****   if(NewState != DISABLE)
 215:../../lib/STM32F4xx_StdPeriph_Driver/src/stm32f4xx_flash.c ****   {
 216:../../lib/STM32F4xx_StdPeriph_Driver/src/stm32f4xx_flash.c ****     FLASH->ACR |= FLASH_ACR_ICEN;
  91              		.loc 1 216 0
  92 0000 054B     		ldr	r3, .L15
  93 0002 1A68     		ldr	r2, [r3, #0]
 214:../../lib/STM32F4xx_StdPeriph_Driver/src/stm32f4xx_flash.c ****   if(NewState != DISABLE)
  94              		.loc 1 214 0
  95 0004 18B9     		cbnz	r0, .L14
 217:../../lib/STM32F4xx_StdPeriph_Driver/src/stm32f4xx_flash.c ****   }
 218:../../lib/STM32F4xx_StdPeriph_Driver/src/stm32f4xx_flash.c ****   else
 219:../../lib/STM32F4xx_StdPeriph_Driver/src/stm32f4xx_flash.c ****   {
 220:../../lib/STM32F4xx_StdPeriph_Driver/src/stm32f4xx_flash.c ****     FLASH->ACR &= (~FLASH_ACR_ICEN);
  96              		.loc 1 220 0
  97 0006 22F40072 		bic	r2, r2, #512
  98 000a 1A60     		str	r2, [r3, #0]
  99 000c 7047     		bx	lr
 100              	.L14:
 216:../../lib/STM32F4xx_StdPeriph_Driver/src/stm32f4xx_flash.c ****     FLASH->ACR |= FLASH_ACR_ICEN;
 101              		.loc 1 216 0
 102 000e 42F40072 		orr	r2, r2, #512
 103 0012 1A60     		str	r2, [r3, #0]
 104 0014 7047     		bx	lr
 105              	.L16:
 106 0016 00BF     		.align	2
 107              	.L15:
 108 0018 003C0240 		.word	1073888256
 109              		.cfi_endproc
 110              	.LFE112:
 112              		.section	.text.FLASH_DataCacheCmd,"ax",%progbits
 113              		.align	2
 114              		.global	FLASH_DataCacheCmd
 115              		.thumb
 116              		.thumb_func
 118              	FLASH_DataCacheCmd:
 119              	.LFB113:
 221:../../lib/STM32F4xx_StdPeriph_Driver/src/stm32f4xx_flash.c ****   }
 222:../../lib/STM32F4xx_StdPeriph_Driver/src/stm32f4xx_flash.c **** }
 223:../../lib/STM32F4xx_StdPeriph_Driver/src/stm32f4xx_flash.c **** 
 224:../../lib/STM32F4xx_StdPeriph_Driver/src/stm32f4xx_flash.c **** /**
 225:../../lib/STM32F4xx_StdPeriph_Driver/src/stm32f4xx_flash.c ****   * @brief  Enables or disables the Data Cache feature.
 226:../../lib/STM32F4xx_StdPeriph_Driver/src/stm32f4xx_flash.c ****   * @param  NewState: new state of the Data Cache.
 227:../../lib/STM32F4xx_StdPeriph_Driver/src/stm32f4xx_flash.c ****   *          This parameter  can be: ENABLE or DISABLE.
 228:../../lib/STM32F4xx_StdPeriph_Driver/src/stm32f4xx_flash.c ****   * @retval None
 229:../../lib/STM32F4xx_StdPeriph_Driver/src/stm32f4xx_flash.c ****   */
 230:../../lib/STM32F4xx_StdPeriph_Driver/src/stm32f4xx_flash.c **** void FLASH_DataCacheCmd(FunctionalState NewState)
 231:../../lib/STM32F4xx_StdPeriph_Driver/src/stm32f4xx_flash.c **** {
 120              		.loc 1 231 0
 121              		.cfi_startproc
 122              		@ args = 0, pretend = 0, frame = 0
 123              		@ frame_needed = 0, uses_anonymous_args = 0
 124              		@ link register save eliminated.
 125              	.LVL3:
 232:../../lib/STM32F4xx_StdPeriph_Driver/src/stm32f4xx_flash.c ****   /* Check the parameters */
 233:../../lib/STM32F4xx_StdPeriph_Driver/src/stm32f4xx_flash.c ****   assert_param(IS_FUNCTIONAL_STATE(NewState));
 234:../../lib/STM32F4xx_StdPeriph_Driver/src/stm32f4xx_flash.c ****   
 235:../../lib/STM32F4xx_StdPeriph_Driver/src/stm32f4xx_flash.c ****   if(NewState != DISABLE)
 236:../../lib/STM32F4xx_StdPeriph_Driver/src/stm32f4xx_flash.c ****   {
 237:../../lib/STM32F4xx_StdPeriph_Driver/src/stm32f4xx_flash.c ****     FLASH->ACR |= FLASH_ACR_DCEN;
 126              		.loc 1 237 0
 127 0000 054B     		ldr	r3, .L21
 128 0002 1A68     		ldr	r2, [r3, #0]
 235:../../lib/STM32F4xx_StdPeriph_Driver/src/stm32f4xx_flash.c ****   if(NewState != DISABLE)
 129              		.loc 1 235 0
 130 0004 18B9     		cbnz	r0, .L20
 238:../../lib/STM32F4xx_StdPeriph_Driver/src/stm32f4xx_flash.c ****   }
 239:../../lib/STM32F4xx_StdPeriph_Driver/src/stm32f4xx_flash.c ****   else
 240:../../lib/STM32F4xx_StdPeriph_Driver/src/stm32f4xx_flash.c ****   {
 241:../../lib/STM32F4xx_StdPeriph_Driver/src/stm32f4xx_flash.c ****     FLASH->ACR &= (~FLASH_ACR_DCEN);
 131              		.loc 1 241 0
 132 0006 22F48062 		bic	r2, r2, #1024
 133 000a 1A60     		str	r2, [r3, #0]
 134 000c 7047     		bx	lr
 135              	.L20:
 237:../../lib/STM32F4xx_StdPeriph_Driver/src/stm32f4xx_flash.c ****     FLASH->ACR |= FLASH_ACR_DCEN;
 136              		.loc 1 237 0
 137 000e 42F48062 		orr	r2, r2, #1024
 138 0012 1A60     		str	r2, [r3, #0]
 139 0014 7047     		bx	lr
 140              	.L22:
 141 0016 00BF     		.align	2
 142              	.L21:
 143 0018 003C0240 		.word	1073888256
 144              		.cfi_endproc
 145              	.LFE113:
 147              		.section	.text.FLASH_InstructionCacheReset,"ax",%progbits
 148              		.align	2
 149              		.global	FLASH_InstructionCacheReset
 150              		.thumb
 151              		.thumb_func
 153              	FLASH_InstructionCacheReset:
 154              	.LFB114:
 242:../../lib/STM32F4xx_StdPeriph_Driver/src/stm32f4xx_flash.c ****   }
 243:../../lib/STM32F4xx_StdPeriph_Driver/src/stm32f4xx_flash.c **** }
 244:../../lib/STM32F4xx_StdPeriph_Driver/src/stm32f4xx_flash.c **** 
 245:../../lib/STM32F4xx_StdPeriph_Driver/src/stm32f4xx_flash.c **** /**
 246:../../lib/STM32F4xx_StdPeriph_Driver/src/stm32f4xx_flash.c ****   * @brief  Resets the Instruction Cache.
 247:../../lib/STM32F4xx_StdPeriph_Driver/src/stm32f4xx_flash.c ****   * @note   This function must be used only when the Instruction Cache is disabled.  
 248:../../lib/STM32F4xx_StdPeriph_Driver/src/stm32f4xx_flash.c ****   * @param  None
 249:../../lib/STM32F4xx_StdPeriph_Driver/src/stm32f4xx_flash.c ****   * @retval None
 250:../../lib/STM32F4xx_StdPeriph_Driver/src/stm32f4xx_flash.c ****   */
 251:../../lib/STM32F4xx_StdPeriph_Driver/src/stm32f4xx_flash.c **** void FLASH_InstructionCacheReset(void)
 252:../../lib/STM32F4xx_StdPeriph_Driver/src/stm32f4xx_flash.c **** {
 155              		.loc 1 252 0
 156              		.cfi_startproc
 157              		@ args = 0, pretend = 0, frame = 0
 158              		@ frame_needed = 0, uses_anonymous_args = 0
 159              		@ link register save eliminated.
 253:../../lib/STM32F4xx_StdPeriph_Driver/src/stm32f4xx_flash.c ****   FLASH->ACR |= FLASH_ACR_ICRST;
 160              		.loc 1 253 0
 161 0000 024B     		ldr	r3, .L24
 162 0002 1A68     		ldr	r2, [r3, #0]
 163 0004 42F40062 		orr	r2, r2, #2048
 164 0008 1A60     		str	r2, [r3, #0]
 165 000a 7047     		bx	lr
 166              	.L25:
 167              		.align	2
 168              	.L24:
 169 000c 003C0240 		.word	1073888256
 170              		.cfi_endproc
 171              	.LFE114:
 173              		.section	.text.FLASH_DataCacheReset,"ax",%progbits
 174              		.align	2
 175              		.global	FLASH_DataCacheReset
 176              		.thumb
 177              		.thumb_func
 179              	FLASH_DataCacheReset:
 180              	.LFB115:
 254:../../lib/STM32F4xx_StdPeriph_Driver/src/stm32f4xx_flash.c **** }
 255:../../lib/STM32F4xx_StdPeriph_Driver/src/stm32f4xx_flash.c **** 
 256:../../lib/STM32F4xx_StdPeriph_Driver/src/stm32f4xx_flash.c **** /**
 257:../../lib/STM32F4xx_StdPeriph_Driver/src/stm32f4xx_flash.c ****   * @brief  Resets the Data Cache.
 258:../../lib/STM32F4xx_StdPeriph_Driver/src/stm32f4xx_flash.c ****   * @note   This function must be used only when the Data Cache is disabled.  
 259:../../lib/STM32F4xx_StdPeriph_Driver/src/stm32f4xx_flash.c ****   * @param  None
 260:../../lib/STM32F4xx_StdPeriph_Driver/src/stm32f4xx_flash.c ****   * @retval None
 261:../../lib/STM32F4xx_StdPeriph_Driver/src/stm32f4xx_flash.c ****   */
 262:../../lib/STM32F4xx_StdPeriph_Driver/src/stm32f4xx_flash.c **** void FLASH_DataCacheReset(void)
 263:../../lib/STM32F4xx_StdPeriph_Driver/src/stm32f4xx_flash.c **** {
 181              		.loc 1 263 0
 182              		.cfi_startproc
 183              		@ args = 0, pretend = 0, frame = 0
 184              		@ frame_needed = 0, uses_anonymous_args = 0
 185              		@ link register save eliminated.
 264:../../lib/STM32F4xx_StdPeriph_Driver/src/stm32f4xx_flash.c ****   FLASH->ACR |= FLASH_ACR_DCRST;
 186              		.loc 1 264 0
 187 0000 024B     		ldr	r3, .L27
 188 0002 1A68     		ldr	r2, [r3, #0]
 189 0004 42F48052 		orr	r2, r2, #4096
 190 0008 1A60     		str	r2, [r3, #0]
 191 000a 7047     		bx	lr
 192              	.L28:
 193              		.align	2
 194              	.L27:
 195 000c 003C0240 		.word	1073888256
 196              		.cfi_endproc
 197              	.LFE115:
 199              		.section	.text.FLASH_Unlock,"ax",%progbits
 200              		.align	2
 201              		.global	FLASH_Unlock
 202              		.thumb
 203              		.thumb_func
 205              	FLASH_Unlock:
 206              	.LFB116:
 265:../../lib/STM32F4xx_StdPeriph_Driver/src/stm32f4xx_flash.c **** }
 266:../../lib/STM32F4xx_StdPeriph_Driver/src/stm32f4xx_flash.c **** 
 267:../../lib/STM32F4xx_StdPeriph_Driver/src/stm32f4xx_flash.c **** /**
 268:../../lib/STM32F4xx_StdPeriph_Driver/src/stm32f4xx_flash.c ****   * @}
 269:../../lib/STM32F4xx_StdPeriph_Driver/src/stm32f4xx_flash.c ****   */
 270:../../lib/STM32F4xx_StdPeriph_Driver/src/stm32f4xx_flash.c **** 
 271:../../lib/STM32F4xx_StdPeriph_Driver/src/stm32f4xx_flash.c **** /** @defgroup FLASH_Group2 FLASH Memory Programming functions
 272:../../lib/STM32F4xx_StdPeriph_Driver/src/stm32f4xx_flash.c ****  *  @brief   FLASH Memory Programming functions
 273:../../lib/STM32F4xx_StdPeriph_Driver/src/stm32f4xx_flash.c ****  *
 274:../../lib/STM32F4xx_StdPeriph_Driver/src/stm32f4xx_flash.c **** @verbatim   
 275:../../lib/STM32F4xx_StdPeriph_Driver/src/stm32f4xx_flash.c ****  ===============================================================================
 276:../../lib/STM32F4xx_StdPeriph_Driver/src/stm32f4xx_flash.c ****                       FLASH Memory Programming functions
 277:../../lib/STM32F4xx_StdPeriph_Driver/src/stm32f4xx_flash.c ****  ===============================================================================   
 278:../../lib/STM32F4xx_StdPeriph_Driver/src/stm32f4xx_flash.c **** 
 279:../../lib/STM32F4xx_StdPeriph_Driver/src/stm32f4xx_flash.c ****    This group includes the following functions:
 280:../../lib/STM32F4xx_StdPeriph_Driver/src/stm32f4xx_flash.c ****     - void FLASH_Unlock(void)
 281:../../lib/STM32F4xx_StdPeriph_Driver/src/stm32f4xx_flash.c ****     - void FLASH_Lock(void)
 282:../../lib/STM32F4xx_StdPeriph_Driver/src/stm32f4xx_flash.c ****     - FLASH_Status FLASH_EraseSector(uint32_t FLASH_Sector, uint8_t VoltageRange)
 283:../../lib/STM32F4xx_StdPeriph_Driver/src/stm32f4xx_flash.c ****     - FLASH_Status FLASH_EraseAllSectors(uint8_t VoltageRange)
 284:../../lib/STM32F4xx_StdPeriph_Driver/src/stm32f4xx_flash.c ****     - FLASH_Status FLASH_ProgramDoubleWord(uint32_t Address, uint64_t Data)
 285:../../lib/STM32F4xx_StdPeriph_Driver/src/stm32f4xx_flash.c ****     - FLASH_Status FLASH_ProgramWord(uint32_t Address, uint32_t Data)
 286:../../lib/STM32F4xx_StdPeriph_Driver/src/stm32f4xx_flash.c ****     - FLASH_Status FLASH_ProgramHalfWord(uint32_t Address, uint16_t Data)
 287:../../lib/STM32F4xx_StdPeriph_Driver/src/stm32f4xx_flash.c ****     - FLASH_Status FLASH_ProgramByte(uint32_t Address, uint8_t Data)
 288:../../lib/STM32F4xx_StdPeriph_Driver/src/stm32f4xx_flash.c ****    
 289:../../lib/STM32F4xx_StdPeriph_Driver/src/stm32f4xx_flash.c ****    Any operation of erase or program should follow these steps:
 290:../../lib/STM32F4xx_StdPeriph_Driver/src/stm32f4xx_flash.c ****    1. Call the FLASH_Unlock() function to enable the FLASH control register access
 291:../../lib/STM32F4xx_StdPeriph_Driver/src/stm32f4xx_flash.c **** 
 292:../../lib/STM32F4xx_StdPeriph_Driver/src/stm32f4xx_flash.c ****    2. Call the desired function to erase sector(s) or program data
 293:../../lib/STM32F4xx_StdPeriph_Driver/src/stm32f4xx_flash.c **** 
 294:../../lib/STM32F4xx_StdPeriph_Driver/src/stm32f4xx_flash.c ****    3. Call the FLASH_Lock() function to disable the FLASH control register access
 295:../../lib/STM32F4xx_StdPeriph_Driver/src/stm32f4xx_flash.c ****       (recommended to protect the FLASH memory against possible unwanted operation)
 296:../../lib/STM32F4xx_StdPeriph_Driver/src/stm32f4xx_flash.c ****     
 297:../../lib/STM32F4xx_StdPeriph_Driver/src/stm32f4xx_flash.c **** @endverbatim
 298:../../lib/STM32F4xx_StdPeriph_Driver/src/stm32f4xx_flash.c ****   * @{
 299:../../lib/STM32F4xx_StdPeriph_Driver/src/stm32f4xx_flash.c ****   */
 300:../../lib/STM32F4xx_StdPeriph_Driver/src/stm32f4xx_flash.c **** 
 301:../../lib/STM32F4xx_StdPeriph_Driver/src/stm32f4xx_flash.c **** /**
 302:../../lib/STM32F4xx_StdPeriph_Driver/src/stm32f4xx_flash.c ****   * @brief  Unlocks the FLASH control register access
 303:../../lib/STM32F4xx_StdPeriph_Driver/src/stm32f4xx_flash.c ****   * @param  None
 304:../../lib/STM32F4xx_StdPeriph_Driver/src/stm32f4xx_flash.c ****   * @retval None
 305:../../lib/STM32F4xx_StdPeriph_Driver/src/stm32f4xx_flash.c ****   */
 306:../../lib/STM32F4xx_StdPeriph_Driver/src/stm32f4xx_flash.c **** void FLASH_Unlock(void)
 307:../../lib/STM32F4xx_StdPeriph_Driver/src/stm32f4xx_flash.c **** {
 207              		.loc 1 307 0
 208              		.cfi_startproc
 209              		@ args = 0, pretend = 0, frame = 0
 210              		@ frame_needed = 0, uses_anonymous_args = 0
 211              		@ link register save eliminated.
 308:../../lib/STM32F4xx_StdPeriph_Driver/src/stm32f4xx_flash.c ****   if((FLASH->CR & FLASH_CR_LOCK) != RESET)
 212              		.loc 1 308 0
 213 0000 044B     		ldr	r3, .L31
 214 0002 1A69     		ldr	r2, [r3, #16]
 215 0004 002A     		cmp	r2, #0
 216 0006 04DA     		bge	.L29
 309:../../lib/STM32F4xx_StdPeriph_Driver/src/stm32f4xx_flash.c ****   {
 310:../../lib/STM32F4xx_StdPeriph_Driver/src/stm32f4xx_flash.c ****     /* Authorize the FLASH Registers access */
 311:../../lib/STM32F4xx_StdPeriph_Driver/src/stm32f4xx_flash.c ****     FLASH->KEYR = FLASH_KEY1;
 217              		.loc 1 311 0
 218 0008 034A     		ldr	r2, .L31+4
 219 000a 5A60     		str	r2, [r3, #4]
 312:../../lib/STM32F4xx_StdPeriph_Driver/src/stm32f4xx_flash.c ****     FLASH->KEYR = FLASH_KEY2;
 220              		.loc 1 312 0
 221 000c 02F18832 		add	r2, r2, #-2004318072
 222 0010 5A60     		str	r2, [r3, #4]
 223              	.L29:
 224 0012 7047     		bx	lr
 225              	.L32:
 226              		.align	2
 227              	.L31:
 228 0014 003C0240 		.word	1073888256
 229 0018 23016745 		.word	1164378403
 230              		.cfi_endproc
 231              	.LFE116:
 233              		.section	.text.FLASH_Lock,"ax",%progbits
 234              		.align	2
 235              		.global	FLASH_Lock
 236              		.thumb
 237              		.thumb_func
 239              	FLASH_Lock:
 240              	.LFB117:
 313:../../lib/STM32F4xx_StdPeriph_Driver/src/stm32f4xx_flash.c ****   }  
 314:../../lib/STM32F4xx_StdPeriph_Driver/src/stm32f4xx_flash.c **** }
 315:../../lib/STM32F4xx_StdPeriph_Driver/src/stm32f4xx_flash.c **** 
 316:../../lib/STM32F4xx_StdPeriph_Driver/src/stm32f4xx_flash.c **** /**
 317:../../lib/STM32F4xx_StdPeriph_Driver/src/stm32f4xx_flash.c ****   * @brief  Locks the FLASH control register access
 318:../../lib/STM32F4xx_StdPeriph_Driver/src/stm32f4xx_flash.c ****   * @param  None
 319:../../lib/STM32F4xx_StdPeriph_Driver/src/stm32f4xx_flash.c ****   * @retval None
 320:../../lib/STM32F4xx_StdPeriph_Driver/src/stm32f4xx_flash.c ****   */
 321:../../lib/STM32F4xx_StdPeriph_Driver/src/stm32f4xx_flash.c **** void FLASH_Lock(void)
 322:../../lib/STM32F4xx_StdPeriph_Driver/src/stm32f4xx_flash.c **** {
 241              		.loc 1 322 0
 242              		.cfi_startproc
 243              		@ args = 0, pretend = 0, frame = 0
 244              		@ frame_needed = 0, uses_anonymous_args = 0
 245              		@ link register save eliminated.
 323:../../lib/STM32F4xx_StdPeriph_Driver/src/stm32f4xx_flash.c ****   /* Set the LOCK Bit to lock the FLASH Registers access */
 324:../../lib/STM32F4xx_StdPeriph_Driver/src/stm32f4xx_flash.c ****   FLASH->CR |= FLASH_CR_LOCK;
 246              		.loc 1 324 0
 247 0000 024B     		ldr	r3, .L34
 248 0002 1A69     		ldr	r2, [r3, #16]
 249 0004 42F00042 		orr	r2, r2, #-2147483648
 250 0008 1A61     		str	r2, [r3, #16]
 251 000a 7047     		bx	lr
 252              	.L35:
 253              		.align	2
 254              	.L34:
 255 000c 003C0240 		.word	1073888256
 256              		.cfi_endproc
 257              	.LFE117:
 259              		.section	.text.FLASH_EraseSector,"ax",%progbits
 260              		.align	2
 261              		.global	FLASH_EraseSector
 262              		.thumb
 263              		.thumb_func
 265              	FLASH_EraseSector:
 266              	.LFB118:
 325:../../lib/STM32F4xx_StdPeriph_Driver/src/stm32f4xx_flash.c **** }
 326:../../lib/STM32F4xx_StdPeriph_Driver/src/stm32f4xx_flash.c **** 
 327:../../lib/STM32F4xx_StdPeriph_Driver/src/stm32f4xx_flash.c **** /**
 328:../../lib/STM32F4xx_StdPeriph_Driver/src/stm32f4xx_flash.c ****   * @brief  Erases a specified FLASH Sector.
 329:../../lib/STM32F4xx_StdPeriph_Driver/src/stm32f4xx_flash.c ****   *   
 330:../../lib/STM32F4xx_StdPeriph_Driver/src/stm32f4xx_flash.c ****   * @param  FLASH_Sector: The Sector number to be erased.
 331:../../lib/STM32F4xx_StdPeriph_Driver/src/stm32f4xx_flash.c ****   *          This parameter can be a value between FLASH_Sector_0 and FLASH_Sector_11
 332:../../lib/STM32F4xx_StdPeriph_Driver/src/stm32f4xx_flash.c ****   *    
 333:../../lib/STM32F4xx_StdPeriph_Driver/src/stm32f4xx_flash.c ****   * @param  VoltageRange: The device voltage range which defines the erase parallelism.  
 334:../../lib/STM32F4xx_StdPeriph_Driver/src/stm32f4xx_flash.c ****   *          This parameter can be one of the following values:
 335:../../lib/STM32F4xx_StdPeriph_Driver/src/stm32f4xx_flash.c ****   *            @arg VoltageRange_1: when the device voltage range is 1.8V to 2.1V, 
 336:../../lib/STM32F4xx_StdPeriph_Driver/src/stm32f4xx_flash.c ****   *                                  the operation will be done by byte (8-bit) 
 337:../../lib/STM32F4xx_StdPeriph_Driver/src/stm32f4xx_flash.c ****   *            @arg VoltageRange_2: when the device voltage range is 2.1V to 2.7V,
 338:../../lib/STM32F4xx_StdPeriph_Driver/src/stm32f4xx_flash.c ****   *                                  the operation will be done by half word (16-bit)
 339:../../lib/STM32F4xx_StdPeriph_Driver/src/stm32f4xx_flash.c ****   *            @arg VoltageRange_3: when the device voltage range is 2.7V to 3.6V,
 340:../../lib/STM32F4xx_StdPeriph_Driver/src/stm32f4xx_flash.c ****   *                                  the operation will be done by word (32-bit)
 341:../../lib/STM32F4xx_StdPeriph_Driver/src/stm32f4xx_flash.c ****   *            @arg VoltageRange_4: when the device voltage range is 2.7V to 3.6V + External Vpp, 
 342:../../lib/STM32F4xx_StdPeriph_Driver/src/stm32f4xx_flash.c ****   *                                  the operation will be done by double word (64-bit)
 343:../../lib/STM32F4xx_StdPeriph_Driver/src/stm32f4xx_flash.c ****   *       
 344:../../lib/STM32F4xx_StdPeriph_Driver/src/stm32f4xx_flash.c ****   * @retval FLASH Status: The returned value can be: FLASH_BUSY, FLASH_ERROR_PROGRAM,
 345:../../lib/STM32F4xx_StdPeriph_Driver/src/stm32f4xx_flash.c ****   *                       FLASH_ERROR_WRP, FLASH_ERROR_OPERATION or FLASH_COMPLETE.
 346:../../lib/STM32F4xx_StdPeriph_Driver/src/stm32f4xx_flash.c ****   */
 347:../../lib/STM32F4xx_StdPeriph_Driver/src/stm32f4xx_flash.c **** FLASH_Status FLASH_EraseSector(uint32_t FLASH_Sector, uint8_t VoltageRange)
 348:../../lib/STM32F4xx_StdPeriph_Driver/src/stm32f4xx_flash.c **** {
 267              		.loc 1 348 0
 268              		.cfi_startproc
 269              		@ args = 0, pretend = 0, frame = 8
 270              		@ frame_needed = 0, uses_anonymous_args = 0
 271              		@ link register save eliminated.
 272              	.LVL4:
 273 0000 10B4     		push	{r4}
 274              	.LCFI0:
 275              		.cfi_def_cfa_offset 4
 276              		.cfi_offset 4, -4
 277 0002 83B0     		sub	sp, sp, #12
 278              	.LCFI1:
 279              		.cfi_def_cfa_offset 16
 280              	.LVL5:
 281              		.loc 1 348 0
 282 0004 0446     		mov	r4, r0
 349:../../lib/STM32F4xx_StdPeriph_Driver/src/stm32f4xx_flash.c ****   uint32_t tmp_psize = 0x0;
 350:../../lib/STM32F4xx_StdPeriph_Driver/src/stm32f4xx_flash.c ****   FLASH_Status status = FLASH_COMPLETE;
 351:../../lib/STM32F4xx_StdPeriph_Driver/src/stm32f4xx_flash.c **** 
 352:../../lib/STM32F4xx_StdPeriph_Driver/src/stm32f4xx_flash.c ****   /* Check the parameters */
 353:../../lib/STM32F4xx_StdPeriph_Driver/src/stm32f4xx_flash.c ****   assert_param(IS_FLASH_SECTOR(FLASH_Sector));
 354:../../lib/STM32F4xx_StdPeriph_Driver/src/stm32f4xx_flash.c ****   assert_param(IS_VOLTAGERANGE(VoltageRange));
 355:../../lib/STM32F4xx_StdPeriph_Driver/src/stm32f4xx_flash.c ****   
 356:../../lib/STM32F4xx_StdPeriph_Driver/src/stm32f4xx_flash.c ****   if(VoltageRange == VoltageRange_1)
 283              		.loc 1 356 0
 284 0006 39B1     		cbz	r1, .L37
 357:../../lib/STM32F4xx_StdPeriph_Driver/src/stm32f4xx_flash.c ****   {
 358:../../lib/STM32F4xx_StdPeriph_Driver/src/stm32f4xx_flash.c ****      tmp_psize = FLASH_PSIZE_BYTE;
 359:../../lib/STM32F4xx_StdPeriph_Driver/src/stm32f4xx_flash.c ****   }
 360:../../lib/STM32F4xx_StdPeriph_Driver/src/stm32f4xx_flash.c ****   else if(VoltageRange == VoltageRange_2)
 285              		.loc 1 360 0
 286 0008 0129     		cmp	r1, #1
 287 000a 49D0     		beq	.L53
 361:../../lib/STM32F4xx_StdPeriph_Driver/src/stm32f4xx_flash.c ****   {
 362:../../lib/STM32F4xx_StdPeriph_Driver/src/stm32f4xx_flash.c ****     tmp_psize = FLASH_PSIZE_HALF_WORD;
 363:../../lib/STM32F4xx_StdPeriph_Driver/src/stm32f4xx_flash.c ****   }
 364:../../lib/STM32F4xx_StdPeriph_Driver/src/stm32f4xx_flash.c ****   else if(VoltageRange == VoltageRange_3)
 365:../../lib/STM32F4xx_StdPeriph_Driver/src/stm32f4xx_flash.c ****   {
 366:../../lib/STM32F4xx_StdPeriph_Driver/src/stm32f4xx_flash.c ****     tmp_psize = FLASH_PSIZE_WORD;
 288              		.loc 1 366 0
 289 000c 0229     		cmp	r1, #2
 290 000e 14BF     		ite	ne
 291 0010 4FF44071 		movne	r1, #768
 292 0014 4FF40071 		moveq	r1, #512
 293              	.LVL6:
 294              	.L37:
 295              	.LBB22:
 296              	.LBB23:
 297              	.LBB24:
 298              	.LBB25:
 367:../../lib/STM32F4xx_StdPeriph_Driver/src/stm32f4xx_flash.c ****   }
 368:../../lib/STM32F4xx_StdPeriph_Driver/src/stm32f4xx_flash.c ****   else
 369:../../lib/STM32F4xx_StdPeriph_Driver/src/stm32f4xx_flash.c ****   {
 370:../../lib/STM32F4xx_StdPeriph_Driver/src/stm32f4xx_flash.c ****     tmp_psize = FLASH_PSIZE_DOUBLE_WORD;
 371:../../lib/STM32F4xx_StdPeriph_Driver/src/stm32f4xx_flash.c ****   }
 372:../../lib/STM32F4xx_StdPeriph_Driver/src/stm32f4xx_flash.c ****   /* Wait for last operation to be completed */
 373:../../lib/STM32F4xx_StdPeriph_Driver/src/stm32f4xx_flash.c ****   status = FLASH_WaitForLastOperation();
 374:../../lib/STM32F4xx_StdPeriph_Driver/src/stm32f4xx_flash.c ****   
 375:../../lib/STM32F4xx_StdPeriph_Driver/src/stm32f4xx_flash.c ****   if(status == FLASH_COMPLETE)
 376:../../lib/STM32F4xx_StdPeriph_Driver/src/stm32f4xx_flash.c ****   { 
 377:../../lib/STM32F4xx_StdPeriph_Driver/src/stm32f4xx_flash.c ****     /* if the previous operation is completed, proceed to erase the sector */
 378:../../lib/STM32F4xx_StdPeriph_Driver/src/stm32f4xx_flash.c ****     FLASH->CR &= CR_PSIZE_MASK;
 379:../../lib/STM32F4xx_StdPeriph_Driver/src/stm32f4xx_flash.c ****     FLASH->CR |= tmp_psize;
 380:../../lib/STM32F4xx_StdPeriph_Driver/src/stm32f4xx_flash.c ****     FLASH->CR &= SECTOR_MASK;
 381:../../lib/STM32F4xx_StdPeriph_Driver/src/stm32f4xx_flash.c ****     FLASH->CR |= FLASH_CR_SER | FLASH_Sector;
 382:../../lib/STM32F4xx_StdPeriph_Driver/src/stm32f4xx_flash.c ****     FLASH->CR |= FLASH_CR_STRT;
 383:../../lib/STM32F4xx_StdPeriph_Driver/src/stm32f4xx_flash.c ****     
 384:../../lib/STM32F4xx_StdPeriph_Driver/src/stm32f4xx_flash.c ****     /* Wait for last operation to be completed */
 385:../../lib/STM32F4xx_StdPeriph_Driver/src/stm32f4xx_flash.c ****     status = FLASH_WaitForLastOperation();
 386:../../lib/STM32F4xx_StdPeriph_Driver/src/stm32f4xx_flash.c ****     
 387:../../lib/STM32F4xx_StdPeriph_Driver/src/stm32f4xx_flash.c ****     /* if the erase operation is completed, disable the SER Bit */
 388:../../lib/STM32F4xx_StdPeriph_Driver/src/stm32f4xx_flash.c ****     FLASH->CR &= (~FLASH_CR_SER);
 389:../../lib/STM32F4xx_StdPeriph_Driver/src/stm32f4xx_flash.c ****     FLASH->CR &= SECTOR_MASK; 
 390:../../lib/STM32F4xx_StdPeriph_Driver/src/stm32f4xx_flash.c ****   }
 391:../../lib/STM32F4xx_StdPeriph_Driver/src/stm32f4xx_flash.c ****   /* Return the Erase Status */
 392:../../lib/STM32F4xx_StdPeriph_Driver/src/stm32f4xx_flash.c ****   return status;
 393:../../lib/STM32F4xx_StdPeriph_Driver/src/stm32f4xx_flash.c **** }
 394:../../lib/STM32F4xx_StdPeriph_Driver/src/stm32f4xx_flash.c **** 
 395:../../lib/STM32F4xx_StdPeriph_Driver/src/stm32f4xx_flash.c **** /**
 396:../../lib/STM32F4xx_StdPeriph_Driver/src/stm32f4xx_flash.c ****   * @brief  Erases all FLASH Sectors.
 397:../../lib/STM32F4xx_StdPeriph_Driver/src/stm32f4xx_flash.c ****   *    
 398:../../lib/STM32F4xx_StdPeriph_Driver/src/stm32f4xx_flash.c ****   * @param  VoltageRange: The device voltage range which defines the erase parallelism.  
 399:../../lib/STM32F4xx_StdPeriph_Driver/src/stm32f4xx_flash.c ****   *          This parameter can be one of the following values:
 400:../../lib/STM32F4xx_StdPeriph_Driver/src/stm32f4xx_flash.c ****   *            @arg VoltageRange_1: when the device voltage range is 1.8V to 2.1V, 
 401:../../lib/STM32F4xx_StdPeriph_Driver/src/stm32f4xx_flash.c ****   *                                  the operation will be done by byte (8-bit) 
 402:../../lib/STM32F4xx_StdPeriph_Driver/src/stm32f4xx_flash.c ****   *            @arg VoltageRange_2: when the device voltage range is 2.1V to 2.7V,
 403:../../lib/STM32F4xx_StdPeriph_Driver/src/stm32f4xx_flash.c ****   *                                  the operation will be done by half word (16-bit)
 404:../../lib/STM32F4xx_StdPeriph_Driver/src/stm32f4xx_flash.c ****   *            @arg VoltageRange_3: when the device voltage range is 2.7V to 3.6V,
 405:../../lib/STM32F4xx_StdPeriph_Driver/src/stm32f4xx_flash.c ****   *                                  the operation will be done by word (32-bit)
 406:../../lib/STM32F4xx_StdPeriph_Driver/src/stm32f4xx_flash.c ****   *            @arg VoltageRange_4: when the device voltage range is 2.7V to 3.6V + External Vpp, 
 407:../../lib/STM32F4xx_StdPeriph_Driver/src/stm32f4xx_flash.c ****   *                                  the operation will be done by double word (64-bit)
 408:../../lib/STM32F4xx_StdPeriph_Driver/src/stm32f4xx_flash.c ****   *       
 409:../../lib/STM32F4xx_StdPeriph_Driver/src/stm32f4xx_flash.c ****   * @retval FLASH Status: The returned value can be: FLASH_BUSY, FLASH_ERROR_PROGRAM,
 410:../../lib/STM32F4xx_StdPeriph_Driver/src/stm32f4xx_flash.c ****   *                       FLASH_ERROR_WRP, FLASH_ERROR_OPERATION or FLASH_COMPLETE.
 411:../../lib/STM32F4xx_StdPeriph_Driver/src/stm32f4xx_flash.c ****   */
 412:../../lib/STM32F4xx_StdPeriph_Driver/src/stm32f4xx_flash.c **** FLASH_Status FLASH_EraseAllSectors(uint8_t VoltageRange)
 413:../../lib/STM32F4xx_StdPeriph_Driver/src/stm32f4xx_flash.c **** {
 414:../../lib/STM32F4xx_StdPeriph_Driver/src/stm32f4xx_flash.c ****   uint32_t tmp_psize = 0x0;
 415:../../lib/STM32F4xx_StdPeriph_Driver/src/stm32f4xx_flash.c ****   FLASH_Status status = FLASH_COMPLETE;
 416:../../lib/STM32F4xx_StdPeriph_Driver/src/stm32f4xx_flash.c ****   
 417:../../lib/STM32F4xx_StdPeriph_Driver/src/stm32f4xx_flash.c ****   /* Wait for last operation to be completed */
 418:../../lib/STM32F4xx_StdPeriph_Driver/src/stm32f4xx_flash.c ****   status = FLASH_WaitForLastOperation();
 419:../../lib/STM32F4xx_StdPeriph_Driver/src/stm32f4xx_flash.c ****   assert_param(IS_VOLTAGERANGE(VoltageRange));
 420:../../lib/STM32F4xx_StdPeriph_Driver/src/stm32f4xx_flash.c ****   
 421:../../lib/STM32F4xx_StdPeriph_Driver/src/stm32f4xx_flash.c ****   if(VoltageRange == VoltageRange_1)
 422:../../lib/STM32F4xx_StdPeriph_Driver/src/stm32f4xx_flash.c ****   {
 423:../../lib/STM32F4xx_StdPeriph_Driver/src/stm32f4xx_flash.c ****      tmp_psize = FLASH_PSIZE_BYTE;
 424:../../lib/STM32F4xx_StdPeriph_Driver/src/stm32f4xx_flash.c ****   }
 425:../../lib/STM32F4xx_StdPeriph_Driver/src/stm32f4xx_flash.c ****   else if(VoltageRange == VoltageRange_2)
 426:../../lib/STM32F4xx_StdPeriph_Driver/src/stm32f4xx_flash.c ****   {
 427:../../lib/STM32F4xx_StdPeriph_Driver/src/stm32f4xx_flash.c ****     tmp_psize = FLASH_PSIZE_HALF_WORD;
 428:../../lib/STM32F4xx_StdPeriph_Driver/src/stm32f4xx_flash.c ****   }
 429:../../lib/STM32F4xx_StdPeriph_Driver/src/stm32f4xx_flash.c ****   else if(VoltageRange == VoltageRange_3)
 430:../../lib/STM32F4xx_StdPeriph_Driver/src/stm32f4xx_flash.c ****   {
 431:../../lib/STM32F4xx_StdPeriph_Driver/src/stm32f4xx_flash.c ****     tmp_psize = FLASH_PSIZE_WORD;
 432:../../lib/STM32F4xx_StdPeriph_Driver/src/stm32f4xx_flash.c ****   }
 433:../../lib/STM32F4xx_StdPeriph_Driver/src/stm32f4xx_flash.c ****   else
 434:../../lib/STM32F4xx_StdPeriph_Driver/src/stm32f4xx_flash.c ****   {
 435:../../lib/STM32F4xx_StdPeriph_Driver/src/stm32f4xx_flash.c ****     tmp_psize = FLASH_PSIZE_DOUBLE_WORD;
 436:../../lib/STM32F4xx_StdPeriph_Driver/src/stm32f4xx_flash.c ****   }  
 437:../../lib/STM32F4xx_StdPeriph_Driver/src/stm32f4xx_flash.c ****   if(status == FLASH_COMPLETE)
 438:../../lib/STM32F4xx_StdPeriph_Driver/src/stm32f4xx_flash.c ****   {
 439:../../lib/STM32F4xx_StdPeriph_Driver/src/stm32f4xx_flash.c ****     /* if the previous operation is completed, proceed to erase all sectors */
 440:../../lib/STM32F4xx_StdPeriph_Driver/src/stm32f4xx_flash.c ****      FLASH->CR &= CR_PSIZE_MASK;
 441:../../lib/STM32F4xx_StdPeriph_Driver/src/stm32f4xx_flash.c ****      FLASH->CR |= tmp_psize;
 442:../../lib/STM32F4xx_StdPeriph_Driver/src/stm32f4xx_flash.c ****      FLASH->CR |= FLASH_CR_MER;
 443:../../lib/STM32F4xx_StdPeriph_Driver/src/stm32f4xx_flash.c ****      FLASH->CR |= FLASH_CR_STRT;
 444:../../lib/STM32F4xx_StdPeriph_Driver/src/stm32f4xx_flash.c ****     
 445:../../lib/STM32F4xx_StdPeriph_Driver/src/stm32f4xx_flash.c ****     /* Wait for last operation to be completed */
 446:../../lib/STM32F4xx_StdPeriph_Driver/src/stm32f4xx_flash.c ****     status = FLASH_WaitForLastOperation();
 447:../../lib/STM32F4xx_StdPeriph_Driver/src/stm32f4xx_flash.c **** 
 448:../../lib/STM32F4xx_StdPeriph_Driver/src/stm32f4xx_flash.c ****     /* if the erase operation is completed, disable the MER Bit */
 449:../../lib/STM32F4xx_StdPeriph_Driver/src/stm32f4xx_flash.c ****     FLASH->CR &= (~FLASH_CR_MER);
 450:../../lib/STM32F4xx_StdPeriph_Driver/src/stm32f4xx_flash.c **** 
 451:../../lib/STM32F4xx_StdPeriph_Driver/src/stm32f4xx_flash.c ****   }   
 452:../../lib/STM32F4xx_StdPeriph_Driver/src/stm32f4xx_flash.c ****   /* Return the Erase Status */
 453:../../lib/STM32F4xx_StdPeriph_Driver/src/stm32f4xx_flash.c ****   return status;
 454:../../lib/STM32F4xx_StdPeriph_Driver/src/stm32f4xx_flash.c **** }
 455:../../lib/STM32F4xx_StdPeriph_Driver/src/stm32f4xx_flash.c **** 
 456:../../lib/STM32F4xx_StdPeriph_Driver/src/stm32f4xx_flash.c **** /**
 457:../../lib/STM32F4xx_StdPeriph_Driver/src/stm32f4xx_flash.c ****   * @brief  Programs a double word (64-bit) at a specified address.
 458:../../lib/STM32F4xx_StdPeriph_Driver/src/stm32f4xx_flash.c ****   * @note   This function must be used when the device voltage range is from
 459:../../lib/STM32F4xx_StdPeriph_Driver/src/stm32f4xx_flash.c ****   *         2.7V to 3.6V and an External Vpp is present.           
 460:../../lib/STM32F4xx_StdPeriph_Driver/src/stm32f4xx_flash.c ****   * @param  Address: specifies the address to be programmed.
 461:../../lib/STM32F4xx_StdPeriph_Driver/src/stm32f4xx_flash.c ****   * @param  Data: specifies the data to be programmed.
 462:../../lib/STM32F4xx_StdPeriph_Driver/src/stm32f4xx_flash.c ****   * @retval FLASH Status: The returned value can be: FLASH_BUSY, FLASH_ERROR_PROGRAM,
 463:../../lib/STM32F4xx_StdPeriph_Driver/src/stm32f4xx_flash.c ****   *                       FLASH_ERROR_WRP, FLASH_ERROR_OPERATION or FLASH_COMPLETE.
 464:../../lib/STM32F4xx_StdPeriph_Driver/src/stm32f4xx_flash.c ****   */
 465:../../lib/STM32F4xx_StdPeriph_Driver/src/stm32f4xx_flash.c **** FLASH_Status FLASH_ProgramDoubleWord(uint32_t Address, uint64_t Data)
 466:../../lib/STM32F4xx_StdPeriph_Driver/src/stm32f4xx_flash.c **** {
 467:../../lib/STM32F4xx_StdPeriph_Driver/src/stm32f4xx_flash.c ****   FLASH_Status status = FLASH_COMPLETE;
 468:../../lib/STM32F4xx_StdPeriph_Driver/src/stm32f4xx_flash.c **** 
 469:../../lib/STM32F4xx_StdPeriph_Driver/src/stm32f4xx_flash.c ****   /* Check the parameters */
 470:../../lib/STM32F4xx_StdPeriph_Driver/src/stm32f4xx_flash.c ****   assert_param(IS_FLASH_ADDRESS(Address));
 471:../../lib/STM32F4xx_StdPeriph_Driver/src/stm32f4xx_flash.c **** 
 472:../../lib/STM32F4xx_StdPeriph_Driver/src/stm32f4xx_flash.c ****   /* Wait for last operation to be completed */
 473:../../lib/STM32F4xx_StdPeriph_Driver/src/stm32f4xx_flash.c ****   status = FLASH_WaitForLastOperation();
 474:../../lib/STM32F4xx_StdPeriph_Driver/src/stm32f4xx_flash.c ****   
 475:../../lib/STM32F4xx_StdPeriph_Driver/src/stm32f4xx_flash.c ****   if(status == FLASH_COMPLETE)
 476:../../lib/STM32F4xx_StdPeriph_Driver/src/stm32f4xx_flash.c ****   {
 477:../../lib/STM32F4xx_StdPeriph_Driver/src/stm32f4xx_flash.c ****     /* if the previous operation is completed, proceed to program the new data */
 478:../../lib/STM32F4xx_StdPeriph_Driver/src/stm32f4xx_flash.c ****     FLASH->CR &= CR_PSIZE_MASK;
 479:../../lib/STM32F4xx_StdPeriph_Driver/src/stm32f4xx_flash.c ****     FLASH->CR |= FLASH_PSIZE_DOUBLE_WORD;
 480:../../lib/STM32F4xx_StdPeriph_Driver/src/stm32f4xx_flash.c ****     FLASH->CR |= FLASH_CR_PG;
 481:../../lib/STM32F4xx_StdPeriph_Driver/src/stm32f4xx_flash.c ****   
 482:../../lib/STM32F4xx_StdPeriph_Driver/src/stm32f4xx_flash.c ****     *(__IO uint64_t*)Address = Data;
 483:../../lib/STM32F4xx_StdPeriph_Driver/src/stm32f4xx_flash.c ****         
 484:../../lib/STM32F4xx_StdPeriph_Driver/src/stm32f4xx_flash.c ****     /* Wait for last operation to be completed */
 485:../../lib/STM32F4xx_StdPeriph_Driver/src/stm32f4xx_flash.c ****     status = FLASH_WaitForLastOperation();
 486:../../lib/STM32F4xx_StdPeriph_Driver/src/stm32f4xx_flash.c **** 
 487:../../lib/STM32F4xx_StdPeriph_Driver/src/stm32f4xx_flash.c ****     /* if the program operation is completed, disable the PG Bit */
 488:../../lib/STM32F4xx_StdPeriph_Driver/src/stm32f4xx_flash.c ****     FLASH->CR &= (~FLASH_CR_PG);
 489:../../lib/STM32F4xx_StdPeriph_Driver/src/stm32f4xx_flash.c ****   } 
 490:../../lib/STM32F4xx_StdPeriph_Driver/src/stm32f4xx_flash.c ****   /* Return the Program Status */
 491:../../lib/STM32F4xx_StdPeriph_Driver/src/stm32f4xx_flash.c ****   return status;
 492:../../lib/STM32F4xx_StdPeriph_Driver/src/stm32f4xx_flash.c **** }
 493:../../lib/STM32F4xx_StdPeriph_Driver/src/stm32f4xx_flash.c **** 
 494:../../lib/STM32F4xx_StdPeriph_Driver/src/stm32f4xx_flash.c **** /**
 495:../../lib/STM32F4xx_StdPeriph_Driver/src/stm32f4xx_flash.c ****   * @brief  Programs a word (32-bit) at a specified address.
 496:../../lib/STM32F4xx_StdPeriph_Driver/src/stm32f4xx_flash.c ****   * @param  Address: specifies the address to be programmed.
 497:../../lib/STM32F4xx_StdPeriph_Driver/src/stm32f4xx_flash.c ****   *         This parameter can be any address in Program memory zone or in OTP zone.  
 498:../../lib/STM32F4xx_StdPeriph_Driver/src/stm32f4xx_flash.c ****   * @note   This function must be used when the device voltage range is from 2.7V to 3.6V. 
 499:../../lib/STM32F4xx_StdPeriph_Driver/src/stm32f4xx_flash.c ****   * @param  Data: specifies the data to be programmed.
 500:../../lib/STM32F4xx_StdPeriph_Driver/src/stm32f4xx_flash.c ****   * @retval FLASH Status: The returned value can be: FLASH_BUSY, FLASH_ERROR_PROGRAM,
 501:../../lib/STM32F4xx_StdPeriph_Driver/src/stm32f4xx_flash.c ****   *                       FLASH_ERROR_WRP, FLASH_ERROR_OPERATION or FLASH_COMPLETE.
 502:../../lib/STM32F4xx_StdPeriph_Driver/src/stm32f4xx_flash.c ****   */
 503:../../lib/STM32F4xx_StdPeriph_Driver/src/stm32f4xx_flash.c **** FLASH_Status FLASH_ProgramWord(uint32_t Address, uint32_t Data)
 504:../../lib/STM32F4xx_StdPeriph_Driver/src/stm32f4xx_flash.c **** {
 505:../../lib/STM32F4xx_StdPeriph_Driver/src/stm32f4xx_flash.c ****   FLASH_Status status = FLASH_COMPLETE;
 506:../../lib/STM32F4xx_StdPeriph_Driver/src/stm32f4xx_flash.c **** 
 507:../../lib/STM32F4xx_StdPeriph_Driver/src/stm32f4xx_flash.c ****   /* Check the parameters */
 508:../../lib/STM32F4xx_StdPeriph_Driver/src/stm32f4xx_flash.c ****   assert_param(IS_FLASH_ADDRESS(Address));
 509:../../lib/STM32F4xx_StdPeriph_Driver/src/stm32f4xx_flash.c **** 
 510:../../lib/STM32F4xx_StdPeriph_Driver/src/stm32f4xx_flash.c ****   /* Wait for last operation to be completed */
 511:../../lib/STM32F4xx_StdPeriph_Driver/src/stm32f4xx_flash.c ****   status = FLASH_WaitForLastOperation();
 512:../../lib/STM32F4xx_StdPeriph_Driver/src/stm32f4xx_flash.c ****   
 513:../../lib/STM32F4xx_StdPeriph_Driver/src/stm32f4xx_flash.c ****   if(status == FLASH_COMPLETE)
 514:../../lib/STM32F4xx_StdPeriph_Driver/src/stm32f4xx_flash.c ****   {
 515:../../lib/STM32F4xx_StdPeriph_Driver/src/stm32f4xx_flash.c ****     /* if the previous operation is completed, proceed to program the new data */
 516:../../lib/STM32F4xx_StdPeriph_Driver/src/stm32f4xx_flash.c ****     FLASH->CR &= CR_PSIZE_MASK;
 517:../../lib/STM32F4xx_StdPeriph_Driver/src/stm32f4xx_flash.c ****     FLASH->CR |= FLASH_PSIZE_WORD;
 518:../../lib/STM32F4xx_StdPeriph_Driver/src/stm32f4xx_flash.c ****     FLASH->CR |= FLASH_CR_PG;
 519:../../lib/STM32F4xx_StdPeriph_Driver/src/stm32f4xx_flash.c ****   
 520:../../lib/STM32F4xx_StdPeriph_Driver/src/stm32f4xx_flash.c ****     *(__IO uint32_t*)Address = Data;
 521:../../lib/STM32F4xx_StdPeriph_Driver/src/stm32f4xx_flash.c ****         
 522:../../lib/STM32F4xx_StdPeriph_Driver/src/stm32f4xx_flash.c ****     /* Wait for last operation to be completed */
 523:../../lib/STM32F4xx_StdPeriph_Driver/src/stm32f4xx_flash.c ****     status = FLASH_WaitForLastOperation();
 524:../../lib/STM32F4xx_StdPeriph_Driver/src/stm32f4xx_flash.c **** 
 525:../../lib/STM32F4xx_StdPeriph_Driver/src/stm32f4xx_flash.c ****     /* if the program operation is completed, disable the PG Bit */
 526:../../lib/STM32F4xx_StdPeriph_Driver/src/stm32f4xx_flash.c ****     FLASH->CR &= (~FLASH_CR_PG);
 527:../../lib/STM32F4xx_StdPeriph_Driver/src/stm32f4xx_flash.c ****   } 
 528:../../lib/STM32F4xx_StdPeriph_Driver/src/stm32f4xx_flash.c ****   /* Return the Program Status */
 529:../../lib/STM32F4xx_StdPeriph_Driver/src/stm32f4xx_flash.c ****   return status;
 530:../../lib/STM32F4xx_StdPeriph_Driver/src/stm32f4xx_flash.c **** }
 531:../../lib/STM32F4xx_StdPeriph_Driver/src/stm32f4xx_flash.c **** 
 532:../../lib/STM32F4xx_StdPeriph_Driver/src/stm32f4xx_flash.c **** /**
 533:../../lib/STM32F4xx_StdPeriph_Driver/src/stm32f4xx_flash.c ****   * @brief  Programs a half word (16-bit) at a specified address. 
 534:../../lib/STM32F4xx_StdPeriph_Driver/src/stm32f4xx_flash.c ****   * @note   This function must be used when the device voltage range is from 2.1V to 3.6V.         
 535:../../lib/STM32F4xx_StdPeriph_Driver/src/stm32f4xx_flash.c ****   * @param  Address: specifies the address to be programmed.
 536:../../lib/STM32F4xx_StdPeriph_Driver/src/stm32f4xx_flash.c ****   *         This parameter can be any address in Program memory zone or in OTP zone.  
 537:../../lib/STM32F4xx_StdPeriph_Driver/src/stm32f4xx_flash.c ****   * @param  Data: specifies the data to be programmed.
 538:../../lib/STM32F4xx_StdPeriph_Driver/src/stm32f4xx_flash.c ****   * @retval FLASH Status: The returned value can be: FLASH_BUSY, FLASH_ERROR_PROGRAM,
 539:../../lib/STM32F4xx_StdPeriph_Driver/src/stm32f4xx_flash.c ****   *                       FLASH_ERROR_WRP, FLASH_ERROR_OPERATION or FLASH_COMPLETE.
 540:../../lib/STM32F4xx_StdPeriph_Driver/src/stm32f4xx_flash.c ****   */
 541:../../lib/STM32F4xx_StdPeriph_Driver/src/stm32f4xx_flash.c **** FLASH_Status FLASH_ProgramHalfWord(uint32_t Address, uint16_t Data)
 542:../../lib/STM32F4xx_StdPeriph_Driver/src/stm32f4xx_flash.c **** {
 543:../../lib/STM32F4xx_StdPeriph_Driver/src/stm32f4xx_flash.c ****   FLASH_Status status = FLASH_COMPLETE;
 544:../../lib/STM32F4xx_StdPeriph_Driver/src/stm32f4xx_flash.c **** 
 545:../../lib/STM32F4xx_StdPeriph_Driver/src/stm32f4xx_flash.c ****   /* Check the parameters */
 546:../../lib/STM32F4xx_StdPeriph_Driver/src/stm32f4xx_flash.c ****   assert_param(IS_FLASH_ADDRESS(Address));
 547:../../lib/STM32F4xx_StdPeriph_Driver/src/stm32f4xx_flash.c **** 
 548:../../lib/STM32F4xx_StdPeriph_Driver/src/stm32f4xx_flash.c ****   /* Wait for last operation to be completed */
 549:../../lib/STM32F4xx_StdPeriph_Driver/src/stm32f4xx_flash.c ****   status = FLASH_WaitForLastOperation();
 550:../../lib/STM32F4xx_StdPeriph_Driver/src/stm32f4xx_flash.c ****   
 551:../../lib/STM32F4xx_StdPeriph_Driver/src/stm32f4xx_flash.c ****   if(status == FLASH_COMPLETE)
 552:../../lib/STM32F4xx_StdPeriph_Driver/src/stm32f4xx_flash.c ****   {
 553:../../lib/STM32F4xx_StdPeriph_Driver/src/stm32f4xx_flash.c ****     /* if the previous operation is completed, proceed to program the new data */
 554:../../lib/STM32F4xx_StdPeriph_Driver/src/stm32f4xx_flash.c ****     FLASH->CR &= CR_PSIZE_MASK;
 555:../../lib/STM32F4xx_StdPeriph_Driver/src/stm32f4xx_flash.c ****     FLASH->CR |= FLASH_PSIZE_HALF_WORD;
 556:../../lib/STM32F4xx_StdPeriph_Driver/src/stm32f4xx_flash.c ****     FLASH->CR |= FLASH_CR_PG;
 557:../../lib/STM32F4xx_StdPeriph_Driver/src/stm32f4xx_flash.c ****   
 558:../../lib/STM32F4xx_StdPeriph_Driver/src/stm32f4xx_flash.c ****     *(__IO uint16_t*)Address = Data;
 559:../../lib/STM32F4xx_StdPeriph_Driver/src/stm32f4xx_flash.c ****         
 560:../../lib/STM32F4xx_StdPeriph_Driver/src/stm32f4xx_flash.c ****     /* Wait for last operation to be completed */
 561:../../lib/STM32F4xx_StdPeriph_Driver/src/stm32f4xx_flash.c ****     status = FLASH_WaitForLastOperation();
 562:../../lib/STM32F4xx_StdPeriph_Driver/src/stm32f4xx_flash.c **** 
 563:../../lib/STM32F4xx_StdPeriph_Driver/src/stm32f4xx_flash.c ****     /* if the program operation is completed, disable the PG Bit */
 564:../../lib/STM32F4xx_StdPeriph_Driver/src/stm32f4xx_flash.c ****     FLASH->CR &= (~FLASH_CR_PG);
 565:../../lib/STM32F4xx_StdPeriph_Driver/src/stm32f4xx_flash.c ****   } 
 566:../../lib/STM32F4xx_StdPeriph_Driver/src/stm32f4xx_flash.c ****   /* Return the Program Status */
 567:../../lib/STM32F4xx_StdPeriph_Driver/src/stm32f4xx_flash.c ****   return status;
 568:../../lib/STM32F4xx_StdPeriph_Driver/src/stm32f4xx_flash.c **** }
 569:../../lib/STM32F4xx_StdPeriph_Driver/src/stm32f4xx_flash.c **** 
 570:../../lib/STM32F4xx_StdPeriph_Driver/src/stm32f4xx_flash.c **** /**
 571:../../lib/STM32F4xx_StdPeriph_Driver/src/stm32f4xx_flash.c ****   * @brief  Programs a byte (8-bit) at a specified address.
 572:../../lib/STM32F4xx_StdPeriph_Driver/src/stm32f4xx_flash.c ****   * @note   This function can be used within all the device supply voltage ranges.               
 573:../../lib/STM32F4xx_StdPeriph_Driver/src/stm32f4xx_flash.c ****   * @param  Address: specifies the address to be programmed.
 574:../../lib/STM32F4xx_StdPeriph_Driver/src/stm32f4xx_flash.c ****   *         This parameter can be any address in Program memory zone or in OTP zone.  
 575:../../lib/STM32F4xx_StdPeriph_Driver/src/stm32f4xx_flash.c ****   * @param  Data: specifies the data to be programmed.
 576:../../lib/STM32F4xx_StdPeriph_Driver/src/stm32f4xx_flash.c ****   * @retval FLASH Status: The returned value can be: FLASH_BUSY, FLASH_ERROR_PROGRAM,
 577:../../lib/STM32F4xx_StdPeriph_Driver/src/stm32f4xx_flash.c ****   *                       FLASH_ERROR_WRP, FLASH_ERROR_OPERATION or FLASH_COMPLETE.
 578:../../lib/STM32F4xx_StdPeriph_Driver/src/stm32f4xx_flash.c ****   */
 579:../../lib/STM32F4xx_StdPeriph_Driver/src/stm32f4xx_flash.c **** FLASH_Status FLASH_ProgramByte(uint32_t Address, uint8_t Data)
 580:../../lib/STM32F4xx_StdPeriph_Driver/src/stm32f4xx_flash.c **** {
 581:../../lib/STM32F4xx_StdPeriph_Driver/src/stm32f4xx_flash.c ****   FLASH_Status status = FLASH_COMPLETE;
 582:../../lib/STM32F4xx_StdPeriph_Driver/src/stm32f4xx_flash.c **** 
 583:../../lib/STM32F4xx_StdPeriph_Driver/src/stm32f4xx_flash.c ****   /* Check the parameters */
 584:../../lib/STM32F4xx_StdPeriph_Driver/src/stm32f4xx_flash.c ****   assert_param(IS_FLASH_ADDRESS(Address));
 585:../../lib/STM32F4xx_StdPeriph_Driver/src/stm32f4xx_flash.c **** 
 586:../../lib/STM32F4xx_StdPeriph_Driver/src/stm32f4xx_flash.c ****   /* Wait for last operation to be completed */
 587:../../lib/STM32F4xx_StdPeriph_Driver/src/stm32f4xx_flash.c ****   status = FLASH_WaitForLastOperation();
 588:../../lib/STM32F4xx_StdPeriph_Driver/src/stm32f4xx_flash.c ****   
 589:../../lib/STM32F4xx_StdPeriph_Driver/src/stm32f4xx_flash.c ****   if(status == FLASH_COMPLETE)
 590:../../lib/STM32F4xx_StdPeriph_Driver/src/stm32f4xx_flash.c ****   {
 591:../../lib/STM32F4xx_StdPeriph_Driver/src/stm32f4xx_flash.c ****     /* if the previous operation is completed, proceed to program the new data */
 592:../../lib/STM32F4xx_StdPeriph_Driver/src/stm32f4xx_flash.c ****     FLASH->CR &= CR_PSIZE_MASK;
 593:../../lib/STM32F4xx_StdPeriph_Driver/src/stm32f4xx_flash.c ****     FLASH->CR |= FLASH_PSIZE_BYTE;
 594:../../lib/STM32F4xx_StdPeriph_Driver/src/stm32f4xx_flash.c ****     FLASH->CR |= FLASH_CR_PG;
 595:../../lib/STM32F4xx_StdPeriph_Driver/src/stm32f4xx_flash.c ****   
 596:../../lib/STM32F4xx_StdPeriph_Driver/src/stm32f4xx_flash.c ****     *(__IO uint8_t*)Address = Data;
 597:../../lib/STM32F4xx_StdPeriph_Driver/src/stm32f4xx_flash.c ****         
 598:../../lib/STM32F4xx_StdPeriph_Driver/src/stm32f4xx_flash.c ****     /* Wait for last operation to be completed */
 599:../../lib/STM32F4xx_StdPeriph_Driver/src/stm32f4xx_flash.c ****     status = FLASH_WaitForLastOperation();
 600:../../lib/STM32F4xx_StdPeriph_Driver/src/stm32f4xx_flash.c **** 
 601:../../lib/STM32F4xx_StdPeriph_Driver/src/stm32f4xx_flash.c ****     /* if the program operation is completed, disable the PG Bit */
 602:../../lib/STM32F4xx_StdPeriph_Driver/src/stm32f4xx_flash.c ****     FLASH->CR &= (~FLASH_CR_PG);
 603:../../lib/STM32F4xx_StdPeriph_Driver/src/stm32f4xx_flash.c ****   } 
 604:../../lib/STM32F4xx_StdPeriph_Driver/src/stm32f4xx_flash.c **** 
 605:../../lib/STM32F4xx_StdPeriph_Driver/src/stm32f4xx_flash.c ****   /* Return the Program Status */
 606:../../lib/STM32F4xx_StdPeriph_Driver/src/stm32f4xx_flash.c ****   return status;
 607:../../lib/STM32F4xx_StdPeriph_Driver/src/stm32f4xx_flash.c **** }
 608:../../lib/STM32F4xx_StdPeriph_Driver/src/stm32f4xx_flash.c **** 
 609:../../lib/STM32F4xx_StdPeriph_Driver/src/stm32f4xx_flash.c **** /**
 610:../../lib/STM32F4xx_StdPeriph_Driver/src/stm32f4xx_flash.c ****   * @}
 611:../../lib/STM32F4xx_StdPeriph_Driver/src/stm32f4xx_flash.c ****   */
 612:../../lib/STM32F4xx_StdPeriph_Driver/src/stm32f4xx_flash.c **** 
 613:../../lib/STM32F4xx_StdPeriph_Driver/src/stm32f4xx_flash.c **** /** @defgroup FLASH_Group3 Option Bytes Programming functions
 614:../../lib/STM32F4xx_StdPeriph_Driver/src/stm32f4xx_flash.c ****  *  @brief   Option Bytes Programming functions 
 615:../../lib/STM32F4xx_StdPeriph_Driver/src/stm32f4xx_flash.c ****  *
 616:../../lib/STM32F4xx_StdPeriph_Driver/src/stm32f4xx_flash.c **** @verbatim   
 617:../../lib/STM32F4xx_StdPeriph_Driver/src/stm32f4xx_flash.c ****  ===============================================================================
 618:../../lib/STM32F4xx_StdPeriph_Driver/src/stm32f4xx_flash.c ****                         Option Bytes Programming functions
 619:../../lib/STM32F4xx_StdPeriph_Driver/src/stm32f4xx_flash.c ****  ===============================================================================  
 620:../../lib/STM32F4xx_StdPeriph_Driver/src/stm32f4xx_flash.c ****  
 621:../../lib/STM32F4xx_StdPeriph_Driver/src/stm32f4xx_flash.c ****    This group includes the following functions:
 622:../../lib/STM32F4xx_StdPeriph_Driver/src/stm32f4xx_flash.c ****    - void FLASH_OB_Unlock(void)
 623:../../lib/STM32F4xx_StdPeriph_Driver/src/stm32f4xx_flash.c ****    - void FLASH_OB_Lock(void)
 624:../../lib/STM32F4xx_StdPeriph_Driver/src/stm32f4xx_flash.c ****    - void FLASH_OB_WRPConfig(uint32_t OB_WRP, FunctionalState NewState)
 625:../../lib/STM32F4xx_StdPeriph_Driver/src/stm32f4xx_flash.c ****    - void FLASH_OB_RDPConfig(uint8_t OB_RDP)
 626:../../lib/STM32F4xx_StdPeriph_Driver/src/stm32f4xx_flash.c ****    - void FLASH_OB_UserConfig(uint8_t OB_IWDG, uint8_t OB_STOP, uint8_t OB_STDBY)
 627:../../lib/STM32F4xx_StdPeriph_Driver/src/stm32f4xx_flash.c ****    - void FLASH_OB_BORConfig(uint8_t OB_BOR)
 628:../../lib/STM32F4xx_StdPeriph_Driver/src/stm32f4xx_flash.c ****    - FLASH_Status FLASH_ProgramOTP(uint32_t Address, uint32_t Data)							
 629:../../lib/STM32F4xx_StdPeriph_Driver/src/stm32f4xx_flash.c ****    - FLASH_Status FLASH_OB_Launch(void)
 630:../../lib/STM32F4xx_StdPeriph_Driver/src/stm32f4xx_flash.c ****    - uint32_t FLASH_OB_GetUser(void)						
 631:../../lib/STM32F4xx_StdPeriph_Driver/src/stm32f4xx_flash.c ****    - uint8_t FLASH_OB_GetWRP(void)						
 632:../../lib/STM32F4xx_StdPeriph_Driver/src/stm32f4xx_flash.c ****    - uint8_t FLASH_OB_GetRDP(void)							
 633:../../lib/STM32F4xx_StdPeriph_Driver/src/stm32f4xx_flash.c ****    - uint8_t FLASH_OB_GetBOR(void)
 634:../../lib/STM32F4xx_StdPeriph_Driver/src/stm32f4xx_flash.c ****    
 635:../../lib/STM32F4xx_StdPeriph_Driver/src/stm32f4xx_flash.c ****    Any operation of erase or program should follow these steps:
 636:../../lib/STM32F4xx_StdPeriph_Driver/src/stm32f4xx_flash.c ****    1. Call the FLASH_OB_Unlock() function to enable the FLASH option control register access
 637:../../lib/STM32F4xx_StdPeriph_Driver/src/stm32f4xx_flash.c **** 
 638:../../lib/STM32F4xx_StdPeriph_Driver/src/stm32f4xx_flash.c ****    2. Call one or several functions to program the desired Option Bytes:
 639:../../lib/STM32F4xx_StdPeriph_Driver/src/stm32f4xx_flash.c ****       - void FLASH_OB_WRPConfig(uint32_t OB_WRP, FunctionalState NewState) => to Enable/Disable 
 640:../../lib/STM32F4xx_StdPeriph_Driver/src/stm32f4xx_flash.c ****         the desired sector write protection
 641:../../lib/STM32F4xx_StdPeriph_Driver/src/stm32f4xx_flash.c ****       - void FLASH_OB_RDPConfig(uint8_t OB_RDP) => to set the desired read Protection Level
 642:../../lib/STM32F4xx_StdPeriph_Driver/src/stm32f4xx_flash.c ****       - void FLASH_OB_UserConfig(uint8_t OB_IWDG, uint8_t OB_STOP, uint8_t OB_STDBY) => to configur
 643:../../lib/STM32F4xx_StdPeriph_Driver/src/stm32f4xx_flash.c ****         the user Option Bytes.
 644:../../lib/STM32F4xx_StdPeriph_Driver/src/stm32f4xx_flash.c ****       - void FLASH_OB_BORConfig(uint8_t OB_BOR) => to set the BOR Level 			 
 645:../../lib/STM32F4xx_StdPeriph_Driver/src/stm32f4xx_flash.c **** 
 646:../../lib/STM32F4xx_StdPeriph_Driver/src/stm32f4xx_flash.c ****    3. Once all needed Option Bytes to be programmed are correctly written, call the
 647:../../lib/STM32F4xx_StdPeriph_Driver/src/stm32f4xx_flash.c ****       FLASH_OB_Launch() function to launch the Option Bytes programming process.
 648:../../lib/STM32F4xx_StdPeriph_Driver/src/stm32f4xx_flash.c ****      
 649:../../lib/STM32F4xx_StdPeriph_Driver/src/stm32f4xx_flash.c ****      @note When changing the IWDG mode from HW to SW or from SW to HW, a system 
 650:../../lib/STM32F4xx_StdPeriph_Driver/src/stm32f4xx_flash.c ****            reset is needed to make the change effective.  
 651:../../lib/STM32F4xx_StdPeriph_Driver/src/stm32f4xx_flash.c **** 
 652:../../lib/STM32F4xx_StdPeriph_Driver/src/stm32f4xx_flash.c ****    4. Call the FLASH_OB_Lock() function to disable the FLASH option control register
 653:../../lib/STM32F4xx_StdPeriph_Driver/src/stm32f4xx_flash.c ****       access (recommended to protect the Option Bytes against possible unwanted operations)
 654:../../lib/STM32F4xx_StdPeriph_Driver/src/stm32f4xx_flash.c ****     
 655:../../lib/STM32F4xx_StdPeriph_Driver/src/stm32f4xx_flash.c **** @endverbatim
 656:../../lib/STM32F4xx_StdPeriph_Driver/src/stm32f4xx_flash.c ****   * @{
 657:../../lib/STM32F4xx_StdPeriph_Driver/src/stm32f4xx_flash.c ****   */
 658:../../lib/STM32F4xx_StdPeriph_Driver/src/stm32f4xx_flash.c **** 
 659:../../lib/STM32F4xx_StdPeriph_Driver/src/stm32f4xx_flash.c **** /**
 660:../../lib/STM32F4xx_StdPeriph_Driver/src/stm32f4xx_flash.c ****   * @brief  Unlocks the FLASH Option Control Registers access.
 661:../../lib/STM32F4xx_StdPeriph_Driver/src/stm32f4xx_flash.c ****   * @param  None
 662:../../lib/STM32F4xx_StdPeriph_Driver/src/stm32f4xx_flash.c ****   * @retval None
 663:../../lib/STM32F4xx_StdPeriph_Driver/src/stm32f4xx_flash.c ****   */
 664:../../lib/STM32F4xx_StdPeriph_Driver/src/stm32f4xx_flash.c **** void FLASH_OB_Unlock(void)
 665:../../lib/STM32F4xx_StdPeriph_Driver/src/stm32f4xx_flash.c **** {
 666:../../lib/STM32F4xx_StdPeriph_Driver/src/stm32f4xx_flash.c ****   if((FLASH->OPTCR & FLASH_OPTCR_OPTLOCK) != RESET)
 667:../../lib/STM32F4xx_StdPeriph_Driver/src/stm32f4xx_flash.c ****   {
 668:../../lib/STM32F4xx_StdPeriph_Driver/src/stm32f4xx_flash.c ****     /* Authorizes the Option Byte register programming */
 669:../../lib/STM32F4xx_StdPeriph_Driver/src/stm32f4xx_flash.c ****     FLASH->OPTKEYR = FLASH_OPT_KEY1;
 670:../../lib/STM32F4xx_StdPeriph_Driver/src/stm32f4xx_flash.c ****     FLASH->OPTKEYR = FLASH_OPT_KEY2;
 671:../../lib/STM32F4xx_StdPeriph_Driver/src/stm32f4xx_flash.c ****   }  
 672:../../lib/STM32F4xx_StdPeriph_Driver/src/stm32f4xx_flash.c **** }
 673:../../lib/STM32F4xx_StdPeriph_Driver/src/stm32f4xx_flash.c **** 
 674:../../lib/STM32F4xx_StdPeriph_Driver/src/stm32f4xx_flash.c **** /**
 675:../../lib/STM32F4xx_StdPeriph_Driver/src/stm32f4xx_flash.c ****   * @brief  Locks the FLASH Option Control Registers access.
 676:../../lib/STM32F4xx_StdPeriph_Driver/src/stm32f4xx_flash.c ****   * @param  None
 677:../../lib/STM32F4xx_StdPeriph_Driver/src/stm32f4xx_flash.c ****   * @retval None
 678:../../lib/STM32F4xx_StdPeriph_Driver/src/stm32f4xx_flash.c ****   */
 679:../../lib/STM32F4xx_StdPeriph_Driver/src/stm32f4xx_flash.c **** void FLASH_OB_Lock(void)
 680:../../lib/STM32F4xx_StdPeriph_Driver/src/stm32f4xx_flash.c **** {
 681:../../lib/STM32F4xx_StdPeriph_Driver/src/stm32f4xx_flash.c ****   /* Set the OPTLOCK Bit to lock the FLASH Option Byte Registers access */
 682:../../lib/STM32F4xx_StdPeriph_Driver/src/stm32f4xx_flash.c ****   FLASH->OPTCR |= FLASH_OPTCR_OPTLOCK;
 683:../../lib/STM32F4xx_StdPeriph_Driver/src/stm32f4xx_flash.c **** }
 684:../../lib/STM32F4xx_StdPeriph_Driver/src/stm32f4xx_flash.c **** 
 685:../../lib/STM32F4xx_StdPeriph_Driver/src/stm32f4xx_flash.c **** /**
 686:../../lib/STM32F4xx_StdPeriph_Driver/src/stm32f4xx_flash.c ****   * @brief  Enables or disables the write protection of the desired sectors
 687:../../lib/STM32F4xx_StdPeriph_Driver/src/stm32f4xx_flash.c ****   * @param  OB_WRP: specifies the sector(s) to be write protected or unprotected.
 688:../../lib/STM32F4xx_StdPeriph_Driver/src/stm32f4xx_flash.c ****   *          This parameter can be one of the following values:
 689:../../lib/STM32F4xx_StdPeriph_Driver/src/stm32f4xx_flash.c ****   *            @arg OB_WRP: A value between OB_WRP_Sector0 and OB_WRP_Sector11                     
 690:../../lib/STM32F4xx_StdPeriph_Driver/src/stm32f4xx_flash.c ****   *            @arg OB_WRP_Sector_All
 691:../../lib/STM32F4xx_StdPeriph_Driver/src/stm32f4xx_flash.c ****   * @param  Newstate: new state of the Write Protection.
 692:../../lib/STM32F4xx_StdPeriph_Driver/src/stm32f4xx_flash.c ****   *          This parameter can be: ENABLE or DISABLE.
 693:../../lib/STM32F4xx_StdPeriph_Driver/src/stm32f4xx_flash.c ****   * @retval None  
 694:../../lib/STM32F4xx_StdPeriph_Driver/src/stm32f4xx_flash.c ****   */
 695:../../lib/STM32F4xx_StdPeriph_Driver/src/stm32f4xx_flash.c **** void FLASH_OB_WRPConfig(uint32_t OB_WRP, FunctionalState NewState)
 696:../../lib/STM32F4xx_StdPeriph_Driver/src/stm32f4xx_flash.c **** { 
 697:../../lib/STM32F4xx_StdPeriph_Driver/src/stm32f4xx_flash.c ****   FLASH_Status status = FLASH_COMPLETE;
 698:../../lib/STM32F4xx_StdPeriph_Driver/src/stm32f4xx_flash.c ****   
 699:../../lib/STM32F4xx_StdPeriph_Driver/src/stm32f4xx_flash.c ****   /* Check the parameters */
 700:../../lib/STM32F4xx_StdPeriph_Driver/src/stm32f4xx_flash.c ****   assert_param(IS_OB_WRP(OB_WRP));
 701:../../lib/STM32F4xx_StdPeriph_Driver/src/stm32f4xx_flash.c ****   assert_param(IS_FUNCTIONAL_STATE(NewState));
 702:../../lib/STM32F4xx_StdPeriph_Driver/src/stm32f4xx_flash.c ****     
 703:../../lib/STM32F4xx_StdPeriph_Driver/src/stm32f4xx_flash.c ****   status = FLASH_WaitForLastOperation();
 704:../../lib/STM32F4xx_StdPeriph_Driver/src/stm32f4xx_flash.c **** 
 705:../../lib/STM32F4xx_StdPeriph_Driver/src/stm32f4xx_flash.c ****   if(status == FLASH_COMPLETE)
 706:../../lib/STM32F4xx_StdPeriph_Driver/src/stm32f4xx_flash.c ****   { 
 707:../../lib/STM32F4xx_StdPeriph_Driver/src/stm32f4xx_flash.c ****     if(NewState != DISABLE)
 708:../../lib/STM32F4xx_StdPeriph_Driver/src/stm32f4xx_flash.c ****     {
 709:../../lib/STM32F4xx_StdPeriph_Driver/src/stm32f4xx_flash.c ****       *(__IO uint16_t*)OPTCR_BYTE2_ADDRESS &= (~OB_WRP);
 710:../../lib/STM32F4xx_StdPeriph_Driver/src/stm32f4xx_flash.c ****     }
 711:../../lib/STM32F4xx_StdPeriph_Driver/src/stm32f4xx_flash.c ****     else
 712:../../lib/STM32F4xx_StdPeriph_Driver/src/stm32f4xx_flash.c ****     {
 713:../../lib/STM32F4xx_StdPeriph_Driver/src/stm32f4xx_flash.c ****       *(__IO uint16_t*)OPTCR_BYTE2_ADDRESS |= (uint16_t)OB_WRP;
 714:../../lib/STM32F4xx_StdPeriph_Driver/src/stm32f4xx_flash.c ****     }
 715:../../lib/STM32F4xx_StdPeriph_Driver/src/stm32f4xx_flash.c ****   }
 716:../../lib/STM32F4xx_StdPeriph_Driver/src/stm32f4xx_flash.c **** }
 717:../../lib/STM32F4xx_StdPeriph_Driver/src/stm32f4xx_flash.c **** 
 718:../../lib/STM32F4xx_StdPeriph_Driver/src/stm32f4xx_flash.c **** /**
 719:../../lib/STM32F4xx_StdPeriph_Driver/src/stm32f4xx_flash.c ****   * @brief  Sets the read protection level.
 720:../../lib/STM32F4xx_StdPeriph_Driver/src/stm32f4xx_flash.c ****   * @param  OB_RDP: specifies the read protection level.
 721:../../lib/STM32F4xx_StdPeriph_Driver/src/stm32f4xx_flash.c ****   *          This parameter can be one of the following values:
 722:../../lib/STM32F4xx_StdPeriph_Driver/src/stm32f4xx_flash.c ****   *            @arg OB_RDP_Level_0: No protection
 723:../../lib/STM32F4xx_StdPeriph_Driver/src/stm32f4xx_flash.c ****   *            @arg OB_RDP_Level_1: Read protection of the memory
 724:../../lib/STM32F4xx_StdPeriph_Driver/src/stm32f4xx_flash.c ****   *            @arg OB_RDP_Level_2: Full chip protection
 725:../../lib/STM32F4xx_StdPeriph_Driver/src/stm32f4xx_flash.c ****   *   
 726:../../lib/STM32F4xx_StdPeriph_Driver/src/stm32f4xx_flash.c ****   * !!!Warning!!! When enabling OB_RDP level 2 it's no more possible to go back to level 1 or 0
 727:../../lib/STM32F4xx_StdPeriph_Driver/src/stm32f4xx_flash.c ****   *    
 728:../../lib/STM32F4xx_StdPeriph_Driver/src/stm32f4xx_flash.c ****   * @retval None
 729:../../lib/STM32F4xx_StdPeriph_Driver/src/stm32f4xx_flash.c ****   */
 730:../../lib/STM32F4xx_StdPeriph_Driver/src/stm32f4xx_flash.c **** void FLASH_OB_RDPConfig(uint8_t OB_RDP)
 731:../../lib/STM32F4xx_StdPeriph_Driver/src/stm32f4xx_flash.c **** {
 732:../../lib/STM32F4xx_StdPeriph_Driver/src/stm32f4xx_flash.c ****   FLASH_Status status = FLASH_COMPLETE;
 733:../../lib/STM32F4xx_StdPeriph_Driver/src/stm32f4xx_flash.c **** 
 734:../../lib/STM32F4xx_StdPeriph_Driver/src/stm32f4xx_flash.c ****   /* Check the parameters */
 735:../../lib/STM32F4xx_StdPeriph_Driver/src/stm32f4xx_flash.c ****   assert_param(IS_OB_RDP(OB_RDP));
 736:../../lib/STM32F4xx_StdPeriph_Driver/src/stm32f4xx_flash.c **** 
 737:../../lib/STM32F4xx_StdPeriph_Driver/src/stm32f4xx_flash.c ****   status = FLASH_WaitForLastOperation();
 738:../../lib/STM32F4xx_StdPeriph_Driver/src/stm32f4xx_flash.c **** 
 739:../../lib/STM32F4xx_StdPeriph_Driver/src/stm32f4xx_flash.c ****   if(status == FLASH_COMPLETE)
 740:../../lib/STM32F4xx_StdPeriph_Driver/src/stm32f4xx_flash.c ****   {
 741:../../lib/STM32F4xx_StdPeriph_Driver/src/stm32f4xx_flash.c ****     *(__IO uint8_t*)OPTCR_BYTE1_ADDRESS = OB_RDP;
 742:../../lib/STM32F4xx_StdPeriph_Driver/src/stm32f4xx_flash.c **** 
 743:../../lib/STM32F4xx_StdPeriph_Driver/src/stm32f4xx_flash.c ****   }
 744:../../lib/STM32F4xx_StdPeriph_Driver/src/stm32f4xx_flash.c **** }
 745:../../lib/STM32F4xx_StdPeriph_Driver/src/stm32f4xx_flash.c **** 
 746:../../lib/STM32F4xx_StdPeriph_Driver/src/stm32f4xx_flash.c **** /**
 747:../../lib/STM32F4xx_StdPeriph_Driver/src/stm32f4xx_flash.c ****   * @brief  Programs the FLASH User Option Byte: IWDG_SW / RST_STOP / RST_STDBY.    
 748:../../lib/STM32F4xx_StdPeriph_Driver/src/stm32f4xx_flash.c ****   * @param  OB_IWDG: Selects the IWDG mode
 749:../../lib/STM32F4xx_StdPeriph_Driver/src/stm32f4xx_flash.c ****   *          This parameter can be one of the following values:
 750:../../lib/STM32F4xx_StdPeriph_Driver/src/stm32f4xx_flash.c ****   *            @arg OB_IWDG_SW: Software IWDG selected
 751:../../lib/STM32F4xx_StdPeriph_Driver/src/stm32f4xx_flash.c ****   *            @arg OB_IWDG_HW: Hardware IWDG selected
 752:../../lib/STM32F4xx_StdPeriph_Driver/src/stm32f4xx_flash.c ****   * @param  OB_STOP: Reset event when entering STOP mode.
 753:../../lib/STM32F4xx_StdPeriph_Driver/src/stm32f4xx_flash.c ****   *          This parameter  can be one of the following values:
 754:../../lib/STM32F4xx_StdPeriph_Driver/src/stm32f4xx_flash.c ****   *            @arg OB_STOP_NoRST: No reset generated when entering in STOP
 755:../../lib/STM32F4xx_StdPeriph_Driver/src/stm32f4xx_flash.c ****   *            @arg OB_STOP_RST: Reset generated when entering in STOP
 756:../../lib/STM32F4xx_StdPeriph_Driver/src/stm32f4xx_flash.c ****   * @param  OB_STDBY: Reset event when entering Standby mode.
 757:../../lib/STM32F4xx_StdPeriph_Driver/src/stm32f4xx_flash.c ****   *          This parameter  can be one of the following values:
 758:../../lib/STM32F4xx_StdPeriph_Driver/src/stm32f4xx_flash.c ****   *            @arg OB_STDBY_NoRST: No reset generated when entering in STANDBY
 759:../../lib/STM32F4xx_StdPeriph_Driver/src/stm32f4xx_flash.c ****   *            @arg OB_STDBY_RST: Reset generated when entering in STANDBY
 760:../../lib/STM32F4xx_StdPeriph_Driver/src/stm32f4xx_flash.c ****   * @retval None
 761:../../lib/STM32F4xx_StdPeriph_Driver/src/stm32f4xx_flash.c ****   */
 762:../../lib/STM32F4xx_StdPeriph_Driver/src/stm32f4xx_flash.c **** void FLASH_OB_UserConfig(uint8_t OB_IWDG, uint8_t OB_STOP, uint8_t OB_STDBY)
 763:../../lib/STM32F4xx_StdPeriph_Driver/src/stm32f4xx_flash.c **** {
 764:../../lib/STM32F4xx_StdPeriph_Driver/src/stm32f4xx_flash.c ****   uint8_t optiontmp = 0xFF;
 765:../../lib/STM32F4xx_StdPeriph_Driver/src/stm32f4xx_flash.c ****   FLASH_Status status = FLASH_COMPLETE; 
 766:../../lib/STM32F4xx_StdPeriph_Driver/src/stm32f4xx_flash.c **** 
 767:../../lib/STM32F4xx_StdPeriph_Driver/src/stm32f4xx_flash.c ****   /* Check the parameters */
 768:../../lib/STM32F4xx_StdPeriph_Driver/src/stm32f4xx_flash.c ****   assert_param(IS_OB_IWDG_SOURCE(OB_IWDG));
 769:../../lib/STM32F4xx_StdPeriph_Driver/src/stm32f4xx_flash.c ****   assert_param(IS_OB_STOP_SOURCE(OB_STOP));
 770:../../lib/STM32F4xx_StdPeriph_Driver/src/stm32f4xx_flash.c ****   assert_param(IS_OB_STDBY_SOURCE(OB_STDBY));
 771:../../lib/STM32F4xx_StdPeriph_Driver/src/stm32f4xx_flash.c **** 
 772:../../lib/STM32F4xx_StdPeriph_Driver/src/stm32f4xx_flash.c ****   /* Wait for last operation to be completed */
 773:../../lib/STM32F4xx_StdPeriph_Driver/src/stm32f4xx_flash.c ****   status = FLASH_WaitForLastOperation();
 774:../../lib/STM32F4xx_StdPeriph_Driver/src/stm32f4xx_flash.c ****   
 775:../../lib/STM32F4xx_StdPeriph_Driver/src/stm32f4xx_flash.c ****   if(status == FLASH_COMPLETE)
 776:../../lib/STM32F4xx_StdPeriph_Driver/src/stm32f4xx_flash.c ****   { 
 777:../../lib/STM32F4xx_StdPeriph_Driver/src/stm32f4xx_flash.c ****     /* Mask OPTLOCK, OPTSTRT and BOR_LEV bits */
 778:../../lib/STM32F4xx_StdPeriph_Driver/src/stm32f4xx_flash.c ****     optiontmp =  (uint8_t)((*(__IO uint8_t *)OPTCR_BYTE0_ADDRESS) & (uint8_t)0x0F); 
 779:../../lib/STM32F4xx_StdPeriph_Driver/src/stm32f4xx_flash.c **** 
 780:../../lib/STM32F4xx_StdPeriph_Driver/src/stm32f4xx_flash.c ****     /* Update User Option Byte */
 781:../../lib/STM32F4xx_StdPeriph_Driver/src/stm32f4xx_flash.c ****     *(__IO uint8_t *)OPTCR_BYTE0_ADDRESS = OB_IWDG | (uint8_t)(OB_STDBY | (uint8_t)(OB_STOP | ((uin
 782:../../lib/STM32F4xx_StdPeriph_Driver/src/stm32f4xx_flash.c ****   }  
 783:../../lib/STM32F4xx_StdPeriph_Driver/src/stm32f4xx_flash.c **** }
 784:../../lib/STM32F4xx_StdPeriph_Driver/src/stm32f4xx_flash.c **** 
 785:../../lib/STM32F4xx_StdPeriph_Driver/src/stm32f4xx_flash.c **** /**
 786:../../lib/STM32F4xx_StdPeriph_Driver/src/stm32f4xx_flash.c ****   * @brief  Sets the BOR Level. 
 787:../../lib/STM32F4xx_StdPeriph_Driver/src/stm32f4xx_flash.c ****   * @param  OB_BOR: specifies the Option Bytes BOR Reset Level.
 788:../../lib/STM32F4xx_StdPeriph_Driver/src/stm32f4xx_flash.c ****   *          This parameter can be one of the following values:
 789:../../lib/STM32F4xx_StdPeriph_Driver/src/stm32f4xx_flash.c ****   *            @arg OB_BOR_LEVEL3: Supply voltage ranges from 2.7 to 3.6 V
 790:../../lib/STM32F4xx_StdPeriph_Driver/src/stm32f4xx_flash.c ****   *            @arg OB_BOR_LEVEL2: Supply voltage ranges from 2.4 to 2.7 V
 791:../../lib/STM32F4xx_StdPeriph_Driver/src/stm32f4xx_flash.c ****   *            @arg OB_BOR_LEVEL1: Supply voltage ranges from 2.1 to 2.4 V
 792:../../lib/STM32F4xx_StdPeriph_Driver/src/stm32f4xx_flash.c ****   *            @arg OB_BOR_OFF: Supply voltage ranges from 1.62 to 2.1 V
 793:../../lib/STM32F4xx_StdPeriph_Driver/src/stm32f4xx_flash.c ****   * @retval None
 794:../../lib/STM32F4xx_StdPeriph_Driver/src/stm32f4xx_flash.c ****   */
 795:../../lib/STM32F4xx_StdPeriph_Driver/src/stm32f4xx_flash.c **** void FLASH_OB_BORConfig(uint8_t OB_BOR)
 796:../../lib/STM32F4xx_StdPeriph_Driver/src/stm32f4xx_flash.c **** {
 797:../../lib/STM32F4xx_StdPeriph_Driver/src/stm32f4xx_flash.c ****   /* Check the parameters */
 798:../../lib/STM32F4xx_StdPeriph_Driver/src/stm32f4xx_flash.c ****   assert_param(IS_OB_BOR(OB_BOR));
 799:../../lib/STM32F4xx_StdPeriph_Driver/src/stm32f4xx_flash.c **** 
 800:../../lib/STM32F4xx_StdPeriph_Driver/src/stm32f4xx_flash.c ****   /* Set the BOR Level */
 801:../../lib/STM32F4xx_StdPeriph_Driver/src/stm32f4xx_flash.c ****   *(__IO uint8_t *)OPTCR_BYTE0_ADDRESS &= (~FLASH_OPTCR_BOR_LEV);
 802:../../lib/STM32F4xx_StdPeriph_Driver/src/stm32f4xx_flash.c ****   *(__IO uint8_t *)OPTCR_BYTE0_ADDRESS |= OB_BOR;
 803:../../lib/STM32F4xx_StdPeriph_Driver/src/stm32f4xx_flash.c **** 
 804:../../lib/STM32F4xx_StdPeriph_Driver/src/stm32f4xx_flash.c **** }
 805:../../lib/STM32F4xx_StdPeriph_Driver/src/stm32f4xx_flash.c **** 
 806:../../lib/STM32F4xx_StdPeriph_Driver/src/stm32f4xx_flash.c **** /**
 807:../../lib/STM32F4xx_StdPeriph_Driver/src/stm32f4xx_flash.c ****   * @brief  Launch the option byte loading.
 808:../../lib/STM32F4xx_StdPeriph_Driver/src/stm32f4xx_flash.c ****   * @param  None
 809:../../lib/STM32F4xx_StdPeriph_Driver/src/stm32f4xx_flash.c ****   * @retval FLASH Status: The returned value can be: FLASH_BUSY, FLASH_ERROR_PROGRAM,
 810:../../lib/STM32F4xx_StdPeriph_Driver/src/stm32f4xx_flash.c ****   *                       FLASH_ERROR_WRP, FLASH_ERROR_OPERATION or FLASH_COMPLETE.
 811:../../lib/STM32F4xx_StdPeriph_Driver/src/stm32f4xx_flash.c ****   */
 812:../../lib/STM32F4xx_StdPeriph_Driver/src/stm32f4xx_flash.c **** FLASH_Status FLASH_OB_Launch(void)
 813:../../lib/STM32F4xx_StdPeriph_Driver/src/stm32f4xx_flash.c **** {
 814:../../lib/STM32F4xx_StdPeriph_Driver/src/stm32f4xx_flash.c ****   FLASH_Status status = FLASH_COMPLETE;
 815:../../lib/STM32F4xx_StdPeriph_Driver/src/stm32f4xx_flash.c **** 
 816:../../lib/STM32F4xx_StdPeriph_Driver/src/stm32f4xx_flash.c ****   /* Set the OPTSTRT bit in OPTCR register */
 817:../../lib/STM32F4xx_StdPeriph_Driver/src/stm32f4xx_flash.c ****   *(__IO uint8_t *)OPTCR_BYTE0_ADDRESS |= FLASH_OPTCR_OPTSTRT;
 818:../../lib/STM32F4xx_StdPeriph_Driver/src/stm32f4xx_flash.c **** 
 819:../../lib/STM32F4xx_StdPeriph_Driver/src/stm32f4xx_flash.c ****   /* Wait for last operation to be completed */
 820:../../lib/STM32F4xx_StdPeriph_Driver/src/stm32f4xx_flash.c ****   status = FLASH_WaitForLastOperation();
 821:../../lib/STM32F4xx_StdPeriph_Driver/src/stm32f4xx_flash.c **** 
 822:../../lib/STM32F4xx_StdPeriph_Driver/src/stm32f4xx_flash.c ****   return status;
 823:../../lib/STM32F4xx_StdPeriph_Driver/src/stm32f4xx_flash.c **** }
 824:../../lib/STM32F4xx_StdPeriph_Driver/src/stm32f4xx_flash.c **** 
 825:../../lib/STM32F4xx_StdPeriph_Driver/src/stm32f4xx_flash.c **** /**
 826:../../lib/STM32F4xx_StdPeriph_Driver/src/stm32f4xx_flash.c ****   * @brief  Returns the FLASH User Option Bytes values.
 827:../../lib/STM32F4xx_StdPeriph_Driver/src/stm32f4xx_flash.c ****   * @param  None
 828:../../lib/STM32F4xx_StdPeriph_Driver/src/stm32f4xx_flash.c ****   * @retval The FLASH User Option Bytes values: IWDG_SW(Bit0), RST_STOP(Bit1)
 829:../../lib/STM32F4xx_StdPeriph_Driver/src/stm32f4xx_flash.c ****   *         and RST_STDBY(Bit2).
 830:../../lib/STM32F4xx_StdPeriph_Driver/src/stm32f4xx_flash.c ****   */
 831:../../lib/STM32F4xx_StdPeriph_Driver/src/stm32f4xx_flash.c **** uint8_t FLASH_OB_GetUser(void)
 832:../../lib/STM32F4xx_StdPeriph_Driver/src/stm32f4xx_flash.c **** {
 833:../../lib/STM32F4xx_StdPeriph_Driver/src/stm32f4xx_flash.c ****   /* Return the User Option Byte */
 834:../../lib/STM32F4xx_StdPeriph_Driver/src/stm32f4xx_flash.c ****   return (uint8_t)(FLASH->OPTCR >> 5);
 835:../../lib/STM32F4xx_StdPeriph_Driver/src/stm32f4xx_flash.c **** }
 836:../../lib/STM32F4xx_StdPeriph_Driver/src/stm32f4xx_flash.c **** 
 837:../../lib/STM32F4xx_StdPeriph_Driver/src/stm32f4xx_flash.c **** /**
 838:../../lib/STM32F4xx_StdPeriph_Driver/src/stm32f4xx_flash.c ****   * @brief  Returns the FLASH Write Protection Option Bytes value.
 839:../../lib/STM32F4xx_StdPeriph_Driver/src/stm32f4xx_flash.c ****   * @param  None
 840:../../lib/STM32F4xx_StdPeriph_Driver/src/stm32f4xx_flash.c ****   * @retval The FLASH Write Protection  Option Bytes value
 841:../../lib/STM32F4xx_StdPeriph_Driver/src/stm32f4xx_flash.c ****   */
 842:../../lib/STM32F4xx_StdPeriph_Driver/src/stm32f4xx_flash.c **** uint16_t FLASH_OB_GetWRP(void)
 843:../../lib/STM32F4xx_StdPeriph_Driver/src/stm32f4xx_flash.c **** {
 844:../../lib/STM32F4xx_StdPeriph_Driver/src/stm32f4xx_flash.c ****   /* Return the FLASH write protection Register value */
 845:../../lib/STM32F4xx_StdPeriph_Driver/src/stm32f4xx_flash.c ****   return (*(__IO uint16_t *)(OPTCR_BYTE2_ADDRESS));
 846:../../lib/STM32F4xx_StdPeriph_Driver/src/stm32f4xx_flash.c **** }
 847:../../lib/STM32F4xx_StdPeriph_Driver/src/stm32f4xx_flash.c **** 
 848:../../lib/STM32F4xx_StdPeriph_Driver/src/stm32f4xx_flash.c **** /**
 849:../../lib/STM32F4xx_StdPeriph_Driver/src/stm32f4xx_flash.c ****   * @brief  Returns the FLASH Read Protection level.
 850:../../lib/STM32F4xx_StdPeriph_Driver/src/stm32f4xx_flash.c ****   * @param  None
 851:../../lib/STM32F4xx_StdPeriph_Driver/src/stm32f4xx_flash.c ****   * @retval FLASH ReadOut Protection Status:
 852:../../lib/STM32F4xx_StdPeriph_Driver/src/stm32f4xx_flash.c ****   *           - SET, when OB_RDP_Level_1 or OB_RDP_Level_2 is set
 853:../../lib/STM32F4xx_StdPeriph_Driver/src/stm32f4xx_flash.c ****   *           - RESET, when OB_RDP_Level_0 is set
 854:../../lib/STM32F4xx_StdPeriph_Driver/src/stm32f4xx_flash.c ****   */
 855:../../lib/STM32F4xx_StdPeriph_Driver/src/stm32f4xx_flash.c **** FlagStatus FLASH_OB_GetRDP(void)
 856:../../lib/STM32F4xx_StdPeriph_Driver/src/stm32f4xx_flash.c **** {
 857:../../lib/STM32F4xx_StdPeriph_Driver/src/stm32f4xx_flash.c ****   FlagStatus readstatus = RESET;
 858:../../lib/STM32F4xx_StdPeriph_Driver/src/stm32f4xx_flash.c **** 
 859:../../lib/STM32F4xx_StdPeriph_Driver/src/stm32f4xx_flash.c ****   if ((*(__IO uint8_t*)(OPTCR_BYTE1_ADDRESS) != (uint8_t)OB_RDP_Level_0))
 860:../../lib/STM32F4xx_StdPeriph_Driver/src/stm32f4xx_flash.c ****   {
 861:../../lib/STM32F4xx_StdPeriph_Driver/src/stm32f4xx_flash.c ****     readstatus = SET;
 862:../../lib/STM32F4xx_StdPeriph_Driver/src/stm32f4xx_flash.c ****   }
 863:../../lib/STM32F4xx_StdPeriph_Driver/src/stm32f4xx_flash.c ****   else
 864:../../lib/STM32F4xx_StdPeriph_Driver/src/stm32f4xx_flash.c ****   {
 865:../../lib/STM32F4xx_StdPeriph_Driver/src/stm32f4xx_flash.c ****     readstatus = RESET;
 866:../../lib/STM32F4xx_StdPeriph_Driver/src/stm32f4xx_flash.c ****   }
 867:../../lib/STM32F4xx_StdPeriph_Driver/src/stm32f4xx_flash.c ****   return readstatus;
 868:../../lib/STM32F4xx_StdPeriph_Driver/src/stm32f4xx_flash.c **** }
 869:../../lib/STM32F4xx_StdPeriph_Driver/src/stm32f4xx_flash.c **** 
 870:../../lib/STM32F4xx_StdPeriph_Driver/src/stm32f4xx_flash.c **** /**
 871:../../lib/STM32F4xx_StdPeriph_Driver/src/stm32f4xx_flash.c ****   * @brief  Returns the FLASH BOR level.
 872:../../lib/STM32F4xx_StdPeriph_Driver/src/stm32f4xx_flash.c ****   * @param  None
 873:../../lib/STM32F4xx_StdPeriph_Driver/src/stm32f4xx_flash.c ****   * @retval The FLASH BOR level:
 874:../../lib/STM32F4xx_StdPeriph_Driver/src/stm32f4xx_flash.c ****   *           - OB_BOR_LEVEL3: Supply voltage ranges from 2.7 to 3.6 V
 875:../../lib/STM32F4xx_StdPeriph_Driver/src/stm32f4xx_flash.c ****   *           - OB_BOR_LEVEL2: Supply voltage ranges from 2.4 to 2.7 V
 876:../../lib/STM32F4xx_StdPeriph_Driver/src/stm32f4xx_flash.c ****   *           - OB_BOR_LEVEL1: Supply voltage ranges from 2.1 to 2.4 V
 877:../../lib/STM32F4xx_StdPeriph_Driver/src/stm32f4xx_flash.c ****   *           - OB_BOR_OFF   : Supply voltage ranges from 1.62 to 2.1 V  
 878:../../lib/STM32F4xx_StdPeriph_Driver/src/stm32f4xx_flash.c ****   */
 879:../../lib/STM32F4xx_StdPeriph_Driver/src/stm32f4xx_flash.c **** uint8_t FLASH_OB_GetBOR(void)
 880:../../lib/STM32F4xx_StdPeriph_Driver/src/stm32f4xx_flash.c **** {
 881:../../lib/STM32F4xx_StdPeriph_Driver/src/stm32f4xx_flash.c ****   /* Return the FLASH BOR level */
 882:../../lib/STM32F4xx_StdPeriph_Driver/src/stm32f4xx_flash.c ****   return (uint8_t)(*(__IO uint8_t *)(OPTCR_BYTE0_ADDRESS) & (uint8_t)0x0C);
 883:../../lib/STM32F4xx_StdPeriph_Driver/src/stm32f4xx_flash.c **** }
 884:../../lib/STM32F4xx_StdPeriph_Driver/src/stm32f4xx_flash.c **** 
 885:../../lib/STM32F4xx_StdPeriph_Driver/src/stm32f4xx_flash.c **** /**
 886:../../lib/STM32F4xx_StdPeriph_Driver/src/stm32f4xx_flash.c ****   * @}
 887:../../lib/STM32F4xx_StdPeriph_Driver/src/stm32f4xx_flash.c ****   */
 888:../../lib/STM32F4xx_StdPeriph_Driver/src/stm32f4xx_flash.c **** 
 889:../../lib/STM32F4xx_StdPeriph_Driver/src/stm32f4xx_flash.c **** /** @defgroup FLASH_Group4 Interrupts and flags management functions
 890:../../lib/STM32F4xx_StdPeriph_Driver/src/stm32f4xx_flash.c ****  *  @brief   Interrupts and flags management functions
 891:../../lib/STM32F4xx_StdPeriph_Driver/src/stm32f4xx_flash.c ****  *
 892:../../lib/STM32F4xx_StdPeriph_Driver/src/stm32f4xx_flash.c **** @verbatim   
 893:../../lib/STM32F4xx_StdPeriph_Driver/src/stm32f4xx_flash.c ****  ===============================================================================
 894:../../lib/STM32F4xx_StdPeriph_Driver/src/stm32f4xx_flash.c ****                   Interrupts and flags management functions
 895:../../lib/STM32F4xx_StdPeriph_Driver/src/stm32f4xx_flash.c ****  ===============================================================================  
 896:../../lib/STM32F4xx_StdPeriph_Driver/src/stm32f4xx_flash.c **** 
 897:../../lib/STM32F4xx_StdPeriph_Driver/src/stm32f4xx_flash.c **** @endverbatim
 898:../../lib/STM32F4xx_StdPeriph_Driver/src/stm32f4xx_flash.c ****   * @{
 899:../../lib/STM32F4xx_StdPeriph_Driver/src/stm32f4xx_flash.c ****   */
 900:../../lib/STM32F4xx_StdPeriph_Driver/src/stm32f4xx_flash.c **** 
 901:../../lib/STM32F4xx_StdPeriph_Driver/src/stm32f4xx_flash.c **** /**
 902:../../lib/STM32F4xx_StdPeriph_Driver/src/stm32f4xx_flash.c ****   * @brief  Enables or disables the specified FLASH interrupts.
 903:../../lib/STM32F4xx_StdPeriph_Driver/src/stm32f4xx_flash.c ****   * @param  FLASH_IT: specifies the FLASH interrupt sources to be enabled or disabled.
 904:../../lib/STM32F4xx_StdPeriph_Driver/src/stm32f4xx_flash.c ****   *          This parameter can be any combination of the following values:
 905:../../lib/STM32F4xx_StdPeriph_Driver/src/stm32f4xx_flash.c ****   *            @arg FLASH_IT_ERR: FLASH Error Interrupt
 906:../../lib/STM32F4xx_StdPeriph_Driver/src/stm32f4xx_flash.c ****   *            @arg FLASH_IT_EOP: FLASH end of operation Interrupt
 907:../../lib/STM32F4xx_StdPeriph_Driver/src/stm32f4xx_flash.c ****   * @retval None 
 908:../../lib/STM32F4xx_StdPeriph_Driver/src/stm32f4xx_flash.c ****   */
 909:../../lib/STM32F4xx_StdPeriph_Driver/src/stm32f4xx_flash.c **** void FLASH_ITConfig(uint32_t FLASH_IT, FunctionalState NewState)
 910:../../lib/STM32F4xx_StdPeriph_Driver/src/stm32f4xx_flash.c **** {
 911:../../lib/STM32F4xx_StdPeriph_Driver/src/stm32f4xx_flash.c ****   /* Check the parameters */
 912:../../lib/STM32F4xx_StdPeriph_Driver/src/stm32f4xx_flash.c ****   assert_param(IS_FLASH_IT(FLASH_IT)); 
 913:../../lib/STM32F4xx_StdPeriph_Driver/src/stm32f4xx_flash.c ****   assert_param(IS_FUNCTIONAL_STATE(NewState));
 914:../../lib/STM32F4xx_StdPeriph_Driver/src/stm32f4xx_flash.c **** 
 915:../../lib/STM32F4xx_StdPeriph_Driver/src/stm32f4xx_flash.c ****   if(NewState != DISABLE)
 916:../../lib/STM32F4xx_StdPeriph_Driver/src/stm32f4xx_flash.c ****   {
 917:../../lib/STM32F4xx_StdPeriph_Driver/src/stm32f4xx_flash.c ****     /* Enable the interrupt sources */
 918:../../lib/STM32F4xx_StdPeriph_Driver/src/stm32f4xx_flash.c ****     FLASH->CR |= FLASH_IT;
 919:../../lib/STM32F4xx_StdPeriph_Driver/src/stm32f4xx_flash.c ****   }
 920:../../lib/STM32F4xx_StdPeriph_Driver/src/stm32f4xx_flash.c ****   else
 921:../../lib/STM32F4xx_StdPeriph_Driver/src/stm32f4xx_flash.c ****   {
 922:../../lib/STM32F4xx_StdPeriph_Driver/src/stm32f4xx_flash.c ****     /* Disable the interrupt sources */
 923:../../lib/STM32F4xx_StdPeriph_Driver/src/stm32f4xx_flash.c ****     FLASH->CR &= ~(uint32_t)FLASH_IT;
 924:../../lib/STM32F4xx_StdPeriph_Driver/src/stm32f4xx_flash.c ****   }
 925:../../lib/STM32F4xx_StdPeriph_Driver/src/stm32f4xx_flash.c **** }
 926:../../lib/STM32F4xx_StdPeriph_Driver/src/stm32f4xx_flash.c **** 
 927:../../lib/STM32F4xx_StdPeriph_Driver/src/stm32f4xx_flash.c **** /**
 928:../../lib/STM32F4xx_StdPeriph_Driver/src/stm32f4xx_flash.c ****   * @brief  Checks whether the specified FLASH flag is set or not.
 929:../../lib/STM32F4xx_StdPeriph_Driver/src/stm32f4xx_flash.c ****   * @param  FLASH_FLAG: specifies the FLASH flag to check.
 930:../../lib/STM32F4xx_StdPeriph_Driver/src/stm32f4xx_flash.c ****   *          This parameter can be one of the following values:
 931:../../lib/STM32F4xx_StdPeriph_Driver/src/stm32f4xx_flash.c ****   *            @arg FLASH_FLAG_EOP: FLASH End of Operation flag 
 932:../../lib/STM32F4xx_StdPeriph_Driver/src/stm32f4xx_flash.c ****   *            @arg FLASH_FLAG_OPERR: FLASH operation Error flag 
 933:../../lib/STM32F4xx_StdPeriph_Driver/src/stm32f4xx_flash.c ****   *            @arg FLASH_FLAG_WRPERR: FLASH Write protected error flag 
 934:../../lib/STM32F4xx_StdPeriph_Driver/src/stm32f4xx_flash.c ****   *            @arg FLASH_FLAG_PGAERR: FLASH Programming Alignment error flag
 935:../../lib/STM32F4xx_StdPeriph_Driver/src/stm32f4xx_flash.c ****   *            @arg FLASH_FLAG_PGPERR: FLASH Programming Parallelism error flag
 936:../../lib/STM32F4xx_StdPeriph_Driver/src/stm32f4xx_flash.c ****   *            @arg FLASH_FLAG_PGSERR: FLASH Programming Sequence error flag
 937:../../lib/STM32F4xx_StdPeriph_Driver/src/stm32f4xx_flash.c ****   *            @arg FLASH_FLAG_BSY: FLASH Busy flag
 938:../../lib/STM32F4xx_StdPeriph_Driver/src/stm32f4xx_flash.c ****   * @retval The new state of FLASH_FLAG (SET or RESET).
 939:../../lib/STM32F4xx_StdPeriph_Driver/src/stm32f4xx_flash.c ****   */
 940:../../lib/STM32F4xx_StdPeriph_Driver/src/stm32f4xx_flash.c **** FlagStatus FLASH_GetFlagStatus(uint32_t FLASH_FLAG)
 941:../../lib/STM32F4xx_StdPeriph_Driver/src/stm32f4xx_flash.c **** {
 942:../../lib/STM32F4xx_StdPeriph_Driver/src/stm32f4xx_flash.c ****   FlagStatus bitstatus = RESET;
 943:../../lib/STM32F4xx_StdPeriph_Driver/src/stm32f4xx_flash.c ****   /* Check the parameters */
 944:../../lib/STM32F4xx_StdPeriph_Driver/src/stm32f4xx_flash.c ****   assert_param(IS_FLASH_GET_FLAG(FLASH_FLAG));
 945:../../lib/STM32F4xx_StdPeriph_Driver/src/stm32f4xx_flash.c **** 
 946:../../lib/STM32F4xx_StdPeriph_Driver/src/stm32f4xx_flash.c ****   if((FLASH->SR & FLASH_FLAG) != (uint32_t)RESET)
 947:../../lib/STM32F4xx_StdPeriph_Driver/src/stm32f4xx_flash.c ****   {
 948:../../lib/STM32F4xx_StdPeriph_Driver/src/stm32f4xx_flash.c ****     bitstatus = SET;
 949:../../lib/STM32F4xx_StdPeriph_Driver/src/stm32f4xx_flash.c ****   }
 950:../../lib/STM32F4xx_StdPeriph_Driver/src/stm32f4xx_flash.c ****   else
 951:../../lib/STM32F4xx_StdPeriph_Driver/src/stm32f4xx_flash.c ****   {
 952:../../lib/STM32F4xx_StdPeriph_Driver/src/stm32f4xx_flash.c ****     bitstatus = RESET;
 953:../../lib/STM32F4xx_StdPeriph_Driver/src/stm32f4xx_flash.c ****   }
 954:../../lib/STM32F4xx_StdPeriph_Driver/src/stm32f4xx_flash.c ****   /* Return the new state of FLASH_FLAG (SET or RESET) */
 955:../../lib/STM32F4xx_StdPeriph_Driver/src/stm32f4xx_flash.c ****   return bitstatus; 
 956:../../lib/STM32F4xx_StdPeriph_Driver/src/stm32f4xx_flash.c **** }
 957:../../lib/STM32F4xx_StdPeriph_Driver/src/stm32f4xx_flash.c **** 
 958:../../lib/STM32F4xx_StdPeriph_Driver/src/stm32f4xx_flash.c **** /**
 959:../../lib/STM32F4xx_StdPeriph_Driver/src/stm32f4xx_flash.c ****   * @brief  Clears the FLASH's pending flags.
 960:../../lib/STM32F4xx_StdPeriph_Driver/src/stm32f4xx_flash.c ****   * @param  FLASH_FLAG: specifies the FLASH flags to clear.
 961:../../lib/STM32F4xx_StdPeriph_Driver/src/stm32f4xx_flash.c ****   *          This parameter can be any combination of the following values:
 962:../../lib/STM32F4xx_StdPeriph_Driver/src/stm32f4xx_flash.c ****   *            @arg FLASH_FLAG_EOP: FLASH End of Operation flag 
 963:../../lib/STM32F4xx_StdPeriph_Driver/src/stm32f4xx_flash.c ****   *            @arg FLASH_FLAG_OPERR: FLASH operation Error flag 
 964:../../lib/STM32F4xx_StdPeriph_Driver/src/stm32f4xx_flash.c ****   *            @arg FLASH_FLAG_WRPERR: FLASH Write protected error flag 
 965:../../lib/STM32F4xx_StdPeriph_Driver/src/stm32f4xx_flash.c ****   *            @arg FLASH_FLAG_PGAERR: FLASH Programming Alignment error flag 
 966:../../lib/STM32F4xx_StdPeriph_Driver/src/stm32f4xx_flash.c ****   *            @arg FLASH_FLAG_PGPERR: FLASH Programming Parallelism error flag
 967:../../lib/STM32F4xx_StdPeriph_Driver/src/stm32f4xx_flash.c ****   *            @arg FLASH_FLAG_PGSERR: FLASH Programming Sequence error flag
 968:../../lib/STM32F4xx_StdPeriph_Driver/src/stm32f4xx_flash.c ****   * @retval None
 969:../../lib/STM32F4xx_StdPeriph_Driver/src/stm32f4xx_flash.c ****   */
 970:../../lib/STM32F4xx_StdPeriph_Driver/src/stm32f4xx_flash.c **** void FLASH_ClearFlag(uint32_t FLASH_FLAG)
 971:../../lib/STM32F4xx_StdPeriph_Driver/src/stm32f4xx_flash.c **** {
 972:../../lib/STM32F4xx_StdPeriph_Driver/src/stm32f4xx_flash.c ****   /* Check the parameters */
 973:../../lib/STM32F4xx_StdPeriph_Driver/src/stm32f4xx_flash.c ****   assert_param(IS_FLASH_CLEAR_FLAG(FLASH_FLAG));
 974:../../lib/STM32F4xx_StdPeriph_Driver/src/stm32f4xx_flash.c ****   
 975:../../lib/STM32F4xx_StdPeriph_Driver/src/stm32f4xx_flash.c ****   /* Clear the flags */
 976:../../lib/STM32F4xx_StdPeriph_Driver/src/stm32f4xx_flash.c ****   FLASH->SR = FLASH_FLAG;
 977:../../lib/STM32F4xx_StdPeriph_Driver/src/stm32f4xx_flash.c **** }
 978:../../lib/STM32F4xx_StdPeriph_Driver/src/stm32f4xx_flash.c **** 
 979:../../lib/STM32F4xx_StdPeriph_Driver/src/stm32f4xx_flash.c **** /**
 980:../../lib/STM32F4xx_StdPeriph_Driver/src/stm32f4xx_flash.c ****   * @brief  Returns the FLASH Status.
 981:../../lib/STM32F4xx_StdPeriph_Driver/src/stm32f4xx_flash.c ****   * @param  None
 982:../../lib/STM32F4xx_StdPeriph_Driver/src/stm32f4xx_flash.c ****   * @retval FLASH Status: The returned value can be: FLASH_BUSY, FLASH_ERROR_PROGRAM,
 983:../../lib/STM32F4xx_StdPeriph_Driver/src/stm32f4xx_flash.c ****   *                       FLASH_ERROR_WRP, FLASH_ERROR_OPERATION or FLASH_COMPLETE.
 984:../../lib/STM32F4xx_StdPeriph_Driver/src/stm32f4xx_flash.c ****   */
 985:../../lib/STM32F4xx_StdPeriph_Driver/src/stm32f4xx_flash.c **** FLASH_Status FLASH_GetStatus(void)
 986:../../lib/STM32F4xx_StdPeriph_Driver/src/stm32f4xx_flash.c **** {
 987:../../lib/STM32F4xx_StdPeriph_Driver/src/stm32f4xx_flash.c ****   FLASH_Status flashstatus = FLASH_COMPLETE;
 988:../../lib/STM32F4xx_StdPeriph_Driver/src/stm32f4xx_flash.c ****   
 989:../../lib/STM32F4xx_StdPeriph_Driver/src/stm32f4xx_flash.c ****   if((FLASH->SR & FLASH_FLAG_BSY) == FLASH_FLAG_BSY) 
 299              		.loc 1 989 0
 300 0018 574B     		ldr	r3, .L96
 301              	.LBE25:
 302              	.LBE24:
 990:../../lib/STM32F4xx_StdPeriph_Driver/src/stm32f4xx_flash.c ****   {
 991:../../lib/STM32F4xx_StdPeriph_Driver/src/stm32f4xx_flash.c ****     flashstatus = FLASH_BUSY;
 992:../../lib/STM32F4xx_StdPeriph_Driver/src/stm32f4xx_flash.c ****   }
 993:../../lib/STM32F4xx_StdPeriph_Driver/src/stm32f4xx_flash.c ****   else 
 994:../../lib/STM32F4xx_StdPeriph_Driver/src/stm32f4xx_flash.c ****   {  
 995:../../lib/STM32F4xx_StdPeriph_Driver/src/stm32f4xx_flash.c ****     if((FLASH->SR & FLASH_FLAG_WRPERR) != (uint32_t)0x00)
 996:../../lib/STM32F4xx_StdPeriph_Driver/src/stm32f4xx_flash.c ****     { 
 997:../../lib/STM32F4xx_StdPeriph_Driver/src/stm32f4xx_flash.c ****       flashstatus = FLASH_ERROR_WRP;
 998:../../lib/STM32F4xx_StdPeriph_Driver/src/stm32f4xx_flash.c ****     }
 999:../../lib/STM32F4xx_StdPeriph_Driver/src/stm32f4xx_flash.c ****     else 
1000:../../lib/STM32F4xx_StdPeriph_Driver/src/stm32f4xx_flash.c ****     {
1001:../../lib/STM32F4xx_StdPeriph_Driver/src/stm32f4xx_flash.c ****       if((FLASH->SR & (uint32_t)0xEF) != (uint32_t)0x00)
1002:../../lib/STM32F4xx_StdPeriph_Driver/src/stm32f4xx_flash.c ****       {
1003:../../lib/STM32F4xx_StdPeriph_Driver/src/stm32f4xx_flash.c ****         flashstatus = FLASH_ERROR_PROGRAM; 
1004:../../lib/STM32F4xx_StdPeriph_Driver/src/stm32f4xx_flash.c ****       }
1005:../../lib/STM32F4xx_StdPeriph_Driver/src/stm32f4xx_flash.c ****       else
1006:../../lib/STM32F4xx_StdPeriph_Driver/src/stm32f4xx_flash.c ****       {
1007:../../lib/STM32F4xx_StdPeriph_Driver/src/stm32f4xx_flash.c ****         if((FLASH->SR & FLASH_FLAG_OPERR) != (uint32_t)0x00)
1008:../../lib/STM32F4xx_StdPeriph_Driver/src/stm32f4xx_flash.c ****         {
1009:../../lib/STM32F4xx_StdPeriph_Driver/src/stm32f4xx_flash.c ****           flashstatus = FLASH_ERROR_OPERATION;
1010:../../lib/STM32F4xx_StdPeriph_Driver/src/stm32f4xx_flash.c ****         }
1011:../../lib/STM32F4xx_StdPeriph_Driver/src/stm32f4xx_flash.c ****         else
1012:../../lib/STM32F4xx_StdPeriph_Driver/src/stm32f4xx_flash.c ****         {
1013:../../lib/STM32F4xx_StdPeriph_Driver/src/stm32f4xx_flash.c ****           flashstatus = FLASH_COMPLETE;
1014:../../lib/STM32F4xx_StdPeriph_Driver/src/stm32f4xx_flash.c ****         }
1015:../../lib/STM32F4xx_StdPeriph_Driver/src/stm32f4xx_flash.c ****       }
1016:../../lib/STM32F4xx_StdPeriph_Driver/src/stm32f4xx_flash.c ****     }
1017:../../lib/STM32F4xx_StdPeriph_Driver/src/stm32f4xx_flash.c ****   }
1018:../../lib/STM32F4xx_StdPeriph_Driver/src/stm32f4xx_flash.c ****   /* Return the FLASH Status */
1019:../../lib/STM32F4xx_StdPeriph_Driver/src/stm32f4xx_flash.c ****   return flashstatus;
1020:../../lib/STM32F4xx_StdPeriph_Driver/src/stm32f4xx_flash.c **** }
1021:../../lib/STM32F4xx_StdPeriph_Driver/src/stm32f4xx_flash.c **** 
1022:../../lib/STM32F4xx_StdPeriph_Driver/src/stm32f4xx_flash.c **** /**
1023:../../lib/STM32F4xx_StdPeriph_Driver/src/stm32f4xx_flash.c ****   * @brief  Waits for a FLASH operation to complete.
1024:../../lib/STM32F4xx_StdPeriph_Driver/src/stm32f4xx_flash.c ****   * @param  None
1025:../../lib/STM32F4xx_StdPeriph_Driver/src/stm32f4xx_flash.c ****   * @retval FLASH Status: The returned value can be: FLASH_BUSY, FLASH_ERROR_PROGRAM,
1026:../../lib/STM32F4xx_StdPeriph_Driver/src/stm32f4xx_flash.c ****   *                       FLASH_ERROR_WRP, FLASH_ERROR_OPERATION or FLASH_COMPLETE.
1027:../../lib/STM32F4xx_StdPeriph_Driver/src/stm32f4xx_flash.c ****   */
1028:../../lib/STM32F4xx_StdPeriph_Driver/src/stm32f4xx_flash.c **** FLASH_Status FLASH_WaitForLastOperation(void)
1029:../../lib/STM32F4xx_StdPeriph_Driver/src/stm32f4xx_flash.c **** { 
1030:../../lib/STM32F4xx_StdPeriph_Driver/src/stm32f4xx_flash.c ****   __IO FLASH_Status status = FLASH_COMPLETE;
 303              		.loc 1 1030 0
 304 001a 0822     		movs	r2, #8
 305 001c 8DF80620 		strb	r2, [sp, #6]
 306              	.LVL7:
 307              	.LBB32:
 308              	.LBB28:
 989:../../lib/STM32F4xx_StdPeriph_Driver/src/stm32f4xx_flash.c ****   if((FLASH->SR & FLASH_FLAG_BSY) == FLASH_FLAG_BSY) 
 309              		.loc 1 989 0
 310 0020 DA68     		ldr	r2, [r3, #12]
 311 0022 D003     		lsls	r0, r2, #15
 312              	.LVL8:
 313 0024 3AD4     		bmi	.L55
 995:../../lib/STM32F4xx_StdPeriph_Driver/src/stm32f4xx_flash.c ****     if((FLASH->SR & FLASH_FLAG_WRPERR) != (uint32_t)0x00)
 314              		.loc 1 995 0
 315 0026 DA68     		ldr	r2, [r3, #12]
 316 0028 D206     		lsls	r2, r2, #27
 317 002a 24D5     		bpl	.L85
 997:../../lib/STM32F4xx_StdPeriph_Driver/src/stm32f4xx_flash.c ****       flashstatus = FLASH_ERROR_WRP;
 318              		.loc 1 997 0
 319 002c 0523     		movs	r3, #5
 320              	.L38:
 321              	.LVL9:
 322              	.LBE28:
 323              	.LBE32:
1031:../../lib/STM32F4xx_StdPeriph_Driver/src/stm32f4xx_flash.c ****    
1032:../../lib/STM32F4xx_StdPeriph_Driver/src/stm32f4xx_flash.c ****   /* Check for the FLASH Status */
1033:../../lib/STM32F4xx_StdPeriph_Driver/src/stm32f4xx_flash.c ****   status = FLASH_GetStatus();
 324              		.loc 1 1033 0
 325 002e 8DF80630 		strb	r3, [sp, #6]
1034:../../lib/STM32F4xx_StdPeriph_Driver/src/stm32f4xx_flash.c **** 
1035:../../lib/STM32F4xx_StdPeriph_Driver/src/stm32f4xx_flash.c ****   /* Wait for the FLASH operation to complete by polling on BUSY flag to be reset.
1036:../../lib/STM32F4xx_StdPeriph_Driver/src/stm32f4xx_flash.c ****      Even if the FLASH operation fails, the BUSY flag will be reset and an error
1037:../../lib/STM32F4xx_StdPeriph_Driver/src/stm32f4xx_flash.c ****      flag will be set */
1038:../../lib/STM32F4xx_StdPeriph_Driver/src/stm32f4xx_flash.c ****   while(status == FLASH_BUSY)
 326              		.loc 1 1038 0
 327 0032 9DF80630 		ldrb	r3, [sp, #6]	@ zero_extendqisi2
 328              	.LVL10:
 329 0036 012B     		cmp	r3, #1
 330 0038 15D1     		bne	.L45
 331              	.LBB33:
 332              	.LBB34:
 989:../../lib/STM32F4xx_StdPeriph_Driver/src/stm32f4xx_flash.c ****   if((FLASH->SR & FLASH_FLAG_BSY) == FLASH_FLAG_BSY) 
 333              		.loc 1 989 0
 334 003a 4F4A     		ldr	r2, .L96
 335 003c 09E0     		b	.L80
 336              	.LVL11:
 337              	.L87:
 995:../../lib/STM32F4xx_StdPeriph_Driver/src/stm32f4xx_flash.c ****     if((FLASH->SR & FLASH_FLAG_WRPERR) != (uint32_t)0x00)
 338              		.loc 1 995 0
 339 003e D368     		ldr	r3, [r2, #12]
 340 0040 D806     		lsls	r0, r3, #27
 341 0042 1ED5     		bpl	.L86
 997:../../lib/STM32F4xx_StdPeriph_Driver/src/stm32f4xx_flash.c ****       flashstatus = FLASH_ERROR_WRP;
 342              		.loc 1 997 0
 343 0044 0523     		movs	r3, #5
 344              	.L43:
 345              	.LVL12:
 346              	.LBE34:
 347              	.LBE33:
1039:../../lib/STM32F4xx_StdPeriph_Driver/src/stm32f4xx_flash.c ****   {
1040:../../lib/STM32F4xx_StdPeriph_Driver/src/stm32f4xx_flash.c ****     status = FLASH_GetStatus();
 348              		.loc 1 1040 0
 349 0046 8DF80630 		strb	r3, [sp, #6]
 350              	.LVL13:
1038:../../lib/STM32F4xx_StdPeriph_Driver/src/stm32f4xx_flash.c ****   while(status == FLASH_BUSY)
 351              		.loc 1 1038 0
 352 004a 9DF80630 		ldrb	r3, [sp, #6]	@ zero_extendqisi2
 353              	.LVL14:
 354 004e 012B     		cmp	r3, #1
 355 0050 09D1     		bne	.L45
 356              	.L80:
 357              	.LVL15:
 358              	.LBB39:
 359              	.LBB37:
 989:../../lib/STM32F4xx_StdPeriph_Driver/src/stm32f4xx_flash.c ****   if((FLASH->SR & FLASH_FLAG_BSY) == FLASH_FLAG_BSY) 
 360              		.loc 1 989 0
 361 0052 D368     		ldr	r3, [r2, #12]
 362              	.LVL16:
 363 0054 DB03     		lsls	r3, r3, #15
 364 0056 F2D5     		bpl	.L87
 991:../../lib/STM32F4xx_StdPeriph_Driver/src/stm32f4xx_flash.c ****     flashstatus = FLASH_BUSY;
 365              		.loc 1 991 0
 366 0058 0123     		movs	r3, #1
 367              	.LVL17:
 368              	.LBE37:
 369              	.LBE39:
 370              		.loc 1 1040 0
 371 005a 8DF80630 		strb	r3, [sp, #6]
 372              	.LVL18:
1038:../../lib/STM32F4xx_StdPeriph_Driver/src/stm32f4xx_flash.c ****   while(status == FLASH_BUSY)
 373              		.loc 1 1038 0
 374 005e 9DF80630 		ldrb	r3, [sp, #6]	@ zero_extendqisi2
 375              	.LVL19:
 376 0062 012B     		cmp	r3, #1
 377 0064 F5D0     		beq	.L80
 378              	.LVL20:
 379              	.L45:
1041:../../lib/STM32F4xx_StdPeriph_Driver/src/stm32f4xx_flash.c ****   }
1042:../../lib/STM32F4xx_StdPeriph_Driver/src/stm32f4xx_flash.c ****   /* Return the operation status */
1043:../../lib/STM32F4xx_StdPeriph_Driver/src/stm32f4xx_flash.c ****   return status;
 380              		.loc 1 1043 0
 381 0066 9DF80620 		ldrb	r2, [sp, #6]	@ zero_extendqisi2
 382              	.LVL21:
 383 006a 1046     		mov	r0, r2
 384              	.LVL22:
 385              	.LBE23:
 386              	.LBE22:
 375:../../lib/STM32F4xx_StdPeriph_Driver/src/stm32f4xx_flash.c ****   if(status == FLASH_COMPLETE)
 387              		.loc 1 375 0
 388 006c 082A     		cmp	r2, #8
 389 006e 21D0     		beq	.L88
 390              	.LVL23:
 391              	.L42:
 392              	.LVL24:
 393:../../lib/STM32F4xx_StdPeriph_Driver/src/stm32f4xx_flash.c **** }
 393              		.loc 1 393 0
 394 0070 03B0     		add	sp, sp, #12
 395 0072 10BC     		pop	{r4}
 396 0074 7047     		bx	lr
 397              	.LVL25:
 398              	.L85:
 399              	.LBB46:
 400              	.LBB44:
 401              	.LBB40:
 402              	.LBB29:
1001:../../lib/STM32F4xx_StdPeriph_Driver/src/stm32f4xx_flash.c ****       if((FLASH->SR & (uint32_t)0xEF) != (uint32_t)0x00)
 403              		.loc 1 1001 0
 404 0076 DA68     		ldr	r2, [r3, #12]
 405 0078 12F0EF0F 		tst	r2, #239
 406 007c 13D0     		beq	.L89
1003:../../lib/STM32F4xx_StdPeriph_Driver/src/stm32f4xx_flash.c ****         flashstatus = FLASH_ERROR_PROGRAM; 
 407              		.loc 1 1003 0
 408 007e 0623     		movs	r3, #6
 409 0080 D5E7     		b	.L38
 410              	.LVL26:
 411              	.L86:
 412              	.LBE29:
 413              	.LBE40:
 414              	.LBB41:
 415              	.LBB38:
1001:../../lib/STM32F4xx_StdPeriph_Driver/src/stm32f4xx_flash.c ****       if((FLASH->SR & (uint32_t)0xEF) != (uint32_t)0x00)
 416              		.loc 1 1001 0
 417 0082 D368     		ldr	r3, [r2, #12]
 418 0084 13F0EF0F 		tst	r3, #239
 419 0088 01D0     		beq	.L90
1003:../../lib/STM32F4xx_StdPeriph_Driver/src/stm32f4xx_flash.c ****         flashstatus = FLASH_ERROR_PROGRAM; 
 420              		.loc 1 1003 0
 421 008a 0623     		movs	r3, #6
 422 008c DBE7     		b	.L43
 423              	.L90:
 424              	.LBB35:
 425              	.LBB36:
1007:../../lib/STM32F4xx_StdPeriph_Driver/src/stm32f4xx_flash.c ****         if((FLASH->SR & FLASH_FLAG_OPERR) != (uint32_t)0x00)
 426              		.loc 1 1007 0
 427 008e D368     		ldr	r3, [r2, #12]
1009:../../lib/STM32F4xx_StdPeriph_Driver/src/stm32f4xx_flash.c ****           flashstatus = FLASH_ERROR_OPERATION;
 428              		.loc 1 1009 0
 429 0090 13F0020F 		tst	r3, #2
 430 0094 0CBF     		ite	eq
 431 0096 0823     		moveq	r3, #8
 432 0098 0723     		movne	r3, #7
 433 009a D4E7     		b	.L43
 434              	.LVL27:
 435              	.L55:
 436              	.LBE36:
 437              	.LBE35:
 438              	.LBE38:
 439              	.LBE41:
 440              	.LBB42:
 441              	.LBB30:
 991:../../lib/STM32F4xx_StdPeriph_Driver/src/stm32f4xx_flash.c ****     flashstatus = FLASH_BUSY;
 442              		.loc 1 991 0
 443 009c 0123     		movs	r3, #1
 444 009e C6E7     		b	.L38
 445              	.LVL28:
 446              	.L53:
 447              	.LBE30:
 448              	.LBE42:
 449              	.LBE44:
 450              	.LBE46:
 362:../../lib/STM32F4xx_StdPeriph_Driver/src/stm32f4xx_flash.c ****     tmp_psize = FLASH_PSIZE_HALF_WORD;
 451              		.loc 1 362 0
 452 00a0 4FF48071 		mov	r1, #256
 453              	.LVL29:
 454 00a4 B8E7     		b	.L37
 455              	.LVL30:
 456              	.L89:
 457              	.LBB47:
 458              	.LBB45:
 459              	.LBB43:
 460              	.LBB31:
 461              	.LBB26:
 462              	.LBB27:
1007:../../lib/STM32F4xx_StdPeriph_Driver/src/stm32f4xx_flash.c ****         if((FLASH->SR & FLASH_FLAG_OPERR) != (uint32_t)0x00)
 463              		.loc 1 1007 0
 464 00a6 DB68     		ldr	r3, [r3, #12]
1009:../../lib/STM32F4xx_StdPeriph_Driver/src/stm32f4xx_flash.c ****           flashstatus = FLASH_ERROR_OPERATION;
 465              		.loc 1 1009 0
 466 00a8 13F0020F 		tst	r3, #2
 467 00ac 0CBF     		ite	eq
 468 00ae 0823     		moveq	r3, #8
 469 00b0 0723     		movne	r3, #7
 470 00b2 BCE7     		b	.L38
 471              	.LVL31:
 472              	.L88:
 473              	.LBE27:
 474              	.LBE26:
 475              	.LBE31:
 476              	.LBE43:
 477              	.LBE45:
 478              	.LBE47:
 378:../../lib/STM32F4xx_StdPeriph_Driver/src/stm32f4xx_flash.c ****     FLASH->CR &= CR_PSIZE_MASK;
 479              		.loc 1 378 0
 480 00b4 304B     		ldr	r3, .L96
 481 00b6 1869     		ldr	r0, [r3, #16]
 482 00b8 20F44070 		bic	r0, r0, #768
 483 00bc 1861     		str	r0, [r3, #16]
 379:../../lib/STM32F4xx_StdPeriph_Driver/src/stm32f4xx_flash.c ****     FLASH->CR |= tmp_psize;
 484              		.loc 1 379 0
 485 00be 1869     		ldr	r0, [r3, #16]
 486 00c0 0143     		orrs	r1, r1, r0
 487              	.LVL32:
 488 00c2 1961     		str	r1, [r3, #16]
 380:../../lib/STM32F4xx_StdPeriph_Driver/src/stm32f4xx_flash.c ****     FLASH->CR &= SECTOR_MASK;
 489              		.loc 1 380 0
 490 00c4 1969     		ldr	r1, [r3, #16]
 491 00c6 21F0F801 		bic	r1, r1, #248
 492 00ca 1961     		str	r1, [r3, #16]
 381:../../lib/STM32F4xx_StdPeriph_Driver/src/stm32f4xx_flash.c ****     FLASH->CR |= FLASH_CR_SER | FLASH_Sector;
 493              		.loc 1 381 0
 494 00cc 1969     		ldr	r1, [r3, #16]
 495 00ce 41F00201 		orr	r1, r1, #2
 496 00d2 0C43     		orrs	r4, r4, r1
 497              	.LVL33:
 498 00d4 1C61     		str	r4, [r3, #16]
 382:../../lib/STM32F4xx_StdPeriph_Driver/src/stm32f4xx_flash.c ****     FLASH->CR |= FLASH_CR_STRT;
 499              		.loc 1 382 0
 500 00d6 1969     		ldr	r1, [r3, #16]
 501 00d8 41F48031 		orr	r1, r1, #65536
 502 00dc 1961     		str	r1, [r3, #16]
 503              	.LBB48:
 504              	.LBB49:
1030:../../lib/STM32F4xx_StdPeriph_Driver/src/stm32f4xx_flash.c ****   __IO FLASH_Status status = FLASH_COMPLETE;
 505              		.loc 1 1030 0
 506 00de 8DF80720 		strb	r2, [sp, #7]
 507              	.LVL34:
 508              	.LBB50:
 509              	.LBB51:
 989:../../lib/STM32F4xx_StdPeriph_Driver/src/stm32f4xx_flash.c ****   if((FLASH->SR & FLASH_FLAG_BSY) == FLASH_FLAG_BSY) 
 510              		.loc 1 989 0
 511 00e2 DA68     		ldr	r2, [r3, #12]
 512              	.LVL35:
 513 00e4 D203     		lsls	r2, r2, #15
 514 00e6 38D4     		bmi	.L63
 995:../../lib/STM32F4xx_StdPeriph_Driver/src/stm32f4xx_flash.c ****     if((FLASH->SR & FLASH_FLAG_WRPERR) != (uint32_t)0x00)
 515              		.loc 1 995 0
 516 00e8 DA68     		ldr	r2, [r3, #12]
 517 00ea D006     		lsls	r0, r2, #27
 518 00ec 37D5     		bpl	.L91
 997:../../lib/STM32F4xx_StdPeriph_Driver/src/stm32f4xx_flash.c ****       flashstatus = FLASH_ERROR_WRP;
 519              		.loc 1 997 0
 520 00ee 0523     		movs	r3, #5
 521              	.L46:
 522              	.LVL36:
 523              	.LBE51:
 524              	.LBE50:
1033:../../lib/STM32F4xx_StdPeriph_Driver/src/stm32f4xx_flash.c ****   status = FLASH_GetStatus();
 525              		.loc 1 1033 0
 526 00f0 8DF80730 		strb	r3, [sp, #7]
1038:../../lib/STM32F4xx_StdPeriph_Driver/src/stm32f4xx_flash.c ****   while(status == FLASH_BUSY)
 527              		.loc 1 1038 0
 528 00f4 9DF80730 		ldrb	r3, [sp, #7]	@ zero_extendqisi2
 529              	.LVL37:
 530 00f8 012B     		cmp	r3, #1
 531 00fa 15D1     		bne	.L51
 532              	.LBB55:
 533              	.LBB56:
 989:../../lib/STM32F4xx_StdPeriph_Driver/src/stm32f4xx_flash.c ****   if((FLASH->SR & FLASH_FLAG_BSY) == FLASH_FLAG_BSY) 
 534              		.loc 1 989 0
 535 00fc 1E4A     		ldr	r2, .L96
 536 00fe 09E0     		b	.L79
 537              	.LVL38:
 538              	.L93:
 995:../../lib/STM32F4xx_StdPeriph_Driver/src/stm32f4xx_flash.c ****     if((FLASH->SR & FLASH_FLAG_WRPERR) != (uint32_t)0x00)
 539              		.loc 1 995 0
 540 0100 D368     		ldr	r3, [r2, #12]
 541 0102 DB06     		lsls	r3, r3, #27
 542 0104 1CD5     		bpl	.L92
 997:../../lib/STM32F4xx_StdPeriph_Driver/src/stm32f4xx_flash.c ****       flashstatus = FLASH_ERROR_WRP;
 543              		.loc 1 997 0
 544 0106 0523     		movs	r3, #5
 545              	.L49:
 546              	.LVL39:
 547              	.LBE56:
 548              	.LBE55:
1040:../../lib/STM32F4xx_StdPeriph_Driver/src/stm32f4xx_flash.c ****     status = FLASH_GetStatus();
 549              		.loc 1 1040 0
 550 0108 8DF80730 		strb	r3, [sp, #7]
 551              	.LVL40:
1038:../../lib/STM32F4xx_StdPeriph_Driver/src/stm32f4xx_flash.c ****   while(status == FLASH_BUSY)
 552              		.loc 1 1038 0
 553 010c 9DF80730 		ldrb	r3, [sp, #7]	@ zero_extendqisi2
 554              	.LVL41:
 555 0110 012B     		cmp	r3, #1
 556 0112 09D1     		bne	.L51
 557              	.L79:
 558              	.LVL42:
 559              	.LBB61:
 560              	.LBB59:
 989:../../lib/STM32F4xx_StdPeriph_Driver/src/stm32f4xx_flash.c ****   if((FLASH->SR & FLASH_FLAG_BSY) == FLASH_FLAG_BSY) 
 561              		.loc 1 989 0
 562 0114 D368     		ldr	r3, [r2, #12]
 563              	.LVL43:
 564 0116 D903     		lsls	r1, r3, #15
 565 0118 F2D5     		bpl	.L93
 991:../../lib/STM32F4xx_StdPeriph_Driver/src/stm32f4xx_flash.c ****     flashstatus = FLASH_BUSY;
 566              		.loc 1 991 0
 567 011a 0123     		movs	r3, #1
 568              	.LVL44:
 569              	.LBE59:
 570              	.LBE61:
1040:../../lib/STM32F4xx_StdPeriph_Driver/src/stm32f4xx_flash.c ****     status = FLASH_GetStatus();
 571              		.loc 1 1040 0
 572 011c 8DF80730 		strb	r3, [sp, #7]
 573              	.LVL45:
1038:../../lib/STM32F4xx_StdPeriph_Driver/src/stm32f4xx_flash.c ****   while(status == FLASH_BUSY)
 574              		.loc 1 1038 0
 575 0120 9DF80730 		ldrb	r3, [sp, #7]	@ zero_extendqisi2
 576              	.LVL46:
 577 0124 012B     		cmp	r3, #1
 578 0126 F5D0     		beq	.L79
 579              	.LVL47:
 580              	.L51:
 581              	.LBE49:
 582              	.LBE48:
 388:../../lib/STM32F4xx_StdPeriph_Driver/src/stm32f4xx_flash.c ****     FLASH->CR &= (~FLASH_CR_SER);
 583              		.loc 1 388 0
 584 0128 134B     		ldr	r3, .L96
 585              	.LVL48:
 586              	.LBB66:
 587              	.LBB64:
 588              		.loc 1 1043 0
 589 012a 9DF80700 		ldrb	r0, [sp, #7]	@ zero_extendqisi2
 590              	.LVL49:
 591              	.LBE64:
 592              	.LBE66:
 388:../../lib/STM32F4xx_StdPeriph_Driver/src/stm32f4xx_flash.c ****     FLASH->CR &= (~FLASH_CR_SER);
 593              		.loc 1 388 0
 594 012e 1A69     		ldr	r2, [r3, #16]
 595 0130 22F00202 		bic	r2, r2, #2
 596 0134 1A61     		str	r2, [r3, #16]
 389:../../lib/STM32F4xx_StdPeriph_Driver/src/stm32f4xx_flash.c ****     FLASH->CR &= SECTOR_MASK; 
 597              		.loc 1 389 0
 598 0136 1A69     		ldr	r2, [r3, #16]
 599 0138 22F0F802 		bic	r2, r2, #248
 600 013c 1A61     		str	r2, [r3, #16]
 601 013e 97E7     		b	.L42
 602              	.LVL50:
 603              	.L92:
 604              	.LBB67:
 605              	.LBB65:
 606              	.LBB62:
 607              	.LBB60:
1001:../../lib/STM32F4xx_StdPeriph_Driver/src/stm32f4xx_flash.c ****       if((FLASH->SR & (uint32_t)0xEF) != (uint32_t)0x00)
 608              		.loc 1 1001 0
 609 0140 D368     		ldr	r3, [r2, #12]
 610 0142 13F0EF0F 		tst	r3, #239
 611 0146 01D0     		beq	.L94
1003:../../lib/STM32F4xx_StdPeriph_Driver/src/stm32f4xx_flash.c ****         flashstatus = FLASH_ERROR_PROGRAM; 
 612              		.loc 1 1003 0
 613 0148 0623     		movs	r3, #6
 614 014a DDE7     		b	.L49
 615              	.L94:
 616              	.LBB57:
 617              	.LBB58:
1007:../../lib/STM32F4xx_StdPeriph_Driver/src/stm32f4xx_flash.c ****         if((FLASH->SR & FLASH_FLAG_OPERR) != (uint32_t)0x00)
 618              		.loc 1 1007 0
 619 014c D368     		ldr	r3, [r2, #12]
1009:../../lib/STM32F4xx_StdPeriph_Driver/src/stm32f4xx_flash.c ****           flashstatus = FLASH_ERROR_OPERATION;
 620              		.loc 1 1009 0
 621 014e 13F0020F 		tst	r3, #2
 622 0152 0CBF     		ite	eq
 623 0154 0823     		moveq	r3, #8
 624 0156 0723     		movne	r3, #7
 625 0158 D6E7     		b	.L49
 626              	.LVL51:
 627              	.L63:
 628              	.LBE58:
 629              	.LBE57:
 630              	.LBE60:
 631              	.LBE62:
 632              	.LBB63:
 633              	.LBB54:
 991:../../lib/STM32F4xx_StdPeriph_Driver/src/stm32f4xx_flash.c ****     flashstatus = FLASH_BUSY;
 634              		.loc 1 991 0
 635 015a 0123     		movs	r3, #1
 636 015c C8E7     		b	.L46
 637              	.L91:
1001:../../lib/STM32F4xx_StdPeriph_Driver/src/stm32f4xx_flash.c ****       if((FLASH->SR & (uint32_t)0xEF) != (uint32_t)0x00)
 638              		.loc 1 1001 0
 639 015e DA68     		ldr	r2, [r3, #12]
 640 0160 12F0EF0F 		tst	r2, #239
 641 0164 01D0     		beq	.L95
1003:../../lib/STM32F4xx_StdPeriph_Driver/src/stm32f4xx_flash.c ****         flashstatus = FLASH_ERROR_PROGRAM; 
 642              		.loc 1 1003 0
 643 0166 0623     		movs	r3, #6
 644 0168 C2E7     		b	.L46
 645              	.L95:
 646              	.LBB52:
 647              	.LBB53:
1007:../../lib/STM32F4xx_StdPeriph_Driver/src/stm32f4xx_flash.c ****         if((FLASH->SR & FLASH_FLAG_OPERR) != (uint32_t)0x00)
 648              		.loc 1 1007 0
 649 016a DB68     		ldr	r3, [r3, #12]
1009:../../lib/STM32F4xx_StdPeriph_Driver/src/stm32f4xx_flash.c ****           flashstatus = FLASH_ERROR_OPERATION;
 650              		.loc 1 1009 0
 651 016c 13F0020F 		tst	r3, #2
 652 0170 0CBF     		ite	eq
 653 0172 0823     		moveq	r3, #8
 654 0174 0723     		movne	r3, #7
 655 0176 BBE7     		b	.L46
 656              	.L97:
 657              		.align	2
 658              	.L96:
 659 0178 003C0240 		.word	1073888256
 660              	.LBE53:
 661              	.LBE52:
 662              	.LBE54:
 663              	.LBE63:
 664              	.LBE65:
 665              	.LBE67:
 666              		.cfi_endproc
 667              	.LFE118:
 669              		.section	.text.FLASH_EraseAllSectors,"ax",%progbits
 670              		.align	2
 671              		.global	FLASH_EraseAllSectors
 672              		.thumb
 673              		.thumb_func
 675              	FLASH_EraseAllSectors:
 676              	.LFB119:
 413:../../lib/STM32F4xx_StdPeriph_Driver/src/stm32f4xx_flash.c **** {
 677              		.loc 1 413 0
 678              		.cfi_startproc
 679              		@ args = 0, pretend = 0, frame = 8
 680              		@ frame_needed = 0, uses_anonymous_args = 0
 681              		@ link register save eliminated.
 682              	.LVL52:
 683 0000 82B0     		sub	sp, sp, #8
 684              	.LCFI2:
 685              		.cfi_def_cfa_offset 8
 686              	.LVL53:
 687              	.LBB88:
 688              	.LBB89:
 689              	.LBB90:
 690              	.LBB91:
 989:../../lib/STM32F4xx_StdPeriph_Driver/src/stm32f4xx_flash.c ****   if((FLASH->SR & FLASH_FLAG_BSY) == FLASH_FLAG_BSY) 
 691              		.loc 1 989 0
 692 0002 584B     		ldr	r3, .L159
 693              	.LBE91:
 694              	.LBE90:
1030:../../lib/STM32F4xx_StdPeriph_Driver/src/stm32f4xx_flash.c ****   __IO FLASH_Status status = FLASH_COMPLETE;
 695              		.loc 1 1030 0
 696 0004 0822     		movs	r2, #8
 697 0006 8DF80620 		strb	r2, [sp, #6]
 698              	.LVL54:
 699              	.LBB97:
 700              	.LBB94:
 989:../../lib/STM32F4xx_StdPeriph_Driver/src/stm32f4xx_flash.c ****   if((FLASH->SR & FLASH_FLAG_BSY) == FLASH_FLAG_BSY) 
 701              		.loc 1 989 0
 702 000a DA68     		ldr	r2, [r3, #12]
 703 000c D103     		lsls	r1, r2, #15
 704 000e 43D4     		bmi	.L114
 995:../../lib/STM32F4xx_StdPeriph_Driver/src/stm32f4xx_flash.c ****     if((FLASH->SR & FLASH_FLAG_WRPERR) != (uint32_t)0x00)
 705              		.loc 1 995 0
 706 0010 DA68     		ldr	r2, [r3, #12]
 707 0012 D206     		lsls	r2, r2, #27
 708 0014 2DD5     		bpl	.L148
 997:../../lib/STM32F4xx_StdPeriph_Driver/src/stm32f4xx_flash.c ****       flashstatus = FLASH_ERROR_WRP;
 709              		.loc 1 997 0
 710 0016 0523     		movs	r3, #5
 711              	.L99:
 712              	.LVL55:
 713              	.LBE94:
 714              	.LBE97:
1033:../../lib/STM32F4xx_StdPeriph_Driver/src/stm32f4xx_flash.c ****   status = FLASH_GetStatus();
 715              		.loc 1 1033 0
 716 0018 8DF80630 		strb	r3, [sp, #6]
1038:../../lib/STM32F4xx_StdPeriph_Driver/src/stm32f4xx_flash.c ****   while(status == FLASH_BUSY)
 717              		.loc 1 1038 0
 718 001c 9DF80630 		ldrb	r3, [sp, #6]	@ zero_extendqisi2
 719              	.LVL56:
 720 0020 012B     		cmp	r3, #1
 721 0022 15D1     		bne	.L106
 722              	.LBB98:
 723              	.LBB99:
 989:../../lib/STM32F4xx_StdPeriph_Driver/src/stm32f4xx_flash.c ****   if((FLASH->SR & FLASH_FLAG_BSY) == FLASH_FLAG_BSY) 
 724              		.loc 1 989 0
 725 0024 4F4A     		ldr	r2, .L159
 726 0026 09E0     		b	.L142
 727              	.LVL57:
 728              	.L150:
 995:../../lib/STM32F4xx_StdPeriph_Driver/src/stm32f4xx_flash.c ****     if((FLASH->SR & FLASH_FLAG_WRPERR) != (uint32_t)0x00)
 729              		.loc 1 995 0
 730 0028 D368     		ldr	r3, [r2, #12]
 731 002a D906     		lsls	r1, r3, #27
 732 002c 27D5     		bpl	.L149
 997:../../lib/STM32F4xx_StdPeriph_Driver/src/stm32f4xx_flash.c ****       flashstatus = FLASH_ERROR_WRP;
 733              		.loc 1 997 0
 734 002e 0523     		movs	r3, #5
 735              	.L104:
 736              	.LVL58:
 737              	.LBE99:
 738              	.LBE98:
1040:../../lib/STM32F4xx_StdPeriph_Driver/src/stm32f4xx_flash.c ****     status = FLASH_GetStatus();
 739              		.loc 1 1040 0
 740 0030 8DF80630 		strb	r3, [sp, #6]
 741              	.LVL59:
1038:../../lib/STM32F4xx_StdPeriph_Driver/src/stm32f4xx_flash.c ****   while(status == FLASH_BUSY)
 742              		.loc 1 1038 0
 743 0034 9DF80630 		ldrb	r3, [sp, #6]	@ zero_extendqisi2
 744              	.LVL60:
 745 0038 012B     		cmp	r3, #1
 746 003a 09D1     		bne	.L106
 747              	.L142:
 748              	.LVL61:
 749              	.LBB104:
 750              	.LBB102:
 989:../../lib/STM32F4xx_StdPeriph_Driver/src/stm32f4xx_flash.c ****   if((FLASH->SR & FLASH_FLAG_BSY) == FLASH_FLAG_BSY) 
 751              		.loc 1 989 0
 752 003c D368     		ldr	r3, [r2, #12]
 753              	.LVL62:
 754 003e DB03     		lsls	r3, r3, #15
 755 0040 F2D5     		bpl	.L150
 991:../../lib/STM32F4xx_StdPeriph_Driver/src/stm32f4xx_flash.c ****     flashstatus = FLASH_BUSY;
 756              		.loc 1 991 0
 757 0042 0123     		movs	r3, #1
 758              	.LVL63:
 759              	.LBE102:
 760              	.LBE104:
1040:../../lib/STM32F4xx_StdPeriph_Driver/src/stm32f4xx_flash.c ****     status = FLASH_GetStatus();
 761              		.loc 1 1040 0
 762 0044 8DF80630 		strb	r3, [sp, #6]
 763              	.LVL64:
1038:../../lib/STM32F4xx_StdPeriph_Driver/src/stm32f4xx_flash.c ****   while(status == FLASH_BUSY)
 764              		.loc 1 1038 0
 765 0048 9DF80630 		ldrb	r3, [sp, #6]	@ zero_extendqisi2
 766              	.LVL65:
 767 004c 012B     		cmp	r3, #1
 768 004e F5D0     		beq	.L142
 769              	.LVL66:
 770              	.L106:
 771              		.loc 1 1043 0
 772 0050 9DF80620 		ldrb	r2, [sp, #6]	@ zero_extendqisi2
 773              	.LVL67:
 774 0054 D3B2     		uxtb	r3, r2
 775              	.LVL68:
 776              	.LBE89:
 777              	.LBE88:
 421:../../lib/STM32F4xx_StdPeriph_Driver/src/stm32f4xx_flash.c ****   if(VoltageRange == VoltageRange_1)
 778              		.loc 1 421 0
 779 0056 38B1     		cbz	r0, .L102
 425:../../lib/STM32F4xx_StdPeriph_Driver/src/stm32f4xx_flash.c ****   else if(VoltageRange == VoltageRange_2)
 780              		.loc 1 425 0
 781 0058 0128     		cmp	r0, #1
 782 005a 69D0     		beq	.L123
 431:../../lib/STM32F4xx_StdPeriph_Driver/src/stm32f4xx_flash.c ****     tmp_psize = FLASH_PSIZE_WORD;
 783              		.loc 1 431 0
 784 005c 0228     		cmp	r0, #2
 785 005e 14BF     		ite	ne
 786 0060 4FF44070 		movne	r0, #768
 787 0064 4FF40070 		moveq	r0, #512
 788              	.LVL69:
 789              	.L102:
 437:../../lib/STM32F4xx_StdPeriph_Driver/src/stm32f4xx_flash.c ****   if(status == FLASH_COMPLETE)
 790              		.loc 1 437 0
 791 0068 082B     		cmp	r3, #8
 792 006a 1ED0     		beq	.L151
 793              	.LVL70:
 794              	.L107:
 454:../../lib/STM32F4xx_StdPeriph_Driver/src/stm32f4xx_flash.c **** }
 795              		.loc 1 454 0
 796 006c 1846     		mov	r0, r3
 797 006e 02B0     		add	sp, sp, #8
 798 0070 7047     		bx	lr
 799              	.LVL71:
 800              	.L148:
 801              	.LBB109:
 802              	.LBB108:
 803              	.LBB105:
 804              	.LBB95:
1001:../../lib/STM32F4xx_StdPeriph_Driver/src/stm32f4xx_flash.c ****       if((FLASH->SR & (uint32_t)0xEF) != (uint32_t)0x00)
 805              		.loc 1 1001 0
 806 0072 DA68     		ldr	r2, [r3, #12]
 807 0074 12F0EF0F 		tst	r2, #239
 808 0078 10D0     		beq	.L152
1003:../../lib/STM32F4xx_StdPeriph_Driver/src/stm32f4xx_flash.c ****         flashstatus = FLASH_ERROR_PROGRAM; 
 809              		.loc 1 1003 0
 810 007a 0623     		movs	r3, #6
 811 007c CCE7     		b	.L99
 812              	.LVL72:
 813              	.L149:
 814              	.LBE95:
 815              	.LBE105:
 816              	.LBB106:
 817              	.LBB103:
1001:../../lib/STM32F4xx_StdPeriph_Driver/src/stm32f4xx_flash.c ****       if((FLASH->SR & (uint32_t)0xEF) != (uint32_t)0x00)
 818              		.loc 1 1001 0
 819 007e D368     		ldr	r3, [r2, #12]
 820 0080 13F0EF0F 		tst	r3, #239
 821 0084 01D0     		beq	.L153
1003:../../lib/STM32F4xx_StdPeriph_Driver/src/stm32f4xx_flash.c ****         flashstatus = FLASH_ERROR_PROGRAM; 
 822              		.loc 1 1003 0
 823 0086 0623     		movs	r3, #6
 824 0088 D2E7     		b	.L104
 825              	.L153:
 826              	.LBB100:
 827              	.LBB101:
1007:../../lib/STM32F4xx_StdPeriph_Driver/src/stm32f4xx_flash.c ****         if((FLASH->SR & FLASH_FLAG_OPERR) != (uint32_t)0x00)
 828              		.loc 1 1007 0
 829 008a D368     		ldr	r3, [r2, #12]
1009:../../lib/STM32F4xx_StdPeriph_Driver/src/stm32f4xx_flash.c ****           flashstatus = FLASH_ERROR_OPERATION;
 830              		.loc 1 1009 0
 831 008c 13F0020F 		tst	r3, #2
 832 0090 0CBF     		ite	eq
 833 0092 0823     		moveq	r3, #8
 834 0094 0723     		movne	r3, #7
 835 0096 CBE7     		b	.L104
 836              	.LVL73:
 837              	.L114:
 838              	.LBE101:
 839              	.LBE100:
 840              	.LBE103:
 841              	.LBE106:
 842              	.LBB107:
 843              	.LBB96:
 991:../../lib/STM32F4xx_StdPeriph_Driver/src/stm32f4xx_flash.c ****     flashstatus = FLASH_BUSY;
 844              		.loc 1 991 0
 845 0098 0123     		movs	r3, #1
 846 009a BDE7     		b	.L99
 847              	.L152:
 848              	.LBB92:
 849              	.LBB93:
1007:../../lib/STM32F4xx_StdPeriph_Driver/src/stm32f4xx_flash.c ****         if((FLASH->SR & FLASH_FLAG_OPERR) != (uint32_t)0x00)
 850              		.loc 1 1007 0
 851 009c DB68     		ldr	r3, [r3, #12]
1009:../../lib/STM32F4xx_StdPeriph_Driver/src/stm32f4xx_flash.c ****           flashstatus = FLASH_ERROR_OPERATION;
 852              		.loc 1 1009 0
 853 009e 13F0020F 		tst	r3, #2
 854 00a2 0CBF     		ite	eq
 855 00a4 0823     		moveq	r3, #8
 856 00a6 0723     		movne	r3, #7
 857 00a8 B6E7     		b	.L99
 858              	.LVL74:
 859              	.L151:
 860              	.LBE93:
 861              	.LBE92:
 862              	.LBE96:
 863              	.LBE107:
 864              	.LBE108:
 865              	.LBE109:
 440:../../lib/STM32F4xx_StdPeriph_Driver/src/stm32f4xx_flash.c ****      FLASH->CR &= CR_PSIZE_MASK;
 866              		.loc 1 440 0
 867 00aa 2E4B     		ldr	r3, .L159
 868 00ac 1969     		ldr	r1, [r3, #16]
 869 00ae 21F44071 		bic	r1, r1, #768
 870 00b2 1961     		str	r1, [r3, #16]
 441:../../lib/STM32F4xx_StdPeriph_Driver/src/stm32f4xx_flash.c ****      FLASH->CR |= tmp_psize;
 871              		.loc 1 441 0
 872 00b4 1969     		ldr	r1, [r3, #16]
 873 00b6 0843     		orrs	r0, r0, r1
 874              	.LVL75:
 875 00b8 1861     		str	r0, [r3, #16]
 442:../../lib/STM32F4xx_StdPeriph_Driver/src/stm32f4xx_flash.c ****      FLASH->CR |= FLASH_CR_MER;
 876              		.loc 1 442 0
 877 00ba 1969     		ldr	r1, [r3, #16]
 878 00bc 41F00401 		orr	r1, r1, #4
 879 00c0 1961     		str	r1, [r3, #16]
 443:../../lib/STM32F4xx_StdPeriph_Driver/src/stm32f4xx_flash.c ****      FLASH->CR |= FLASH_CR_STRT;
 880              		.loc 1 443 0
 881 00c2 1969     		ldr	r1, [r3, #16]
 882 00c4 41F48031 		orr	r1, r1, #65536
 883 00c8 1961     		str	r1, [r3, #16]
 884              	.LBB110:
 885              	.LBB111:
1030:../../lib/STM32F4xx_StdPeriph_Driver/src/stm32f4xx_flash.c ****   __IO FLASH_Status status = FLASH_COMPLETE;
 886              		.loc 1 1030 0
 887 00ca 8DF80720 		strb	r2, [sp, #7]
 888              	.LVL76:
 889              	.LBB112:
 890              	.LBB113:
 989:../../lib/STM32F4xx_StdPeriph_Driver/src/stm32f4xx_flash.c ****   if((FLASH->SR & FLASH_FLAG_BSY) == FLASH_FLAG_BSY) 
 891              		.loc 1 989 0
 892 00ce DA68     		ldr	r2, [r3, #12]
 893              	.LVL77:
 894 00d0 D203     		lsls	r2, r2, #15
 895 00d2 37D4     		bmi	.L125
 995:../../lib/STM32F4xx_StdPeriph_Driver/src/stm32f4xx_flash.c ****     if((FLASH->SR & FLASH_FLAG_WRPERR) != (uint32_t)0x00)
 896              		.loc 1 995 0
 897 00d4 DA68     		ldr	r2, [r3, #12]
 898 00d6 D006     		lsls	r0, r2, #27
 899 00d8 36D5     		bpl	.L154
 997:../../lib/STM32F4xx_StdPeriph_Driver/src/stm32f4xx_flash.c ****       flashstatus = FLASH_ERROR_WRP;
 900              		.loc 1 997 0
 901 00da 0523     		movs	r3, #5
 902              	.L108:
 903              	.LVL78:
 904              	.LBE113:
 905              	.LBE112:
1033:../../lib/STM32F4xx_StdPeriph_Driver/src/stm32f4xx_flash.c ****   status = FLASH_GetStatus();
 906              		.loc 1 1033 0
 907 00dc 8DF80730 		strb	r3, [sp, #7]
1038:../../lib/STM32F4xx_StdPeriph_Driver/src/stm32f4xx_flash.c ****   while(status == FLASH_BUSY)
 908              		.loc 1 1038 0
 909 00e0 9DF80730 		ldrb	r3, [sp, #7]	@ zero_extendqisi2
 910              	.LVL79:
 911 00e4 012B     		cmp	r3, #1
 912 00e6 15D1     		bne	.L113
 913              	.LBB117:
 914              	.LBB118:
 989:../../lib/STM32F4xx_StdPeriph_Driver/src/stm32f4xx_flash.c ****   if((FLASH->SR & FLASH_FLAG_BSY) == FLASH_FLAG_BSY) 
 915              		.loc 1 989 0
 916 00e8 1E4A     		ldr	r2, .L159
 917 00ea 09E0     		b	.L141
 918              	.LVL80:
 919              	.L156:
 995:../../lib/STM32F4xx_StdPeriph_Driver/src/stm32f4xx_flash.c ****     if((FLASH->SR & FLASH_FLAG_WRPERR) != (uint32_t)0x00)
 920              		.loc 1 995 0
 921 00ec D368     		ldr	r3, [r2, #12]
 922 00ee DB06     		lsls	r3, r3, #27
 923 00f0 18D5     		bpl	.L155
 997:../../lib/STM32F4xx_StdPeriph_Driver/src/stm32f4xx_flash.c ****       flashstatus = FLASH_ERROR_WRP;
 924              		.loc 1 997 0
 925 00f2 0523     		movs	r3, #5
 926              	.L111:
 927              	.LVL81:
 928              	.LBE118:
 929              	.LBE117:
1040:../../lib/STM32F4xx_StdPeriph_Driver/src/stm32f4xx_flash.c ****     status = FLASH_GetStatus();
 930              		.loc 1 1040 0
 931 00f4 8DF80730 		strb	r3, [sp, #7]
 932              	.LVL82:
1038:../../lib/STM32F4xx_StdPeriph_Driver/src/stm32f4xx_flash.c ****   while(status == FLASH_BUSY)
 933              		.loc 1 1038 0
 934 00f8 9DF80730 		ldrb	r3, [sp, #7]	@ zero_extendqisi2
 935              	.LVL83:
 936 00fc 012B     		cmp	r3, #1
 937 00fe 09D1     		bne	.L113
 938              	.L141:
 939              	.LVL84:
 940              	.LBB124:
 941              	.LBB121:
 989:../../lib/STM32F4xx_StdPeriph_Driver/src/stm32f4xx_flash.c ****   if((FLASH->SR & FLASH_FLAG_BSY) == FLASH_FLAG_BSY) 
 942              		.loc 1 989 0
 943 0100 D368     		ldr	r3, [r2, #12]
 944              	.LVL85:
 945 0102 D903     		lsls	r1, r3, #15
 946 0104 F2D5     		bpl	.L156
 991:../../lib/STM32F4xx_StdPeriph_Driver/src/stm32f4xx_flash.c ****     flashstatus = FLASH_BUSY;
 947              		.loc 1 991 0
 948 0106 0123     		movs	r3, #1
 949              	.LVL86:
 950              	.LBE121:
 951              	.LBE124:
1040:../../lib/STM32F4xx_StdPeriph_Driver/src/stm32f4xx_flash.c ****     status = FLASH_GetStatus();
 952              		.loc 1 1040 0
 953 0108 8DF80730 		strb	r3, [sp, #7]
 954              	.LVL87:
1038:../../lib/STM32F4xx_StdPeriph_Driver/src/stm32f4xx_flash.c ****   while(status == FLASH_BUSY)
 955              		.loc 1 1038 0
 956 010c 9DF80730 		ldrb	r3, [sp, #7]	@ zero_extendqisi2
 957              	.LVL88:
 958 0110 012B     		cmp	r3, #1
 959 0112 F5D0     		beq	.L141
 960              	.LVL89:
 961              	.L113:
 962              	.LBE111:
 963              	.LBE110:
 449:../../lib/STM32F4xx_StdPeriph_Driver/src/stm32f4xx_flash.c ****     FLASH->CR &= (~FLASH_CR_MER);
 964              		.loc 1 449 0
 965 0114 134A     		ldr	r2, .L159
 966              	.LBB131:
 967              	.LBB128:
 968              		.loc 1 1043 0
 969 0116 9DF80730 		ldrb	r3, [sp, #7]	@ zero_extendqisi2
 970              	.LVL90:
 971              	.LBE128:
 972              	.LBE131:
 449:../../lib/STM32F4xx_StdPeriph_Driver/src/stm32f4xx_flash.c ****     FLASH->CR &= (~FLASH_CR_MER);
 973              		.loc 1 449 0
 974 011a 1169     		ldr	r1, [r2, #16]
 975 011c 21F00401 		bic	r1, r1, #4
 976 0120 1161     		str	r1, [r2, #16]
 977 0122 A3E7     		b	.L107
 978              	.LVL91:
 979              	.L155:
 980              	.LBB132:
 981              	.LBB129:
 982              	.LBB125:
 983              	.LBB122:
1001:../../lib/STM32F4xx_StdPeriph_Driver/src/stm32f4xx_flash.c ****       if((FLASH->SR & (uint32_t)0xEF) != (uint32_t)0x00)
 984              		.loc 1 1001 0
 985 0124 D368     		ldr	r3, [r2, #12]
 986 0126 13F0EF0F 		tst	r3, #239
 987 012a 04D0     		beq	.L157
1003:../../lib/STM32F4xx_StdPeriph_Driver/src/stm32f4xx_flash.c ****         flashstatus = FLASH_ERROR_PROGRAM; 
 988              		.loc 1 1003 0
 989 012c 0623     		movs	r3, #6
 990 012e E1E7     		b	.L111
 991              	.LVL92:
 992              	.L123:
 993              	.LBE122:
 994              	.LBE125:
 995              	.LBE129:
 996              	.LBE132:
 427:../../lib/STM32F4xx_StdPeriph_Driver/src/stm32f4xx_flash.c ****     tmp_psize = FLASH_PSIZE_HALF_WORD;
 997              		.loc 1 427 0
 998 0130 4FF48070 		mov	r0, #256
 999              	.LVL93:
 1000 0134 98E7     		b	.L102
 1001              	.LVL94:
 1002              	.L157:
 1003              	.LBB133:
 1004              	.LBB130:
 1005              	.LBB126:
 1006              	.LBB123:
 1007              	.LBB119:
 1008              	.LBB120:
1007:../../lib/STM32F4xx_StdPeriph_Driver/src/stm32f4xx_flash.c ****         if((FLASH->SR & FLASH_FLAG_OPERR) != (uint32_t)0x00)
 1009              		.loc 1 1007 0
 1010 0136 D368     		ldr	r3, [r2, #12]
1009:../../lib/STM32F4xx_StdPeriph_Driver/src/stm32f4xx_flash.c ****           flashstatus = FLASH_ERROR_OPERATION;
 1011              		.loc 1 1009 0
 1012 0138 13F0020F 		tst	r3, #2
 1013 013c 0CBF     		ite	eq
 1014 013e 0823     		moveq	r3, #8
 1015 0140 0723     		movne	r3, #7
 1016 0142 D7E7     		b	.L111
 1017              	.LVL95:
 1018              	.L125:
 1019              	.LBE120:
 1020              	.LBE119:
 1021              	.LBE123:
 1022              	.LBE126:
 1023              	.LBB127:
 1024              	.LBB116:
 991:../../lib/STM32F4xx_StdPeriph_Driver/src/stm32f4xx_flash.c ****     flashstatus = FLASH_BUSY;
 1025              		.loc 1 991 0
 1026 0144 0123     		movs	r3, #1
 1027 0146 C9E7     		b	.L108
 1028              	.L154:
1001:../../lib/STM32F4xx_StdPeriph_Driver/src/stm32f4xx_flash.c ****       if((FLASH->SR & (uint32_t)0xEF) != (uint32_t)0x00)
 1029              		.loc 1 1001 0
 1030 0148 DA68     		ldr	r2, [r3, #12]
 1031 014a 12F0EF0F 		tst	r2, #239
 1032 014e 01D0     		beq	.L158
1003:../../lib/STM32F4xx_StdPeriph_Driver/src/stm32f4xx_flash.c ****         flashstatus = FLASH_ERROR_PROGRAM; 
 1033              		.loc 1 1003 0
 1034 0150 0623     		movs	r3, #6
 1035 0152 C3E7     		b	.L108
 1036              	.L158:
 1037              	.LBB114:
 1038              	.LBB115:
1007:../../lib/STM32F4xx_StdPeriph_Driver/src/stm32f4xx_flash.c ****         if((FLASH->SR & FLASH_FLAG_OPERR) != (uint32_t)0x00)
 1039              		.loc 1 1007 0
 1040 0154 DB68     		ldr	r3, [r3, #12]
1009:../../lib/STM32F4xx_StdPeriph_Driver/src/stm32f4xx_flash.c ****           flashstatus = FLASH_ERROR_OPERATION;
 1041              		.loc 1 1009 0
 1042 0156 13F0020F 		tst	r3, #2
 1043 015a 0CBF     		ite	eq
 1044 015c 0823     		moveq	r3, #8
 1045 015e 0723     		movne	r3, #7
 1046 0160 BCE7     		b	.L108
 1047              	.L160:
 1048 0162 00BF     		.align	2
 1049              	.L159:
 1050 0164 003C0240 		.word	1073888256
 1051              	.LBE115:
 1052              	.LBE114:
 1053              	.LBE116:
 1054              	.LBE127:
 1055              	.LBE130:
 1056              	.LBE133:
 1057              		.cfi_endproc
 1058              	.LFE119:
 1060              		.section	.text.FLASH_ProgramDoubleWord,"ax",%progbits
 1061              		.align	2
 1062              		.global	FLASH_ProgramDoubleWord
 1063              		.thumb
 1064              		.thumb_func
 1066              	FLASH_ProgramDoubleWord:
 1067              	.LFB120:
 466:../../lib/STM32F4xx_StdPeriph_Driver/src/stm32f4xx_flash.c **** {
 1068              		.loc 1 466 0
 1069              		.cfi_startproc
 1070              		@ args = 0, pretend = 0, frame = 8
 1071              		@ frame_needed = 0, uses_anonymous_args = 0
 1072              		@ link register save eliminated.
 1073              	.LVL96:
 1074 0000 30B4     		push	{r4, r5}
 1075              	.LCFI3:
 1076              		.cfi_def_cfa_offset 8
 1077              		.cfi_offset 4, -8
 1078              		.cfi_offset 5, -4
 1079 0002 82B0     		sub	sp, sp, #8
 1080              	.LCFI4:
 1081              		.cfi_def_cfa_offset 16
 1082              	.LVL97:
 1083              	.LBB154:
 1084              	.LBB155:
 1085              	.LBB156:
 1086              	.LBB157:
 989:../../lib/STM32F4xx_StdPeriph_Driver/src/stm32f4xx_flash.c ****   if((FLASH->SR & FLASH_FLAG_BSY) == FLASH_FLAG_BSY) 
 1087              		.loc 1 989 0
 1088 0004 5149     		ldr	r1, .L217
 1089              	.LBE157:
 1090              	.LBE156:
1030:../../lib/STM32F4xx_StdPeriph_Driver/src/stm32f4xx_flash.c ****   __IO FLASH_Status status = FLASH_COMPLETE;
 1091              		.loc 1 1030 0
 1092 0006 0824     		movs	r4, #8
 1093 0008 8DF80640 		strb	r4, [sp, #6]
 1094              	.LVL98:
 1095              	.LBB164:
 1096              	.LBB160:
 989:../../lib/STM32F4xx_StdPeriph_Driver/src/stm32f4xx_flash.c ****   if((FLASH->SR & FLASH_FLAG_BSY) == FLASH_FLAG_BSY) 
 1097              		.loc 1 989 0
 1098 000c CC68     		ldr	r4, [r1, #12]
 1099              	.LBE160:
 1100              	.LBE164:
 1101              	.LBE155:
 1102              	.LBE154:
 466:../../lib/STM32F4xx_StdPeriph_Driver/src/stm32f4xx_flash.c **** {
 1103              		.loc 1 466 0
 1104 000e 0546     		mov	r5, r0
 1105              	.LBB178:
 1106              	.LBB176:
 1107              	.LBB165:
 1108              	.LBB161:
 989:../../lib/STM32F4xx_StdPeriph_Driver/src/stm32f4xx_flash.c ****   if((FLASH->SR & FLASH_FLAG_BSY) == FLASH_FLAG_BSY) 
 1109              		.loc 1 989 0
 1110 0010 E003     		lsls	r0, r4, #15
 1111              	.LVL99:
 1112 0012 3AD4     		bmi	.L176
 995:../../lib/STM32F4xx_StdPeriph_Driver/src/stm32f4xx_flash.c ****     if((FLASH->SR & FLASH_FLAG_WRPERR) != (uint32_t)0x00)
 1113              		.loc 1 995 0
 1114 0014 C868     		ldr	r0, [r1, #12]
 1115 0016 C006     		lsls	r0, r0, #27
 1116 0018 24D5     		bpl	.L206
 997:../../lib/STM32F4xx_StdPeriph_Driver/src/stm32f4xx_flash.c ****       flashstatus = FLASH_ERROR_WRP;
 1117              		.loc 1 997 0
 1118 001a 0521     		movs	r1, #5
 1119              	.L162:
 1120              	.LVL100:
 1121              	.LBE161:
 1122              	.LBE165:
1033:../../lib/STM32F4xx_StdPeriph_Driver/src/stm32f4xx_flash.c ****   status = FLASH_GetStatus();
 1123              		.loc 1 1033 0
 1124 001c 8DF80610 		strb	r1, [sp, #6]
1038:../../lib/STM32F4xx_StdPeriph_Driver/src/stm32f4xx_flash.c ****   while(status == FLASH_BUSY)
 1125              		.loc 1 1038 0
 1126 0020 9DF80610 		ldrb	r1, [sp, #6]	@ zero_extendqisi2
 1127              	.LVL101:
 1128 0024 0129     		cmp	r1, #1
 1129 0026 15D1     		bne	.L169
 1130              	.LBB166:
 1131              	.LBB167:
 989:../../lib/STM32F4xx_StdPeriph_Driver/src/stm32f4xx_flash.c ****   if((FLASH->SR & FLASH_FLAG_BSY) == FLASH_FLAG_BSY) 
 1132              		.loc 1 989 0
 1133 0028 484C     		ldr	r4, .L217
 1134 002a 09E0     		b	.L201
 1135              	.LVL102:
 1136              	.L208:
 995:../../lib/STM32F4xx_StdPeriph_Driver/src/stm32f4xx_flash.c ****     if((FLASH->SR & FLASH_FLAG_WRPERR) != (uint32_t)0x00)
 1137              		.loc 1 995 0
 1138 002c E168     		ldr	r1, [r4, #12]
 1139 002e C806     		lsls	r0, r1, #27
 1140 0030 1ED5     		bpl	.L207
 997:../../lib/STM32F4xx_StdPeriph_Driver/src/stm32f4xx_flash.c ****       flashstatus = FLASH_ERROR_WRP;
 1141              		.loc 1 997 0
 1142 0032 0521     		movs	r1, #5
 1143              	.L167:
 1144              	.LVL103:
 1145              	.LBE167:
 1146              	.LBE166:
1040:../../lib/STM32F4xx_StdPeriph_Driver/src/stm32f4xx_flash.c ****     status = FLASH_GetStatus();
 1147              		.loc 1 1040 0
 1148 0034 8DF80610 		strb	r1, [sp, #6]
 1149              	.LVL104:
1038:../../lib/STM32F4xx_StdPeriph_Driver/src/stm32f4xx_flash.c ****   while(status == FLASH_BUSY)
 1150              		.loc 1 1038 0
 1151 0038 9DF80610 		ldrb	r1, [sp, #6]	@ zero_extendqisi2
 1152              	.LVL105:
 1153 003c 0129     		cmp	r1, #1
 1154 003e 09D1     		bne	.L169
 1155              	.L201:
 1156              	.LVL106:
 1157              	.LBB172:
 1158              	.LBB170:
 989:../../lib/STM32F4xx_StdPeriph_Driver/src/stm32f4xx_flash.c ****   if((FLASH->SR & FLASH_FLAG_BSY) == FLASH_FLAG_BSY) 
 1159              		.loc 1 989 0
 1160 0040 E168     		ldr	r1, [r4, #12]
 1161              	.LVL107:
 1162 0042 C903     		lsls	r1, r1, #15
 1163 0044 F2D5     		bpl	.L208
 991:../../lib/STM32F4xx_StdPeriph_Driver/src/stm32f4xx_flash.c ****     flashstatus = FLASH_BUSY;
 1164              		.loc 1 991 0
 1165 0046 0121     		movs	r1, #1
 1166              	.LVL108:
 1167              	.LBE170:
 1168              	.LBE172:
1040:../../lib/STM32F4xx_StdPeriph_Driver/src/stm32f4xx_flash.c ****     status = FLASH_GetStatus();
 1169              		.loc 1 1040 0
 1170 0048 8DF80610 		strb	r1, [sp, #6]
 1171              	.LVL109:
1038:../../lib/STM32F4xx_StdPeriph_Driver/src/stm32f4xx_flash.c ****   while(status == FLASH_BUSY)
 1172              		.loc 1 1038 0
 1173 004c 9DF80610 		ldrb	r1, [sp, #6]	@ zero_extendqisi2
 1174              	.LVL110:
 1175 0050 0129     		cmp	r1, #1
 1176 0052 F5D0     		beq	.L201
 1177              	.LVL111:
 1178              	.L169:
 1179              		.loc 1 1043 0
 1180 0054 9DF80610 		ldrb	r1, [sp, #6]	@ zero_extendqisi2
 1181              	.LVL112:
 1182 0058 0846     		mov	r0, r1
 1183              	.LVL113:
 1184              	.LBE176:
 1185              	.LBE178:
 475:../../lib/STM32F4xx_StdPeriph_Driver/src/stm32f4xx_flash.c ****   if(status == FLASH_COMPLETE)
 1186              		.loc 1 475 0
 1187 005a 0829     		cmp	r1, #8
 1188 005c 1ED0     		beq	.L209
 1189              	.LVL114:
 1190              	.L166:
 1191              	.LVL115:
 492:../../lib/STM32F4xx_StdPeriph_Driver/src/stm32f4xx_flash.c **** }
 1192              		.loc 1 492 0
 1193 005e 02B0     		add	sp, sp, #8
 1194 0060 30BC     		pop	{r4, r5}
 1195 0062 7047     		bx	lr
 1196              	.LVL116:
 1197              	.L206:
 1198              	.LBB179:
 1199              	.LBB177:
 1200              	.LBB173:
 1201              	.LBB162:
1001:../../lib/STM32F4xx_StdPeriph_Driver/src/stm32f4xx_flash.c ****       if((FLASH->SR & (uint32_t)0xEF) != (uint32_t)0x00)
 1202              		.loc 1 1001 0
 1203 0064 C868     		ldr	r0, [r1, #12]
 1204 0066 10F0EF0F 		tst	r0, #239
 1205 006a 10D0     		beq	.L210
1003:../../lib/STM32F4xx_StdPeriph_Driver/src/stm32f4xx_flash.c ****         flashstatus = FLASH_ERROR_PROGRAM; 
 1206              		.loc 1 1003 0
 1207 006c 0621     		movs	r1, #6
 1208 006e D5E7     		b	.L162
 1209              	.LVL117:
 1210              	.L207:
 1211              	.LBE162:
 1212              	.LBE173:
 1213              	.LBB174:
 1214              	.LBB171:
1001:../../lib/STM32F4xx_StdPeriph_Driver/src/stm32f4xx_flash.c ****       if((FLASH->SR & (uint32_t)0xEF) != (uint32_t)0x00)
 1215              		.loc 1 1001 0
 1216 0070 E168     		ldr	r1, [r4, #12]
 1217 0072 11F0EF0F 		tst	r1, #239
 1218 0076 01D0     		beq	.L211
1003:../../lib/STM32F4xx_StdPeriph_Driver/src/stm32f4xx_flash.c ****         flashstatus = FLASH_ERROR_PROGRAM; 
 1219              		.loc 1 1003 0
 1220 0078 0621     		movs	r1, #6
 1221 007a DBE7     		b	.L167
 1222              	.L211:
 1223              	.LBB168:
 1224              	.LBB169:
1007:../../lib/STM32F4xx_StdPeriph_Driver/src/stm32f4xx_flash.c ****         if((FLASH->SR & FLASH_FLAG_OPERR) != (uint32_t)0x00)
 1225              		.loc 1 1007 0
 1226 007c E168     		ldr	r1, [r4, #12]
1009:../../lib/STM32F4xx_StdPeriph_Driver/src/stm32f4xx_flash.c ****           flashstatus = FLASH_ERROR_OPERATION;
 1227              		.loc 1 1009 0
 1228 007e 11F0020F 		tst	r1, #2
 1229 0082 0CBF     		ite	eq
 1230 0084 0821     		moveq	r1, #8
 1231 0086 0721     		movne	r1, #7
 1232 0088 D4E7     		b	.L167
 1233              	.LVL118:
 1234              	.L176:
 1235              	.LBE169:
 1236              	.LBE168:
 1237              	.LBE171:
 1238              	.LBE174:
 1239              	.LBB175:
 1240              	.LBB163:
 991:../../lib/STM32F4xx_StdPeriph_Driver/src/stm32f4xx_flash.c ****     flashstatus = FLASH_BUSY;
 1241              		.loc 1 991 0
 1242 008a 0121     		movs	r1, #1
 1243 008c C6E7     		b	.L162
 1244              	.L210:
 1245              	.LBB158:
 1246              	.LBB159:
1007:../../lib/STM32F4xx_StdPeriph_Driver/src/stm32f4xx_flash.c ****         if((FLASH->SR & FLASH_FLAG_OPERR) != (uint32_t)0x00)
 1247              		.loc 1 1007 0
 1248 008e C968     		ldr	r1, [r1, #12]
1009:../../lib/STM32F4xx_StdPeriph_Driver/src/stm32f4xx_flash.c ****           flashstatus = FLASH_ERROR_OPERATION;
 1249              		.loc 1 1009 0
 1250 0090 11F0020F 		tst	r1, #2
 1251 0094 0CBF     		ite	eq
 1252 0096 0821     		moveq	r1, #8
 1253 0098 0721     		movne	r1, #7
 1254 009a BFE7     		b	.L162
 1255              	.LVL119:
 1256              	.L209:
 1257              	.LBE159:
 1258              	.LBE158:
 1259              	.LBE163:
 1260              	.LBE175:
 1261              	.LBE177:
 1262              	.LBE179:
 478:../../lib/STM32F4xx_StdPeriph_Driver/src/stm32f4xx_flash.c ****     FLASH->CR &= CR_PSIZE_MASK;
 1263              		.loc 1 478 0
 1264 009c 2B48     		ldr	r0, .L217
 1265 009e 0469     		ldr	r4, [r0, #16]
 1266 00a0 24F44074 		bic	r4, r4, #768
 1267 00a4 0461     		str	r4, [r0, #16]
 479:../../lib/STM32F4xx_StdPeriph_Driver/src/stm32f4xx_flash.c ****     FLASH->CR |= FLASH_PSIZE_DOUBLE_WORD;
 1268              		.loc 1 479 0
 1269 00a6 0469     		ldr	r4, [r0, #16]
 1270 00a8 44F44074 		orr	r4, r4, #768
 1271 00ac 0461     		str	r4, [r0, #16]
 480:../../lib/STM32F4xx_StdPeriph_Driver/src/stm32f4xx_flash.c ****     FLASH->CR |= FLASH_CR_PG;
 1272              		.loc 1 480 0
 1273 00ae 0469     		ldr	r4, [r0, #16]
 1274 00b0 44F00104 		orr	r4, r4, #1
 1275 00b4 0461     		str	r4, [r0, #16]
 482:../../lib/STM32F4xx_StdPeriph_Driver/src/stm32f4xx_flash.c ****     *(__IO uint64_t*)Address = Data;
 1276              		.loc 1 482 0
 1277 00b6 C5E90023 		strd	r2, [r5]
 1278              	.LBB180:
 1279              	.LBB181:
1030:../../lib/STM32F4xx_StdPeriph_Driver/src/stm32f4xx_flash.c ****   __IO FLASH_Status status = FLASH_COMPLETE;
 1280              		.loc 1 1030 0
 1281 00ba 8DF80710 		strb	r1, [sp, #7]
 1282              	.LVL120:
 1283              	.LBB182:
 1284              	.LBB183:
 989:../../lib/STM32F4xx_StdPeriph_Driver/src/stm32f4xx_flash.c ****   if((FLASH->SR & FLASH_FLAG_BSY) == FLASH_FLAG_BSY) 
 1285              		.loc 1 989 0
 1286 00be C368     		ldr	r3, [r0, #12]
 1287 00c0 D903     		lsls	r1, r3, #15
 1288              	.LVL121:
 1289 00c2 34D4     		bmi	.L184
 995:../../lib/STM32F4xx_StdPeriph_Driver/src/stm32f4xx_flash.c ****     if((FLASH->SR & FLASH_FLAG_WRPERR) != (uint32_t)0x00)
 1290              		.loc 1 995 0
 1291 00c4 C368     		ldr	r3, [r0, #12]
 1292 00c6 DA06     		lsls	r2, r3, #27
 1293              	.LVL122:
 1294 00c8 33D5     		bpl	.L212
 997:../../lib/STM32F4xx_StdPeriph_Driver/src/stm32f4xx_flash.c ****       flashstatus = FLASH_ERROR_WRP;
 1295              		.loc 1 997 0
 1296 00ca 0523     		movs	r3, #5
 1297              	.L170:
 1298              	.LVL123:
 1299              	.LBE183:
 1300              	.LBE182:
1033:../../lib/STM32F4xx_StdPeriph_Driver/src/stm32f4xx_flash.c ****   status = FLASH_GetStatus();
 1301              		.loc 1 1033 0
 1302 00cc 8DF80730 		strb	r3, [sp, #7]
1038:../../lib/STM32F4xx_StdPeriph_Driver/src/stm32f4xx_flash.c ****   while(status == FLASH_BUSY)
 1303              		.loc 1 1038 0
 1304 00d0 9DF80730 		ldrb	r3, [sp, #7]	@ zero_extendqisi2
 1305              	.LVL124:
 1306 00d4 012B     		cmp	r3, #1
 1307 00d6 15D1     		bne	.L175
 1308              	.LBB187:
 1309              	.LBB188:
 989:../../lib/STM32F4xx_StdPeriph_Driver/src/stm32f4xx_flash.c ****   if((FLASH->SR & FLASH_FLAG_BSY) == FLASH_FLAG_BSY) 
 1310              		.loc 1 989 0
 1311 00d8 1C4A     		ldr	r2, .L217
 1312 00da 09E0     		b	.L200
 1313              	.LVL125:
 1314              	.L214:
 995:../../lib/STM32F4xx_StdPeriph_Driver/src/stm32f4xx_flash.c ****     if((FLASH->SR & FLASH_FLAG_WRPERR) != (uint32_t)0x00)
 1315              		.loc 1 995 0
 1316 00dc D368     		ldr	r3, [r2, #12]
 1317 00de D806     		lsls	r0, r3, #27
 1318 00e0 18D5     		bpl	.L213
 997:../../lib/STM32F4xx_StdPeriph_Driver/src/stm32f4xx_flash.c ****       flashstatus = FLASH_ERROR_WRP;
 1319              		.loc 1 997 0
 1320 00e2 0523     		movs	r3, #5
 1321              	.L173:
 1322              	.LVL126:
 1323              	.LBE188:
 1324              	.LBE187:
1040:../../lib/STM32F4xx_StdPeriph_Driver/src/stm32f4xx_flash.c ****     status = FLASH_GetStatus();
 1325              		.loc 1 1040 0
 1326 00e4 8DF80730 		strb	r3, [sp, #7]
 1327              	.LVL127:
1038:../../lib/STM32F4xx_StdPeriph_Driver/src/stm32f4xx_flash.c ****   while(status == FLASH_BUSY)
 1328              		.loc 1 1038 0
 1329 00e8 9DF80730 		ldrb	r3, [sp, #7]	@ zero_extendqisi2
 1330              	.LVL128:
 1331 00ec 012B     		cmp	r3, #1
 1332 00ee 09D1     		bne	.L175
 1333              	.L200:
 1334              	.LVL129:
 1335              	.LBB193:
 1336              	.LBB191:
 989:../../lib/STM32F4xx_StdPeriph_Driver/src/stm32f4xx_flash.c ****   if((FLASH->SR & FLASH_FLAG_BSY) == FLASH_FLAG_BSY) 
 1337              		.loc 1 989 0
 1338 00f0 D368     		ldr	r3, [r2, #12]
 1339              	.LVL130:
 1340 00f2 DB03     		lsls	r3, r3, #15
 1341 00f4 F2D5     		bpl	.L214
 991:../../lib/STM32F4xx_StdPeriph_Driver/src/stm32f4xx_flash.c ****     flashstatus = FLASH_BUSY;
 1342              		.loc 1 991 0
 1343 00f6 0123     		movs	r3, #1
 1344              	.LVL131:
 1345              	.LBE191:
 1346              	.LBE193:
1040:../../lib/STM32F4xx_StdPeriph_Driver/src/stm32f4xx_flash.c ****     status = FLASH_GetStatus();
 1347              		.loc 1 1040 0
 1348 00f8 8DF80730 		strb	r3, [sp, #7]
 1349              	.LVL132:
1038:../../lib/STM32F4xx_StdPeriph_Driver/src/stm32f4xx_flash.c ****   while(status == FLASH_BUSY)
 1350              		.loc 1 1038 0
 1351 00fc 9DF80730 		ldrb	r3, [sp, #7]	@ zero_extendqisi2
 1352              	.LVL133:
 1353 0100 012B     		cmp	r3, #1
 1354 0102 F5D0     		beq	.L200
 1355              	.LVL134:
 1356              	.L175:
 1357              	.LBE181:
 1358              	.LBE180:
 488:../../lib/STM32F4xx_StdPeriph_Driver/src/stm32f4xx_flash.c ****     FLASH->CR &= (~FLASH_CR_PG);
 1359              		.loc 1 488 0
 1360 0104 114B     		ldr	r3, .L217
 1361              	.LVL135:
 1362              	.LBB198:
 1363              	.LBB196:
 1364              		.loc 1 1043 0
 1365 0106 9DF80700 		ldrb	r0, [sp, #7]	@ zero_extendqisi2
 1366              	.LVL136:
 1367              	.LBE196:
 1368              	.LBE198:
 488:../../lib/STM32F4xx_StdPeriph_Driver/src/stm32f4xx_flash.c ****     FLASH->CR &= (~FLASH_CR_PG);
 1369              		.loc 1 488 0
 1370 010a 1A69     		ldr	r2, [r3, #16]
 1371 010c 22F00102 		bic	r2, r2, #1
 1372 0110 1A61     		str	r2, [r3, #16]
 1373 0112 A4E7     		b	.L166
 1374              	.LVL137:
 1375              	.L213:
 1376              	.LBB199:
 1377              	.LBB197:
 1378              	.LBB194:
 1379              	.LBB192:
1001:../../lib/STM32F4xx_StdPeriph_Driver/src/stm32f4xx_flash.c ****       if((FLASH->SR & (uint32_t)0xEF) != (uint32_t)0x00)
 1380              		.loc 1 1001 0
 1381 0114 D368     		ldr	r3, [r2, #12]
 1382 0116 13F0EF0F 		tst	r3, #239
 1383 011a 01D0     		beq	.L215
1003:../../lib/STM32F4xx_StdPeriph_Driver/src/stm32f4xx_flash.c ****         flashstatus = FLASH_ERROR_PROGRAM; 
 1384              		.loc 1 1003 0
 1385 011c 0623     		movs	r3, #6
 1386 011e E1E7     		b	.L173
 1387              	.L215:
 1388              	.LBB189:
 1389              	.LBB190:
1007:../../lib/STM32F4xx_StdPeriph_Driver/src/stm32f4xx_flash.c ****         if((FLASH->SR & FLASH_FLAG_OPERR) != (uint32_t)0x00)
 1390              		.loc 1 1007 0
 1391 0120 D368     		ldr	r3, [r2, #12]
1009:../../lib/STM32F4xx_StdPeriph_Driver/src/stm32f4xx_flash.c ****           flashstatus = FLASH_ERROR_OPERATION;
 1392              		.loc 1 1009 0
 1393 0122 13F0020F 		tst	r3, #2
 1394 0126 0CBF     		ite	eq
 1395 0128 0823     		moveq	r3, #8
 1396 012a 0723     		movne	r3, #7
 1397 012c DAE7     		b	.L173
 1398              	.LVL138:
 1399              	.L184:
 1400              	.LBE190:
 1401              	.LBE189:
 1402              	.LBE192:
 1403              	.LBE194:
 1404              	.LBB195:
 1405              	.LBB186:
 991:../../lib/STM32F4xx_StdPeriph_Driver/src/stm32f4xx_flash.c ****     flashstatus = FLASH_BUSY;
 1406              		.loc 1 991 0
 1407 012e 0123     		movs	r3, #1
 1408 0130 CCE7     		b	.L170
 1409              	.LVL139:
 1410              	.L212:
1001:../../lib/STM32F4xx_StdPeriph_Driver/src/stm32f4xx_flash.c ****       if((FLASH->SR & (uint32_t)0xEF) != (uint32_t)0x00)
 1411              		.loc 1 1001 0
 1412 0132 C368     		ldr	r3, [r0, #12]
 1413 0134 13F0EF0F 		tst	r3, #239
 1414 0138 01D0     		beq	.L216
1003:../../lib/STM32F4xx_StdPeriph_Driver/src/stm32f4xx_flash.c ****         flashstatus = FLASH_ERROR_PROGRAM; 
 1415              		.loc 1 1003 0
 1416 013a 0623     		movs	r3, #6
 1417 013c C6E7     		b	.L170
 1418              	.L216:
 1419              	.LBB184:
 1420              	.LBB185:
1007:../../lib/STM32F4xx_StdPeriph_Driver/src/stm32f4xx_flash.c ****         if((FLASH->SR & FLASH_FLAG_OPERR) != (uint32_t)0x00)
 1421              		.loc 1 1007 0
 1422 013e C368     		ldr	r3, [r0, #12]
1009:../../lib/STM32F4xx_StdPeriph_Driver/src/stm32f4xx_flash.c ****           flashstatus = FLASH_ERROR_OPERATION;
 1423              		.loc 1 1009 0
 1424 0140 13F0020F 		tst	r3, #2
 1425 0144 0CBF     		ite	eq
 1426 0146 0823     		moveq	r3, #8
 1427 0148 0723     		movne	r3, #7
 1428 014a BFE7     		b	.L170
 1429              	.L218:
 1430              		.align	2
 1431              	.L217:
 1432 014c 003C0240 		.word	1073888256
 1433              	.LBE185:
 1434              	.LBE184:
 1435              	.LBE186:
 1436              	.LBE195:
 1437              	.LBE197:
 1438              	.LBE199:
 1439              		.cfi_endproc
 1440              	.LFE120:
 1442              		.section	.text.FLASH_ProgramWord,"ax",%progbits
 1443              		.align	2
 1444              		.global	FLASH_ProgramWord
 1445              		.thumb
 1446              		.thumb_func
 1448              	FLASH_ProgramWord:
 1449              	.LFB121:
 504:../../lib/STM32F4xx_StdPeriph_Driver/src/stm32f4xx_flash.c **** {
 1450              		.loc 1 504 0
 1451              		.cfi_startproc
 1452              		@ args = 0, pretend = 0, frame = 8
 1453              		@ frame_needed = 0, uses_anonymous_args = 0
 1454              		@ link register save eliminated.
 1455              	.LVL140:
 1456 0000 10B4     		push	{r4}
 1457              	.LCFI5:
 1458              		.cfi_def_cfa_offset 4
 1459              		.cfi_offset 4, -4
 1460 0002 83B0     		sub	sp, sp, #12
 1461              	.LCFI6:
 1462              		.cfi_def_cfa_offset 16
 1463              	.LVL141:
 1464              	.LBB220:
 1465              	.LBB221:
 1466              	.LBB222:
 1467              	.LBB223:
 989:../../lib/STM32F4xx_StdPeriph_Driver/src/stm32f4xx_flash.c ****   if((FLASH->SR & FLASH_FLAG_BSY) == FLASH_FLAG_BSY) 
 1468              		.loc 1 989 0
 1469 0004 514B     		ldr	r3, .L275
 1470              	.LBE223:
 1471              	.LBE222:
1030:../../lib/STM32F4xx_StdPeriph_Driver/src/stm32f4xx_flash.c ****   __IO FLASH_Status status = FLASH_COMPLETE;
 1472              		.loc 1 1030 0
 1473 0006 0822     		movs	r2, #8
 1474 0008 8DF80620 		strb	r2, [sp, #6]
 1475              	.LVL142:
 1476              	.LBB230:
 1477              	.LBB226:
 989:../../lib/STM32F4xx_StdPeriph_Driver/src/stm32f4xx_flash.c ****   if((FLASH->SR & FLASH_FLAG_BSY) == FLASH_FLAG_BSY) 
 1478              		.loc 1 989 0
 1479 000c DA68     		ldr	r2, [r3, #12]
 1480              	.LBE226:
 1481              	.LBE230:
 1482              	.LBE221:
 1483              	.LBE220:
 504:../../lib/STM32F4xx_StdPeriph_Driver/src/stm32f4xx_flash.c **** {
 1484              		.loc 1 504 0
 1485 000e 0446     		mov	r4, r0
 1486              	.LBB244:
 1487              	.LBB242:
 1488              	.LBB231:
 1489              	.LBB227:
 989:../../lib/STM32F4xx_StdPeriph_Driver/src/stm32f4xx_flash.c ****   if((FLASH->SR & FLASH_FLAG_BSY) == FLASH_FLAG_BSY) 
 1490              		.loc 1 989 0
 1491 0010 D003     		lsls	r0, r2, #15
 1492              	.LVL143:
 1493 0012 3AD4     		bmi	.L234
 995:../../lib/STM32F4xx_StdPeriph_Driver/src/stm32f4xx_flash.c ****     if((FLASH->SR & FLASH_FLAG_WRPERR) != (uint32_t)0x00)
 1494              		.loc 1 995 0
 1495 0014 DA68     		ldr	r2, [r3, #12]
 1496 0016 D206     		lsls	r2, r2, #27
 1497 0018 24D5     		bpl	.L264
 997:../../lib/STM32F4xx_StdPeriph_Driver/src/stm32f4xx_flash.c ****       flashstatus = FLASH_ERROR_WRP;
 1498              		.loc 1 997 0
 1499 001a 0523     		movs	r3, #5
 1500              	.L220:
 1501              	.LVL144:
 1502              	.LBE227:
 1503              	.LBE231:
1033:../../lib/STM32F4xx_StdPeriph_Driver/src/stm32f4xx_flash.c ****   status = FLASH_GetStatus();
 1504              		.loc 1 1033 0
 1505 001c 8DF80630 		strb	r3, [sp, #6]
1038:../../lib/STM32F4xx_StdPeriph_Driver/src/stm32f4xx_flash.c ****   while(status == FLASH_BUSY)
 1506              		.loc 1 1038 0
 1507 0020 9DF80630 		ldrb	r3, [sp, #6]	@ zero_extendqisi2
 1508              	.LVL145:
 1509 0024 012B     		cmp	r3, #1
 1510 0026 15D1     		bne	.L227
 1511              	.LBB232:
 1512              	.LBB233:
 989:../../lib/STM32F4xx_StdPeriph_Driver/src/stm32f4xx_flash.c ****   if((FLASH->SR & FLASH_FLAG_BSY) == FLASH_FLAG_BSY) 
 1513              		.loc 1 989 0
 1514 0028 484A     		ldr	r2, .L275
 1515 002a 09E0     		b	.L259
 1516              	.LVL146:
 1517              	.L266:
 995:../../lib/STM32F4xx_StdPeriph_Driver/src/stm32f4xx_flash.c ****     if((FLASH->SR & FLASH_FLAG_WRPERR) != (uint32_t)0x00)
 1518              		.loc 1 995 0
 1519 002c D368     		ldr	r3, [r2, #12]
 1520 002e D806     		lsls	r0, r3, #27
 1521 0030 1ED5     		bpl	.L265
 997:../../lib/STM32F4xx_StdPeriph_Driver/src/stm32f4xx_flash.c ****       flashstatus = FLASH_ERROR_WRP;
 1522              		.loc 1 997 0
 1523 0032 0523     		movs	r3, #5
 1524              	.L225:
 1525              	.LVL147:
 1526              	.LBE233:
 1527              	.LBE232:
1040:../../lib/STM32F4xx_StdPeriph_Driver/src/stm32f4xx_flash.c ****     status = FLASH_GetStatus();
 1528              		.loc 1 1040 0
 1529 0034 8DF80630 		strb	r3, [sp, #6]
 1530              	.LVL148:
1038:../../lib/STM32F4xx_StdPeriph_Driver/src/stm32f4xx_flash.c ****   while(status == FLASH_BUSY)
 1531              		.loc 1 1038 0
 1532 0038 9DF80630 		ldrb	r3, [sp, #6]	@ zero_extendqisi2
 1533              	.LVL149:
 1534 003c 012B     		cmp	r3, #1
 1535 003e 09D1     		bne	.L227
 1536              	.L259:
 1537              	.LVL150:
 1538              	.LBB238:
 1539              	.LBB236:
 989:../../lib/STM32F4xx_StdPeriph_Driver/src/stm32f4xx_flash.c ****   if((FLASH->SR & FLASH_FLAG_BSY) == FLASH_FLAG_BSY) 
 1540              		.loc 1 989 0
 1541 0040 D368     		ldr	r3, [r2, #12]
 1542              	.LVL151:
 1543 0042 DB03     		lsls	r3, r3, #15
 1544 0044 F2D5     		bpl	.L266
 991:../../lib/STM32F4xx_StdPeriph_Driver/src/stm32f4xx_flash.c ****     flashstatus = FLASH_BUSY;
 1545              		.loc 1 991 0
 1546 0046 0123     		movs	r3, #1
 1547              	.LVL152:
 1548              	.LBE236:
 1549              	.LBE238:
1040:../../lib/STM32F4xx_StdPeriph_Driver/src/stm32f4xx_flash.c ****     status = FLASH_GetStatus();
 1550              		.loc 1 1040 0
 1551 0048 8DF80630 		strb	r3, [sp, #6]
 1552              	.LVL153:
1038:../../lib/STM32F4xx_StdPeriph_Driver/src/stm32f4xx_flash.c ****   while(status == FLASH_BUSY)
 1553              		.loc 1 1038 0
 1554 004c 9DF80630 		ldrb	r3, [sp, #6]	@ zero_extendqisi2
 1555              	.LVL154:
 1556 0050 012B     		cmp	r3, #1
 1557 0052 F5D0     		beq	.L259
 1558              	.LVL155:
 1559              	.L227:
 1560              		.loc 1 1043 0
 1561 0054 9DF80630 		ldrb	r3, [sp, #6]	@ zero_extendqisi2
 1562              	.LVL156:
 1563 0058 1846     		mov	r0, r3
 1564              	.LVL157:
 1565              	.LBE242:
 1566              	.LBE244:
 513:../../lib/STM32F4xx_StdPeriph_Driver/src/stm32f4xx_flash.c ****   if(status == FLASH_COMPLETE)
 1567              		.loc 1 513 0
 1568 005a 082B     		cmp	r3, #8
 1569 005c 1ED0     		beq	.L267
 1570              	.LVL158:
 1571              	.L224:
 1572              	.LVL159:
 530:../../lib/STM32F4xx_StdPeriph_Driver/src/stm32f4xx_flash.c **** }
 1573              		.loc 1 530 0
 1574 005e 03B0     		add	sp, sp, #12
 1575 0060 10BC     		pop	{r4}
 1576 0062 7047     		bx	lr
 1577              	.LVL160:
 1578              	.L264:
 1579              	.LBB245:
 1580              	.LBB243:
 1581              	.LBB239:
 1582              	.LBB228:
1001:../../lib/STM32F4xx_StdPeriph_Driver/src/stm32f4xx_flash.c ****       if((FLASH->SR & (uint32_t)0xEF) != (uint32_t)0x00)
 1583              		.loc 1 1001 0
 1584 0064 DA68     		ldr	r2, [r3, #12]
 1585 0066 12F0EF0F 		tst	r2, #239
 1586 006a 10D0     		beq	.L268
1003:../../lib/STM32F4xx_StdPeriph_Driver/src/stm32f4xx_flash.c ****         flashstatus = FLASH_ERROR_PROGRAM; 
 1587              		.loc 1 1003 0
 1588 006c 0623     		movs	r3, #6
 1589 006e D5E7     		b	.L220
 1590              	.LVL161:
 1591              	.L265:
 1592              	.LBE228:
 1593              	.LBE239:
 1594              	.LBB240:
 1595              	.LBB237:
1001:../../lib/STM32F4xx_StdPeriph_Driver/src/stm32f4xx_flash.c ****       if((FLASH->SR & (uint32_t)0xEF) != (uint32_t)0x00)
 1596              		.loc 1 1001 0
 1597 0070 D368     		ldr	r3, [r2, #12]
 1598 0072 13F0EF0F 		tst	r3, #239
 1599 0076 01D0     		beq	.L269
1003:../../lib/STM32F4xx_StdPeriph_Driver/src/stm32f4xx_flash.c ****         flashstatus = FLASH_ERROR_PROGRAM; 
 1600              		.loc 1 1003 0
 1601 0078 0623     		movs	r3, #6
 1602 007a DBE7     		b	.L225
 1603              	.L269:
 1604              	.LBB234:
 1605              	.LBB235:
1007:../../lib/STM32F4xx_StdPeriph_Driver/src/stm32f4xx_flash.c ****         if((FLASH->SR & FLASH_FLAG_OPERR) != (uint32_t)0x00)
 1606              		.loc 1 1007 0
 1607 007c D368     		ldr	r3, [r2, #12]
1009:../../lib/STM32F4xx_StdPeriph_Driver/src/stm32f4xx_flash.c ****           flashstatus = FLASH_ERROR_OPERATION;
 1608              		.loc 1 1009 0
 1609 007e 13F0020F 		tst	r3, #2
 1610 0082 0CBF     		ite	eq
 1611 0084 0823     		moveq	r3, #8
 1612 0086 0723     		movne	r3, #7
 1613 0088 D4E7     		b	.L225
 1614              	.LVL162:
 1615              	.L234:
 1616              	.LBE235:
 1617              	.LBE234:
 1618              	.LBE237:
 1619              	.LBE240:
 1620              	.LBB241:
 1621              	.LBB229:
 991:../../lib/STM32F4xx_StdPeriph_Driver/src/stm32f4xx_flash.c ****     flashstatus = FLASH_BUSY;
 1622              		.loc 1 991 0
 1623 008a 0123     		movs	r3, #1
 1624 008c C6E7     		b	.L220
 1625              	.L268:
 1626              	.LBB224:
 1627              	.LBB225:
1007:../../lib/STM32F4xx_StdPeriph_Driver/src/stm32f4xx_flash.c ****         if((FLASH->SR & FLASH_FLAG_OPERR) != (uint32_t)0x00)
 1628              		.loc 1 1007 0
 1629 008e DB68     		ldr	r3, [r3, #12]
1009:../../lib/STM32F4xx_StdPeriph_Driver/src/stm32f4xx_flash.c ****           flashstatus = FLASH_ERROR_OPERATION;
 1630              		.loc 1 1009 0
 1631 0090 13F0020F 		tst	r3, #2
 1632 0094 0CBF     		ite	eq
 1633 0096 0823     		moveq	r3, #8
 1634 0098 0723     		movne	r3, #7
 1635 009a BFE7     		b	.L220
 1636              	.LVL163:
 1637              	.L267:
 1638              	.LBE225:
 1639              	.LBE224:
 1640              	.LBE229:
 1641              	.LBE241:
 1642              	.LBE243:
 1643              	.LBE245:
 516:../../lib/STM32F4xx_StdPeriph_Driver/src/stm32f4xx_flash.c ****     FLASH->CR &= CR_PSIZE_MASK;
 1644              		.loc 1 516 0
 1645 009c 2B4A     		ldr	r2, .L275
 1646 009e 1069     		ldr	r0, [r2, #16]
 1647 00a0 20F44070 		bic	r0, r0, #768
 1648 00a4 1061     		str	r0, [r2, #16]
 517:../../lib/STM32F4xx_StdPeriph_Driver/src/stm32f4xx_flash.c ****     FLASH->CR |= FLASH_PSIZE_WORD;
 1649              		.loc 1 517 0
 1650 00a6 1069     		ldr	r0, [r2, #16]
 1651 00a8 40F40070 		orr	r0, r0, #512
 1652 00ac 1061     		str	r0, [r2, #16]
 518:../../lib/STM32F4xx_StdPeriph_Driver/src/stm32f4xx_flash.c ****     FLASH->CR |= FLASH_CR_PG;
 1653              		.loc 1 518 0
 1654 00ae 1069     		ldr	r0, [r2, #16]
 1655 00b0 40F00100 		orr	r0, r0, #1
 1656 00b4 1061     		str	r0, [r2, #16]
 520:../../lib/STM32F4xx_StdPeriph_Driver/src/stm32f4xx_flash.c ****     *(__IO uint32_t*)Address = Data;
 1657              		.loc 1 520 0
 1658 00b6 2160     		str	r1, [r4, #0]
 1659              	.LBB246:
 1660              	.LBB247:
1030:../../lib/STM32F4xx_StdPeriph_Driver/src/stm32f4xx_flash.c ****   __IO FLASH_Status status = FLASH_COMPLETE;
 1661              		.loc 1 1030 0
 1662 00b8 8DF80730 		strb	r3, [sp, #7]
 1663              	.LVL164:
 1664              	.LBB248:
 1665              	.LBB249:
 989:../../lib/STM32F4xx_StdPeriph_Driver/src/stm32f4xx_flash.c ****   if((FLASH->SR & FLASH_FLAG_BSY) == FLASH_FLAG_BSY) 
 1666              		.loc 1 989 0
 1667 00bc D368     		ldr	r3, [r2, #12]
 1668              	.LVL165:
 1669 00be DB03     		lsls	r3, r3, #15
 1670 00c0 34D4     		bmi	.L242
 995:../../lib/STM32F4xx_StdPeriph_Driver/src/stm32f4xx_flash.c ****     if((FLASH->SR & FLASH_FLAG_WRPERR) != (uint32_t)0x00)
 1671              		.loc 1 995 0
 1672 00c2 D368     		ldr	r3, [r2, #12]
 1673 00c4 D806     		lsls	r0, r3, #27
 1674 00c6 33D5     		bpl	.L270
 997:../../lib/STM32F4xx_StdPeriph_Driver/src/stm32f4xx_flash.c ****       flashstatus = FLASH_ERROR_WRP;
 1675              		.loc 1 997 0
 1676 00c8 0523     		movs	r3, #5
 1677              	.L228:
 1678              	.LVL166:
 1679              	.LBE249:
 1680              	.LBE248:
1033:../../lib/STM32F4xx_StdPeriph_Driver/src/stm32f4xx_flash.c ****   status = FLASH_GetStatus();
 1681              		.loc 1 1033 0
 1682 00ca 8DF80730 		strb	r3, [sp, #7]
1038:../../lib/STM32F4xx_StdPeriph_Driver/src/stm32f4xx_flash.c ****   while(status == FLASH_BUSY)
 1683              		.loc 1 1038 0
 1684 00ce 9DF80730 		ldrb	r3, [sp, #7]	@ zero_extendqisi2
 1685              	.LVL167:
 1686 00d2 012B     		cmp	r3, #1
 1687 00d4 15D1     		bne	.L233
 1688              	.LBB253:
 1689              	.LBB254:
 989:../../lib/STM32F4xx_StdPeriph_Driver/src/stm32f4xx_flash.c ****   if((FLASH->SR & FLASH_FLAG_BSY) == FLASH_FLAG_BSY) 
 1690              		.loc 1 989 0
 1691 00d6 1D4A     		ldr	r2, .L275
 1692 00d8 09E0     		b	.L258
 1693              	.LVL168:
 1694              	.L272:
 995:../../lib/STM32F4xx_StdPeriph_Driver/src/stm32f4xx_flash.c ****     if((FLASH->SR & FLASH_FLAG_WRPERR) != (uint32_t)0x00)
 1695              		.loc 1 995 0
 1696 00da D368     		ldr	r3, [r2, #12]
 1697 00dc DB06     		lsls	r3, r3, #27
 1698 00de 18D5     		bpl	.L271
 997:../../lib/STM32F4xx_StdPeriph_Driver/src/stm32f4xx_flash.c ****       flashstatus = FLASH_ERROR_WRP;
 1699              		.loc 1 997 0
 1700 00e0 0523     		movs	r3, #5
 1701              	.L231:
 1702              	.LVL169:
 1703              	.LBE254:
 1704              	.LBE253:
1040:../../lib/STM32F4xx_StdPeriph_Driver/src/stm32f4xx_flash.c ****     status = FLASH_GetStatus();
 1705              		.loc 1 1040 0
 1706 00e2 8DF80730 		strb	r3, [sp, #7]
 1707              	.LVL170:
1038:../../lib/STM32F4xx_StdPeriph_Driver/src/stm32f4xx_flash.c ****   while(status == FLASH_BUSY)
 1708              		.loc 1 1038 0
 1709 00e6 9DF80730 		ldrb	r3, [sp, #7]	@ zero_extendqisi2
 1710              	.LVL171:
 1711 00ea 012B     		cmp	r3, #1
 1712 00ec 09D1     		bne	.L233
 1713              	.L258:
 1714              	.LVL172:
 1715              	.LBB259:
 1716              	.LBB257:
 989:../../lib/STM32F4xx_StdPeriph_Driver/src/stm32f4xx_flash.c ****   if((FLASH->SR & FLASH_FLAG_BSY) == FLASH_FLAG_BSY) 
 1717              		.loc 1 989 0
 1718 00ee D368     		ldr	r3, [r2, #12]
 1719              	.LVL173:
 1720 00f0 D903     		lsls	r1, r3, #15
 1721 00f2 F2D5     		bpl	.L272
 991:../../lib/STM32F4xx_StdPeriph_Driver/src/stm32f4xx_flash.c ****     flashstatus = FLASH_BUSY;
 1722              		.loc 1 991 0
 1723 00f4 0123     		movs	r3, #1
 1724              	.LVL174:
 1725              	.LBE257:
 1726              	.LBE259:
1040:../../lib/STM32F4xx_StdPeriph_Driver/src/stm32f4xx_flash.c ****     status = FLASH_GetStatus();
 1727              		.loc 1 1040 0
 1728 00f6 8DF80730 		strb	r3, [sp, #7]
 1729              	.LVL175:
1038:../../lib/STM32F4xx_StdPeriph_Driver/src/stm32f4xx_flash.c ****   while(status == FLASH_BUSY)
 1730              		.loc 1 1038 0
 1731 00fa 9DF80730 		ldrb	r3, [sp, #7]	@ zero_extendqisi2
 1732              	.LVL176:
 1733 00fe 012B     		cmp	r3, #1
 1734 0100 F5D0     		beq	.L258
 1735              	.LVL177:
 1736              	.L233:
 1737              	.LBE247:
 1738              	.LBE246:
 526:../../lib/STM32F4xx_StdPeriph_Driver/src/stm32f4xx_flash.c ****     FLASH->CR &= (~FLASH_CR_PG);
 1739              		.loc 1 526 0
 1740 0102 124B     		ldr	r3, .L275
 1741              	.LVL178:
 1742              	.LBB264:
 1743              	.LBB262:
 1744              		.loc 1 1043 0
 1745 0104 9DF80700 		ldrb	r0, [sp, #7]	@ zero_extendqisi2
 1746              	.LVL179:
 1747              	.LBE262:
 1748              	.LBE264:
 526:../../lib/STM32F4xx_StdPeriph_Driver/src/stm32f4xx_flash.c ****     FLASH->CR &= (~FLASH_CR_PG);
 1749              		.loc 1 526 0
 1750 0108 1A69     		ldr	r2, [r3, #16]
 1751 010a 22F00102 		bic	r2, r2, #1
 1752 010e 1A61     		str	r2, [r3, #16]
 1753 0110 A5E7     		b	.L224
 1754              	.LVL180:
 1755              	.L271:
 1756              	.LBB265:
 1757              	.LBB263:
 1758              	.LBB260:
 1759              	.LBB258:
1001:../../lib/STM32F4xx_StdPeriph_Driver/src/stm32f4xx_flash.c ****       if((FLASH->SR & (uint32_t)0xEF) != (uint32_t)0x00)
 1760              		.loc 1 1001 0
 1761 0112 D368     		ldr	r3, [r2, #12]
 1762 0114 13F0EF0F 		tst	r3, #239
 1763 0118 01D0     		beq	.L273
1003:../../lib/STM32F4xx_StdPeriph_Driver/src/stm32f4xx_flash.c ****         flashstatus = FLASH_ERROR_PROGRAM; 
 1764              		.loc 1 1003 0
 1765 011a 0623     		movs	r3, #6
 1766 011c E1E7     		b	.L231
 1767              	.L273:
 1768              	.LBB255:
 1769              	.LBB256:
1007:../../lib/STM32F4xx_StdPeriph_Driver/src/stm32f4xx_flash.c ****         if((FLASH->SR & FLASH_FLAG_OPERR) != (uint32_t)0x00)
 1770              		.loc 1 1007 0
 1771 011e D368     		ldr	r3, [r2, #12]
1009:../../lib/STM32F4xx_StdPeriph_Driver/src/stm32f4xx_flash.c ****           flashstatus = FLASH_ERROR_OPERATION;
 1772              		.loc 1 1009 0
 1773 0120 13F0020F 		tst	r3, #2
 1774 0124 0CBF     		ite	eq
 1775 0126 0823     		moveq	r3, #8
 1776 0128 0723     		movne	r3, #7
 1777 012a DAE7     		b	.L231
 1778              	.LVL181:
 1779              	.L242:
 1780              	.LBE256:
 1781              	.LBE255:
 1782              	.LBE258:
 1783              	.LBE260:
 1784              	.LBB261:
 1785              	.LBB252:
 991:../../lib/STM32F4xx_StdPeriph_Driver/src/stm32f4xx_flash.c ****     flashstatus = FLASH_BUSY;
 1786              		.loc 1 991 0
 1787 012c 0123     		movs	r3, #1
 1788 012e CCE7     		b	.L228
 1789              	.L270:
1001:../../lib/STM32F4xx_StdPeriph_Driver/src/stm32f4xx_flash.c ****       if((FLASH->SR & (uint32_t)0xEF) != (uint32_t)0x00)
 1790              		.loc 1 1001 0
 1791 0130 D368     		ldr	r3, [r2, #12]
 1792 0132 13F0EF0F 		tst	r3, #239
 1793 0136 01D0     		beq	.L274
1003:../../lib/STM32F4xx_StdPeriph_Driver/src/stm32f4xx_flash.c ****         flashstatus = FLASH_ERROR_PROGRAM; 
 1794              		.loc 1 1003 0
 1795 0138 0623     		movs	r3, #6
 1796 013a C6E7     		b	.L228
 1797              	.L274:
 1798              	.LBB250:
 1799              	.LBB251:
1007:../../lib/STM32F4xx_StdPeriph_Driver/src/stm32f4xx_flash.c ****         if((FLASH->SR & FLASH_FLAG_OPERR) != (uint32_t)0x00)
 1800              		.loc 1 1007 0
 1801 013c D368     		ldr	r3, [r2, #12]
1009:../../lib/STM32F4xx_StdPeriph_Driver/src/stm32f4xx_flash.c ****           flashstatus = FLASH_ERROR_OPERATION;
 1802              		.loc 1 1009 0
 1803 013e 13F0020F 		tst	r3, #2
 1804 0142 0CBF     		ite	eq
 1805 0144 0823     		moveq	r3, #8
 1806 0146 0723     		movne	r3, #7
 1807 0148 BFE7     		b	.L228
 1808              	.L276:
 1809 014a 00BF     		.align	2
 1810              	.L275:
 1811 014c 003C0240 		.word	1073888256
 1812              	.LBE251:
 1813              	.LBE250:
 1814              	.LBE252:
 1815              	.LBE261:
 1816              	.LBE263:
 1817              	.LBE265:
 1818              		.cfi_endproc
 1819              	.LFE121:
 1821              		.section	.text.FLASH_ProgramHalfWord,"ax",%progbits
 1822              		.align	2
 1823              		.global	FLASH_ProgramHalfWord
 1824              		.thumb
 1825              		.thumb_func
 1827              	FLASH_ProgramHalfWord:
 1828              	.LFB122:
 542:../../lib/STM32F4xx_StdPeriph_Driver/src/stm32f4xx_flash.c **** {
 1829              		.loc 1 542 0
 1830              		.cfi_startproc
 1831              		@ args = 0, pretend = 0, frame = 8
 1832              		@ frame_needed = 0, uses_anonymous_args = 0
 1833              		@ link register save eliminated.
 1834              	.LVL182:
 1835 0000 10B4     		push	{r4}
 1836              	.LCFI7:
 1837              		.cfi_def_cfa_offset 4
 1838              		.cfi_offset 4, -4
 1839 0002 83B0     		sub	sp, sp, #12
 1840              	.LCFI8:
 1841              		.cfi_def_cfa_offset 16
 1842              	.LVL183:
 1843              	.LBB286:
 1844              	.LBB287:
 1845              	.LBB288:
 1846              	.LBB289:
 989:../../lib/STM32F4xx_StdPeriph_Driver/src/stm32f4xx_flash.c ****   if((FLASH->SR & FLASH_FLAG_BSY) == FLASH_FLAG_BSY) 
 1847              		.loc 1 989 0
 1848 0004 514B     		ldr	r3, .L333
 1849              	.LBE289:
 1850              	.LBE288:
1030:../../lib/STM32F4xx_StdPeriph_Driver/src/stm32f4xx_flash.c ****   __IO FLASH_Status status = FLASH_COMPLETE;
 1851              		.loc 1 1030 0
 1852 0006 0822     		movs	r2, #8
 1853 0008 8DF80620 		strb	r2, [sp, #6]
 1854              	.LVL184:
 1855              	.LBB296:
 1856              	.LBB292:
 989:../../lib/STM32F4xx_StdPeriph_Driver/src/stm32f4xx_flash.c ****   if((FLASH->SR & FLASH_FLAG_BSY) == FLASH_FLAG_BSY) 
 1857              		.loc 1 989 0
 1858 000c DA68     		ldr	r2, [r3, #12]
 1859              	.LBE292:
 1860              	.LBE296:
 1861              	.LBE287:
 1862              	.LBE286:
 542:../../lib/STM32F4xx_StdPeriph_Driver/src/stm32f4xx_flash.c **** {
 1863              		.loc 1 542 0
 1864 000e 0446     		mov	r4, r0
 1865              	.LBB310:
 1866              	.LBB308:
 1867              	.LBB297:
 1868              	.LBB293:
 989:../../lib/STM32F4xx_StdPeriph_Driver/src/stm32f4xx_flash.c ****   if((FLASH->SR & FLASH_FLAG_BSY) == FLASH_FLAG_BSY) 
 1869              		.loc 1 989 0
 1870 0010 D003     		lsls	r0, r2, #15
 1871              	.LVL185:
 1872 0012 3AD4     		bmi	.L292
 995:../../lib/STM32F4xx_StdPeriph_Driver/src/stm32f4xx_flash.c ****     if((FLASH->SR & FLASH_FLAG_WRPERR) != (uint32_t)0x00)
 1873              		.loc 1 995 0
 1874 0014 DA68     		ldr	r2, [r3, #12]
 1875 0016 D206     		lsls	r2, r2, #27
 1876 0018 24D5     		bpl	.L322
 997:../../lib/STM32F4xx_StdPeriph_Driver/src/stm32f4xx_flash.c ****       flashstatus = FLASH_ERROR_WRP;
 1877              		.loc 1 997 0
 1878 001a 0523     		movs	r3, #5
 1879              	.L278:
 1880              	.LVL186:
 1881              	.LBE293:
 1882              	.LBE297:
1033:../../lib/STM32F4xx_StdPeriph_Driver/src/stm32f4xx_flash.c ****   status = FLASH_GetStatus();
 1883              		.loc 1 1033 0
 1884 001c 8DF80630 		strb	r3, [sp, #6]
1038:../../lib/STM32F4xx_StdPeriph_Driver/src/stm32f4xx_flash.c ****   while(status == FLASH_BUSY)
 1885              		.loc 1 1038 0
 1886 0020 9DF80630 		ldrb	r3, [sp, #6]	@ zero_extendqisi2
 1887              	.LVL187:
 1888 0024 012B     		cmp	r3, #1
 1889 0026 15D1     		bne	.L285
 1890              	.LBB298:
 1891              	.LBB299:
 989:../../lib/STM32F4xx_StdPeriph_Driver/src/stm32f4xx_flash.c ****   if((FLASH->SR & FLASH_FLAG_BSY) == FLASH_FLAG_BSY) 
 1892              		.loc 1 989 0
 1893 0028 484A     		ldr	r2, .L333
 1894 002a 09E0     		b	.L317
 1895              	.LVL188:
 1896              	.L324:
 995:../../lib/STM32F4xx_StdPeriph_Driver/src/stm32f4xx_flash.c ****     if((FLASH->SR & FLASH_FLAG_WRPERR) != (uint32_t)0x00)
 1897              		.loc 1 995 0
 1898 002c D368     		ldr	r3, [r2, #12]
 1899 002e D806     		lsls	r0, r3, #27
 1900 0030 1ED5     		bpl	.L323
 997:../../lib/STM32F4xx_StdPeriph_Driver/src/stm32f4xx_flash.c ****       flashstatus = FLASH_ERROR_WRP;
 1901              		.loc 1 997 0
 1902 0032 0523     		movs	r3, #5
 1903              	.L283:
 1904              	.LVL189:
 1905              	.LBE299:
 1906              	.LBE298:
1040:../../lib/STM32F4xx_StdPeriph_Driver/src/stm32f4xx_flash.c ****     status = FLASH_GetStatus();
 1907              		.loc 1 1040 0
 1908 0034 8DF80630 		strb	r3, [sp, #6]
 1909              	.LVL190:
1038:../../lib/STM32F4xx_StdPeriph_Driver/src/stm32f4xx_flash.c ****   while(status == FLASH_BUSY)
 1910              		.loc 1 1038 0
 1911 0038 9DF80630 		ldrb	r3, [sp, #6]	@ zero_extendqisi2
 1912              	.LVL191:
 1913 003c 012B     		cmp	r3, #1
 1914 003e 09D1     		bne	.L285
 1915              	.L317:
 1916              	.LVL192:
 1917              	.LBB304:
 1918              	.LBB302:
 989:../../lib/STM32F4xx_StdPeriph_Driver/src/stm32f4xx_flash.c ****   if((FLASH->SR & FLASH_FLAG_BSY) == FLASH_FLAG_BSY) 
 1919              		.loc 1 989 0
 1920 0040 D368     		ldr	r3, [r2, #12]
 1921              	.LVL193:
 1922 0042 DB03     		lsls	r3, r3, #15
 1923 0044 F2D5     		bpl	.L324
 991:../../lib/STM32F4xx_StdPeriph_Driver/src/stm32f4xx_flash.c ****     flashstatus = FLASH_BUSY;
 1924              		.loc 1 991 0
 1925 0046 0123     		movs	r3, #1
 1926              	.LVL194:
 1927              	.LBE302:
 1928              	.LBE304:
1040:../../lib/STM32F4xx_StdPeriph_Driver/src/stm32f4xx_flash.c ****     status = FLASH_GetStatus();
 1929              		.loc 1 1040 0
 1930 0048 8DF80630 		strb	r3, [sp, #6]
 1931              	.LVL195:
1038:../../lib/STM32F4xx_StdPeriph_Driver/src/stm32f4xx_flash.c ****   while(status == FLASH_BUSY)
 1932              		.loc 1 1038 0
 1933 004c 9DF80630 		ldrb	r3, [sp, #6]	@ zero_extendqisi2
 1934              	.LVL196:
 1935 0050 012B     		cmp	r3, #1
 1936 0052 F5D0     		beq	.L317
 1937              	.LVL197:
 1938              	.L285:
 1939              		.loc 1 1043 0
 1940 0054 9DF80630 		ldrb	r3, [sp, #6]	@ zero_extendqisi2
 1941              	.LVL198:
 1942 0058 1846     		mov	r0, r3
 1943              	.LVL199:
 1944              	.LBE308:
 1945              	.LBE310:
 551:../../lib/STM32F4xx_StdPeriph_Driver/src/stm32f4xx_flash.c ****   if(status == FLASH_COMPLETE)
 1946              		.loc 1 551 0
 1947 005a 082B     		cmp	r3, #8
 1948 005c 1ED0     		beq	.L325
 1949              	.LVL200:
 1950              	.L282:
 1951              	.LVL201:
 568:../../lib/STM32F4xx_StdPeriph_Driver/src/stm32f4xx_flash.c **** }
 1952              		.loc 1 568 0
 1953 005e 03B0     		add	sp, sp, #12
 1954 0060 10BC     		pop	{r4}
 1955 0062 7047     		bx	lr
 1956              	.LVL202:
 1957              	.L322:
 1958              	.LBB311:
 1959              	.LBB309:
 1960              	.LBB305:
 1961              	.LBB294:
1001:../../lib/STM32F4xx_StdPeriph_Driver/src/stm32f4xx_flash.c ****       if((FLASH->SR & (uint32_t)0xEF) != (uint32_t)0x00)
 1962              		.loc 1 1001 0
 1963 0064 DA68     		ldr	r2, [r3, #12]
 1964 0066 12F0EF0F 		tst	r2, #239
 1965 006a 10D0     		beq	.L326
1003:../../lib/STM32F4xx_StdPeriph_Driver/src/stm32f4xx_flash.c ****         flashstatus = FLASH_ERROR_PROGRAM; 
 1966              		.loc 1 1003 0
 1967 006c 0623     		movs	r3, #6
 1968 006e D5E7     		b	.L278
 1969              	.LVL203:
 1970              	.L323:
 1971              	.LBE294:
 1972              	.LBE305:
 1973              	.LBB306:
 1974              	.LBB303:
1001:../../lib/STM32F4xx_StdPeriph_Driver/src/stm32f4xx_flash.c ****       if((FLASH->SR & (uint32_t)0xEF) != (uint32_t)0x00)
 1975              		.loc 1 1001 0
 1976 0070 D368     		ldr	r3, [r2, #12]
 1977 0072 13F0EF0F 		tst	r3, #239
 1978 0076 01D0     		beq	.L327
1003:../../lib/STM32F4xx_StdPeriph_Driver/src/stm32f4xx_flash.c ****         flashstatus = FLASH_ERROR_PROGRAM; 
 1979              		.loc 1 1003 0
 1980 0078 0623     		movs	r3, #6
 1981 007a DBE7     		b	.L283
 1982              	.L327:
 1983              	.LBB300:
 1984              	.LBB301:
1007:../../lib/STM32F4xx_StdPeriph_Driver/src/stm32f4xx_flash.c ****         if((FLASH->SR & FLASH_FLAG_OPERR) != (uint32_t)0x00)
 1985              		.loc 1 1007 0
 1986 007c D368     		ldr	r3, [r2, #12]
1009:../../lib/STM32F4xx_StdPeriph_Driver/src/stm32f4xx_flash.c ****           flashstatus = FLASH_ERROR_OPERATION;
 1987              		.loc 1 1009 0
 1988 007e 13F0020F 		tst	r3, #2
 1989 0082 0CBF     		ite	eq
 1990 0084 0823     		moveq	r3, #8
 1991 0086 0723     		movne	r3, #7
 1992 0088 D4E7     		b	.L283
 1993              	.LVL204:
 1994              	.L292:
 1995              	.LBE301:
 1996              	.LBE300:
 1997              	.LBE303:
 1998              	.LBE306:
 1999              	.LBB307:
 2000              	.LBB295:
 991:../../lib/STM32F4xx_StdPeriph_Driver/src/stm32f4xx_flash.c ****     flashstatus = FLASH_BUSY;
 2001              		.loc 1 991 0
 2002 008a 0123     		movs	r3, #1
 2003 008c C6E7     		b	.L278
 2004              	.L326:
 2005              	.LBB290:
 2006              	.LBB291:
1007:../../lib/STM32F4xx_StdPeriph_Driver/src/stm32f4xx_flash.c ****         if((FLASH->SR & FLASH_FLAG_OPERR) != (uint32_t)0x00)
 2007              		.loc 1 1007 0
 2008 008e DB68     		ldr	r3, [r3, #12]
1009:../../lib/STM32F4xx_StdPeriph_Driver/src/stm32f4xx_flash.c ****           flashstatus = FLASH_ERROR_OPERATION;
 2009              		.loc 1 1009 0
 2010 0090 13F0020F 		tst	r3, #2
 2011 0094 0CBF     		ite	eq
 2012 0096 0823     		moveq	r3, #8
 2013 0098 0723     		movne	r3, #7
 2014 009a BFE7     		b	.L278
 2015              	.LVL205:
 2016              	.L325:
 2017              	.LBE291:
 2018              	.LBE290:
 2019              	.LBE295:
 2020              	.LBE307:
 2021              	.LBE309:
 2022              	.LBE311:
 554:../../lib/STM32F4xx_StdPeriph_Driver/src/stm32f4xx_flash.c ****     FLASH->CR &= CR_PSIZE_MASK;
 2023              		.loc 1 554 0
 2024 009c 2B4A     		ldr	r2, .L333
 2025 009e 1069     		ldr	r0, [r2, #16]
 2026 00a0 20F44070 		bic	r0, r0, #768
 2027 00a4 1061     		str	r0, [r2, #16]
 555:../../lib/STM32F4xx_StdPeriph_Driver/src/stm32f4xx_flash.c ****     FLASH->CR |= FLASH_PSIZE_HALF_WORD;
 2028              		.loc 1 555 0
 2029 00a6 1069     		ldr	r0, [r2, #16]
 2030 00a8 40F48070 		orr	r0, r0, #256
 2031 00ac 1061     		str	r0, [r2, #16]
 556:../../lib/STM32F4xx_StdPeriph_Driver/src/stm32f4xx_flash.c ****     FLASH->CR |= FLASH_CR_PG;
 2032              		.loc 1 556 0
 2033 00ae 1069     		ldr	r0, [r2, #16]
 2034 00b0 40F00100 		orr	r0, r0, #1
 2035 00b4 1061     		str	r0, [r2, #16]
 558:../../lib/STM32F4xx_StdPeriph_Driver/src/stm32f4xx_flash.c ****     *(__IO uint16_t*)Address = Data;
 2036              		.loc 1 558 0
 2037 00b6 2180     		strh	r1, [r4, #0]	@ movhi
 2038              	.LBB312:
 2039              	.LBB313:
1030:../../lib/STM32F4xx_StdPeriph_Driver/src/stm32f4xx_flash.c ****   __IO FLASH_Status status = FLASH_COMPLETE;
 2040              		.loc 1 1030 0
 2041 00b8 8DF80730 		strb	r3, [sp, #7]
 2042              	.LVL206:
 2043              	.LBB314:
 2044              	.LBB315:
 989:../../lib/STM32F4xx_StdPeriph_Driver/src/stm32f4xx_flash.c ****   if((FLASH->SR & FLASH_FLAG_BSY) == FLASH_FLAG_BSY) 
 2045              		.loc 1 989 0
 2046 00bc D368     		ldr	r3, [r2, #12]
 2047              	.LVL207:
 2048 00be DB03     		lsls	r3, r3, #15
 2049 00c0 34D4     		bmi	.L300
 995:../../lib/STM32F4xx_StdPeriph_Driver/src/stm32f4xx_flash.c ****     if((FLASH->SR & FLASH_FLAG_WRPERR) != (uint32_t)0x00)
 2050              		.loc 1 995 0
 2051 00c2 D368     		ldr	r3, [r2, #12]
 2052 00c4 D806     		lsls	r0, r3, #27
 2053 00c6 33D5     		bpl	.L328
 997:../../lib/STM32F4xx_StdPeriph_Driver/src/stm32f4xx_flash.c ****       flashstatus = FLASH_ERROR_WRP;
 2054              		.loc 1 997 0
 2055 00c8 0523     		movs	r3, #5
 2056              	.L286:
 2057              	.LVL208:
 2058              	.LBE315:
 2059              	.LBE314:
1033:../../lib/STM32F4xx_StdPeriph_Driver/src/stm32f4xx_flash.c ****   status = FLASH_GetStatus();
 2060              		.loc 1 1033 0
 2061 00ca 8DF80730 		strb	r3, [sp, #7]
1038:../../lib/STM32F4xx_StdPeriph_Driver/src/stm32f4xx_flash.c ****   while(status == FLASH_BUSY)
 2062              		.loc 1 1038 0
 2063 00ce 9DF80730 		ldrb	r3, [sp, #7]	@ zero_extendqisi2
 2064              	.LVL209:
 2065 00d2 012B     		cmp	r3, #1
 2066 00d4 15D1     		bne	.L291
 2067              	.LBB319:
 2068              	.LBB320:
 989:../../lib/STM32F4xx_StdPeriph_Driver/src/stm32f4xx_flash.c ****   if((FLASH->SR & FLASH_FLAG_BSY) == FLASH_FLAG_BSY) 
 2069              		.loc 1 989 0
 2070 00d6 1D4A     		ldr	r2, .L333
 2071 00d8 09E0     		b	.L316
 2072              	.LVL210:
 2073              	.L330:
 995:../../lib/STM32F4xx_StdPeriph_Driver/src/stm32f4xx_flash.c ****     if((FLASH->SR & FLASH_FLAG_WRPERR) != (uint32_t)0x00)
 2074              		.loc 1 995 0
 2075 00da D368     		ldr	r3, [r2, #12]
 2076 00dc DB06     		lsls	r3, r3, #27
 2077 00de 18D5     		bpl	.L329
 997:../../lib/STM32F4xx_StdPeriph_Driver/src/stm32f4xx_flash.c ****       flashstatus = FLASH_ERROR_WRP;
 2078              		.loc 1 997 0
 2079 00e0 0523     		movs	r3, #5
 2080              	.L289:
 2081              	.LVL211:
 2082              	.LBE320:
 2083              	.LBE319:
1040:../../lib/STM32F4xx_StdPeriph_Driver/src/stm32f4xx_flash.c ****     status = FLASH_GetStatus();
 2084              		.loc 1 1040 0
 2085 00e2 8DF80730 		strb	r3, [sp, #7]
 2086              	.LVL212:
1038:../../lib/STM32F4xx_StdPeriph_Driver/src/stm32f4xx_flash.c ****   while(status == FLASH_BUSY)
 2087              		.loc 1 1038 0
 2088 00e6 9DF80730 		ldrb	r3, [sp, #7]	@ zero_extendqisi2
 2089              	.LVL213:
 2090 00ea 012B     		cmp	r3, #1
 2091 00ec 09D1     		bne	.L291
 2092              	.L316:
 2093              	.LVL214:
 2094              	.LBB325:
 2095              	.LBB323:
 989:../../lib/STM32F4xx_StdPeriph_Driver/src/stm32f4xx_flash.c ****   if((FLASH->SR & FLASH_FLAG_BSY) == FLASH_FLAG_BSY) 
 2096              		.loc 1 989 0
 2097 00ee D368     		ldr	r3, [r2, #12]
 2098              	.LVL215:
 2099 00f0 D903     		lsls	r1, r3, #15
 2100 00f2 F2D5     		bpl	.L330
 991:../../lib/STM32F4xx_StdPeriph_Driver/src/stm32f4xx_flash.c ****     flashstatus = FLASH_BUSY;
 2101              		.loc 1 991 0
 2102 00f4 0123     		movs	r3, #1
 2103              	.LVL216:
 2104              	.LBE323:
 2105              	.LBE325:
1040:../../lib/STM32F4xx_StdPeriph_Driver/src/stm32f4xx_flash.c ****     status = FLASH_GetStatus();
 2106              		.loc 1 1040 0
 2107 00f6 8DF80730 		strb	r3, [sp, #7]
 2108              	.LVL217:
1038:../../lib/STM32F4xx_StdPeriph_Driver/src/stm32f4xx_flash.c ****   while(status == FLASH_BUSY)
 2109              		.loc 1 1038 0
 2110 00fa 9DF80730 		ldrb	r3, [sp, #7]	@ zero_extendqisi2
 2111              	.LVL218:
 2112 00fe 012B     		cmp	r3, #1
 2113 0100 F5D0     		beq	.L316
 2114              	.LVL219:
 2115              	.L291:
 2116              	.LBE313:
 2117              	.LBE312:
 564:../../lib/STM32F4xx_StdPeriph_Driver/src/stm32f4xx_flash.c ****     FLASH->CR &= (~FLASH_CR_PG);
 2118              		.loc 1 564 0
 2119 0102 124B     		ldr	r3, .L333
 2120              	.LVL220:
 2121              	.LBB330:
 2122              	.LBB328:
 2123              		.loc 1 1043 0
 2124 0104 9DF80700 		ldrb	r0, [sp, #7]	@ zero_extendqisi2
 2125              	.LVL221:
 2126              	.LBE328:
 2127              	.LBE330:
 564:../../lib/STM32F4xx_StdPeriph_Driver/src/stm32f4xx_flash.c ****     FLASH->CR &= (~FLASH_CR_PG);
 2128              		.loc 1 564 0
 2129 0108 1A69     		ldr	r2, [r3, #16]
 2130 010a 22F00102 		bic	r2, r2, #1
 2131 010e 1A61     		str	r2, [r3, #16]
 2132 0110 A5E7     		b	.L282
 2133              	.LVL222:
 2134              	.L329:
 2135              	.LBB331:
 2136              	.LBB329:
 2137              	.LBB326:
 2138              	.LBB324:
1001:../../lib/STM32F4xx_StdPeriph_Driver/src/stm32f4xx_flash.c ****       if((FLASH->SR & (uint32_t)0xEF) != (uint32_t)0x00)
 2139              		.loc 1 1001 0
 2140 0112 D368     		ldr	r3, [r2, #12]
 2141 0114 13F0EF0F 		tst	r3, #239
 2142 0118 01D0     		beq	.L331
1003:../../lib/STM32F4xx_StdPeriph_Driver/src/stm32f4xx_flash.c ****         flashstatus = FLASH_ERROR_PROGRAM; 
 2143              		.loc 1 1003 0
 2144 011a 0623     		movs	r3, #6
 2145 011c E1E7     		b	.L289
 2146              	.L331:
 2147              	.LBB321:
 2148              	.LBB322:
1007:../../lib/STM32F4xx_StdPeriph_Driver/src/stm32f4xx_flash.c ****         if((FLASH->SR & FLASH_FLAG_OPERR) != (uint32_t)0x00)
 2149              		.loc 1 1007 0
 2150 011e D368     		ldr	r3, [r2, #12]
1009:../../lib/STM32F4xx_StdPeriph_Driver/src/stm32f4xx_flash.c ****           flashstatus = FLASH_ERROR_OPERATION;
 2151              		.loc 1 1009 0
 2152 0120 13F0020F 		tst	r3, #2
 2153 0124 0CBF     		ite	eq
 2154 0126 0823     		moveq	r3, #8
 2155 0128 0723     		movne	r3, #7
 2156 012a DAE7     		b	.L289
 2157              	.LVL223:
 2158              	.L300:
 2159              	.LBE322:
 2160              	.LBE321:
 2161              	.LBE324:
 2162              	.LBE326:
 2163              	.LBB327:
 2164              	.LBB318:
 991:../../lib/STM32F4xx_StdPeriph_Driver/src/stm32f4xx_flash.c ****     flashstatus = FLASH_BUSY;
 2165              		.loc 1 991 0
 2166 012c 0123     		movs	r3, #1
 2167 012e CCE7     		b	.L286
 2168              	.L328:
1001:../../lib/STM32F4xx_StdPeriph_Driver/src/stm32f4xx_flash.c ****       if((FLASH->SR & (uint32_t)0xEF) != (uint32_t)0x00)
 2169              		.loc 1 1001 0
 2170 0130 D368     		ldr	r3, [r2, #12]
 2171 0132 13F0EF0F 		tst	r3, #239
 2172 0136 01D0     		beq	.L332
1003:../../lib/STM32F4xx_StdPeriph_Driver/src/stm32f4xx_flash.c ****         flashstatus = FLASH_ERROR_PROGRAM; 
 2173              		.loc 1 1003 0
 2174 0138 0623     		movs	r3, #6
 2175 013a C6E7     		b	.L286
 2176              	.L332:
 2177              	.LBB316:
 2178              	.LBB317:
1007:../../lib/STM32F4xx_StdPeriph_Driver/src/stm32f4xx_flash.c ****         if((FLASH->SR & FLASH_FLAG_OPERR) != (uint32_t)0x00)
 2179              		.loc 1 1007 0
 2180 013c D368     		ldr	r3, [r2, #12]
1009:../../lib/STM32F4xx_StdPeriph_Driver/src/stm32f4xx_flash.c ****           flashstatus = FLASH_ERROR_OPERATION;
 2181              		.loc 1 1009 0
 2182 013e 13F0020F 		tst	r3, #2
 2183 0142 0CBF     		ite	eq
 2184 0144 0823     		moveq	r3, #8
 2185 0146 0723     		movne	r3, #7
 2186 0148 BFE7     		b	.L286
 2187              	.L334:
 2188 014a 00BF     		.align	2
 2189              	.L333:
 2190 014c 003C0240 		.word	1073888256
 2191              	.LBE317:
 2192              	.LBE316:
 2193              	.LBE318:
 2194              	.LBE327:
 2195              	.LBE329:
 2196              	.LBE331:
 2197              		.cfi_endproc
 2198              	.LFE122:
 2200              		.section	.text.FLASH_ProgramByte,"ax",%progbits
 2201              		.align	2
 2202              		.global	FLASH_ProgramByte
 2203              		.thumb
 2204              		.thumb_func
 2206              	FLASH_ProgramByte:
 2207              	.LFB123:
 580:../../lib/STM32F4xx_StdPeriph_Driver/src/stm32f4xx_flash.c **** {
 2208              		.loc 1 580 0
 2209              		.cfi_startproc
 2210              		@ args = 0, pretend = 0, frame = 8
 2211              		@ frame_needed = 0, uses_anonymous_args = 0
 2212              		@ link register save eliminated.
 2213              	.LVL224:
 2214 0000 10B4     		push	{r4}
 2215              	.LCFI9:
 2216              		.cfi_def_cfa_offset 4
 2217              		.cfi_offset 4, -4
 2218 0002 83B0     		sub	sp, sp, #12
 2219              	.LCFI10:
 2220              		.cfi_def_cfa_offset 16
 2221              	.LVL225:
 2222              	.LBB352:
 2223              	.LBB353:
 2224              	.LBB354:
 2225              	.LBB355:
 989:../../lib/STM32F4xx_StdPeriph_Driver/src/stm32f4xx_flash.c ****   if((FLASH->SR & FLASH_FLAG_BSY) == FLASH_FLAG_BSY) 
 2226              		.loc 1 989 0
 2227 0004 504B     		ldr	r3, .L391
 2228              	.LBE355:
 2229              	.LBE354:
1030:../../lib/STM32F4xx_StdPeriph_Driver/src/stm32f4xx_flash.c ****   __IO FLASH_Status status = FLASH_COMPLETE;
 2230              		.loc 1 1030 0
 2231 0006 0822     		movs	r2, #8
 2232 0008 8DF80620 		strb	r2, [sp, #6]
 2233              	.LVL226:
 2234              	.LBB362:
 2235              	.LBB358:
 989:../../lib/STM32F4xx_StdPeriph_Driver/src/stm32f4xx_flash.c ****   if((FLASH->SR & FLASH_FLAG_BSY) == FLASH_FLAG_BSY) 
 2236              		.loc 1 989 0
 2237 000c DA68     		ldr	r2, [r3, #12]
 2238              	.LBE358:
 2239              	.LBE362:
 2240              	.LBE353:
 2241              	.LBE352:
 580:../../lib/STM32F4xx_StdPeriph_Driver/src/stm32f4xx_flash.c **** {
 2242              		.loc 1 580 0
 2243 000e 0446     		mov	r4, r0
 2244              	.LBB376:
 2245              	.LBB374:
 2246              	.LBB363:
 2247              	.LBB359:
 989:../../lib/STM32F4xx_StdPeriph_Driver/src/stm32f4xx_flash.c ****   if((FLASH->SR & FLASH_FLAG_BSY) == FLASH_FLAG_BSY) 
 2248              		.loc 1 989 0
 2249 0010 D003     		lsls	r0, r2, #15
 2250              	.LVL227:
 2251 0012 3AD4     		bmi	.L350
 995:../../lib/STM32F4xx_StdPeriph_Driver/src/stm32f4xx_flash.c ****     if((FLASH->SR & FLASH_FLAG_WRPERR) != (uint32_t)0x00)
 2252              		.loc 1 995 0
 2253 0014 DA68     		ldr	r2, [r3, #12]
 2254 0016 D206     		lsls	r2, r2, #27
 2255 0018 24D5     		bpl	.L380
 997:../../lib/STM32F4xx_StdPeriph_Driver/src/stm32f4xx_flash.c ****       flashstatus = FLASH_ERROR_WRP;
 2256              		.loc 1 997 0
 2257 001a 0523     		movs	r3, #5
 2258              	.L336:
 2259              	.LVL228:
 2260              	.LBE359:
 2261              	.LBE363:
1033:../../lib/STM32F4xx_StdPeriph_Driver/src/stm32f4xx_flash.c ****   status = FLASH_GetStatus();
 2262              		.loc 1 1033 0
 2263 001c 8DF80630 		strb	r3, [sp, #6]
1038:../../lib/STM32F4xx_StdPeriph_Driver/src/stm32f4xx_flash.c ****   while(status == FLASH_BUSY)
 2264              		.loc 1 1038 0
 2265 0020 9DF80630 		ldrb	r3, [sp, #6]	@ zero_extendqisi2
 2266              	.LVL229:
 2267 0024 012B     		cmp	r3, #1
 2268 0026 15D1     		bne	.L343
 2269              	.LBB364:
 2270              	.LBB365:
 989:../../lib/STM32F4xx_StdPeriph_Driver/src/stm32f4xx_flash.c ****   if((FLASH->SR & FLASH_FLAG_BSY) == FLASH_FLAG_BSY) 
 2271              		.loc 1 989 0
 2272 0028 474A     		ldr	r2, .L391
 2273 002a 09E0     		b	.L375
 2274              	.LVL230:
 2275              	.L382:
 995:../../lib/STM32F4xx_StdPeriph_Driver/src/stm32f4xx_flash.c ****     if((FLASH->SR & FLASH_FLAG_WRPERR) != (uint32_t)0x00)
 2276              		.loc 1 995 0
 2277 002c D368     		ldr	r3, [r2, #12]
 2278 002e D806     		lsls	r0, r3, #27
 2279 0030 1ED5     		bpl	.L381
 997:../../lib/STM32F4xx_StdPeriph_Driver/src/stm32f4xx_flash.c ****       flashstatus = FLASH_ERROR_WRP;
 2280              		.loc 1 997 0
 2281 0032 0523     		movs	r3, #5
 2282              	.L341:
 2283              	.LVL231:
 2284              	.LBE365:
 2285              	.LBE364:
1040:../../lib/STM32F4xx_StdPeriph_Driver/src/stm32f4xx_flash.c ****     status = FLASH_GetStatus();
 2286              		.loc 1 1040 0
 2287 0034 8DF80630 		strb	r3, [sp, #6]
 2288              	.LVL232:
1038:../../lib/STM32F4xx_StdPeriph_Driver/src/stm32f4xx_flash.c ****   while(status == FLASH_BUSY)
 2289              		.loc 1 1038 0
 2290 0038 9DF80630 		ldrb	r3, [sp, #6]	@ zero_extendqisi2
 2291              	.LVL233:
 2292 003c 012B     		cmp	r3, #1
 2293 003e 09D1     		bne	.L343
 2294              	.L375:
 2295              	.LVL234:
 2296              	.LBB370:
 2297              	.LBB368:
 989:../../lib/STM32F4xx_StdPeriph_Driver/src/stm32f4xx_flash.c ****   if((FLASH->SR & FLASH_FLAG_BSY) == FLASH_FLAG_BSY) 
 2298              		.loc 1 989 0
 2299 0040 D368     		ldr	r3, [r2, #12]
 2300              	.LVL235:
 2301 0042 DB03     		lsls	r3, r3, #15
 2302 0044 F2D5     		bpl	.L382
 991:../../lib/STM32F4xx_StdPeriph_Driver/src/stm32f4xx_flash.c ****     flashstatus = FLASH_BUSY;
 2303              		.loc 1 991 0
 2304 0046 0123     		movs	r3, #1
 2305              	.LVL236:
 2306              	.LBE368:
 2307              	.LBE370:
1040:../../lib/STM32F4xx_StdPeriph_Driver/src/stm32f4xx_flash.c ****     status = FLASH_GetStatus();
 2308              		.loc 1 1040 0
 2309 0048 8DF80630 		strb	r3, [sp, #6]
 2310              	.LVL237:
1038:../../lib/STM32F4xx_StdPeriph_Driver/src/stm32f4xx_flash.c ****   while(status == FLASH_BUSY)
 2311              		.loc 1 1038 0
 2312 004c 9DF80630 		ldrb	r3, [sp, #6]	@ zero_extendqisi2
 2313              	.LVL238:
 2314 0050 012B     		cmp	r3, #1
 2315 0052 F5D0     		beq	.L375
 2316              	.LVL239:
 2317              	.L343:
 2318              		.loc 1 1043 0
 2319 0054 9DF80630 		ldrb	r3, [sp, #6]	@ zero_extendqisi2
 2320              	.LVL240:
 2321 0058 1846     		mov	r0, r3
 2322              	.LVL241:
 2323              	.LBE374:
 2324              	.LBE376:
 589:../../lib/STM32F4xx_StdPeriph_Driver/src/stm32f4xx_flash.c ****   if(status == FLASH_COMPLETE)
 2325              		.loc 1 589 0
 2326 005a 082B     		cmp	r3, #8
 2327 005c 1ED0     		beq	.L383
 2328              	.LVL242:
 2329              	.L340:
 2330              	.LVL243:
 607:../../lib/STM32F4xx_StdPeriph_Driver/src/stm32f4xx_flash.c **** }
 2331              		.loc 1 607 0
 2332 005e 03B0     		add	sp, sp, #12
 2333 0060 10BC     		pop	{r4}
 2334 0062 7047     		bx	lr
 2335              	.LVL244:
 2336              	.L380:
 2337              	.LBB377:
 2338              	.LBB375:
 2339              	.LBB371:
 2340              	.LBB360:
1001:../../lib/STM32F4xx_StdPeriph_Driver/src/stm32f4xx_flash.c ****       if((FLASH->SR & (uint32_t)0xEF) != (uint32_t)0x00)
 2341              		.loc 1 1001 0
 2342 0064 DA68     		ldr	r2, [r3, #12]
 2343 0066 12F0EF0F 		tst	r2, #239
 2344 006a 10D0     		beq	.L384
1003:../../lib/STM32F4xx_StdPeriph_Driver/src/stm32f4xx_flash.c ****         flashstatus = FLASH_ERROR_PROGRAM; 
 2345              		.loc 1 1003 0
 2346 006c 0623     		movs	r3, #6
 2347 006e D5E7     		b	.L336
 2348              	.LVL245:
 2349              	.L381:
 2350              	.LBE360:
 2351              	.LBE371:
 2352              	.LBB372:
 2353              	.LBB369:
1001:../../lib/STM32F4xx_StdPeriph_Driver/src/stm32f4xx_flash.c ****       if((FLASH->SR & (uint32_t)0xEF) != (uint32_t)0x00)
 2354              		.loc 1 1001 0
 2355 0070 D368     		ldr	r3, [r2, #12]
 2356 0072 13F0EF0F 		tst	r3, #239
 2357 0076 01D0     		beq	.L385
1003:../../lib/STM32F4xx_StdPeriph_Driver/src/stm32f4xx_flash.c ****         flashstatus = FLASH_ERROR_PROGRAM; 
 2358              		.loc 1 1003 0
 2359 0078 0623     		movs	r3, #6
 2360 007a DBE7     		b	.L341
 2361              	.L385:
 2362              	.LBB366:
 2363              	.LBB367:
1007:../../lib/STM32F4xx_StdPeriph_Driver/src/stm32f4xx_flash.c ****         if((FLASH->SR & FLASH_FLAG_OPERR) != (uint32_t)0x00)
 2364              		.loc 1 1007 0
 2365 007c D368     		ldr	r3, [r2, #12]
1009:../../lib/STM32F4xx_StdPeriph_Driver/src/stm32f4xx_flash.c ****           flashstatus = FLASH_ERROR_OPERATION;
 2366              		.loc 1 1009 0
 2367 007e 13F0020F 		tst	r3, #2
 2368 0082 0CBF     		ite	eq
 2369 0084 0823     		moveq	r3, #8
 2370 0086 0723     		movne	r3, #7
 2371 0088 D4E7     		b	.L341
 2372              	.LVL246:
 2373              	.L350:
 2374              	.LBE367:
 2375              	.LBE366:
 2376              	.LBE369:
 2377              	.LBE372:
 2378              	.LBB373:
 2379              	.LBB361:
 991:../../lib/STM32F4xx_StdPeriph_Driver/src/stm32f4xx_flash.c ****     flashstatus = FLASH_BUSY;
 2380              		.loc 1 991 0
 2381 008a 0123     		movs	r3, #1
 2382 008c C6E7     		b	.L336
 2383              	.L384:
 2384              	.LBB356:
 2385              	.LBB357:
1007:../../lib/STM32F4xx_StdPeriph_Driver/src/stm32f4xx_flash.c ****         if((FLASH->SR & FLASH_FLAG_OPERR) != (uint32_t)0x00)
 2386              		.loc 1 1007 0
 2387 008e DB68     		ldr	r3, [r3, #12]
1009:../../lib/STM32F4xx_StdPeriph_Driver/src/stm32f4xx_flash.c ****           flashstatus = FLASH_ERROR_OPERATION;
 2388              		.loc 1 1009 0
 2389 0090 13F0020F 		tst	r3, #2
 2390 0094 0CBF     		ite	eq
 2391 0096 0823     		moveq	r3, #8
 2392 0098 0723     		movne	r3, #7
 2393 009a BFE7     		b	.L336
 2394              	.LVL247:
 2395              	.L383:
 2396              	.LBE357:
 2397              	.LBE356:
 2398              	.LBE361:
 2399              	.LBE373:
 2400              	.LBE375:
 2401              	.LBE377:
 592:../../lib/STM32F4xx_StdPeriph_Driver/src/stm32f4xx_flash.c ****     FLASH->CR &= CR_PSIZE_MASK;
 2402              		.loc 1 592 0
 2403 009c 2A4A     		ldr	r2, .L391
 2404 009e 1069     		ldr	r0, [r2, #16]
 2405 00a0 20F44070 		bic	r0, r0, #768
 2406 00a4 1061     		str	r0, [r2, #16]
 593:../../lib/STM32F4xx_StdPeriph_Driver/src/stm32f4xx_flash.c ****     FLASH->CR |= FLASH_PSIZE_BYTE;
 2407              		.loc 1 593 0
 2408 00a6 1069     		ldr	r0, [r2, #16]
 2409 00a8 1061     		str	r0, [r2, #16]
 594:../../lib/STM32F4xx_StdPeriph_Driver/src/stm32f4xx_flash.c ****     FLASH->CR |= FLASH_CR_PG;
 2410              		.loc 1 594 0
 2411 00aa 1069     		ldr	r0, [r2, #16]
 2412 00ac 40F00100 		orr	r0, r0, #1
 2413 00b0 1061     		str	r0, [r2, #16]
 596:../../lib/STM32F4xx_StdPeriph_Driver/src/stm32f4xx_flash.c ****     *(__IO uint8_t*)Address = Data;
 2414              		.loc 1 596 0
 2415 00b2 2170     		strb	r1, [r4, #0]
 2416              	.LBB378:
 2417              	.LBB379:
1030:../../lib/STM32F4xx_StdPeriph_Driver/src/stm32f4xx_flash.c ****   __IO FLASH_Status status = FLASH_COMPLETE;
 2418              		.loc 1 1030 0
 2419 00b4 8DF80730 		strb	r3, [sp, #7]
 2420              	.LVL248:
 2421              	.LBB380:
 2422              	.LBB381:
 989:../../lib/STM32F4xx_StdPeriph_Driver/src/stm32f4xx_flash.c ****   if((FLASH->SR & FLASH_FLAG_BSY) == FLASH_FLAG_BSY) 
 2423              		.loc 1 989 0
 2424 00b8 D368     		ldr	r3, [r2, #12]
 2425              	.LVL249:
 2426 00ba DB03     		lsls	r3, r3, #15
 2427 00bc 34D4     		bmi	.L358
 995:../../lib/STM32F4xx_StdPeriph_Driver/src/stm32f4xx_flash.c ****     if((FLASH->SR & FLASH_FLAG_WRPERR) != (uint32_t)0x00)
 2428              		.loc 1 995 0
 2429 00be D368     		ldr	r3, [r2, #12]
 2430 00c0 D806     		lsls	r0, r3, #27
 2431 00c2 33D5     		bpl	.L386
 997:../../lib/STM32F4xx_StdPeriph_Driver/src/stm32f4xx_flash.c ****       flashstatus = FLASH_ERROR_WRP;
 2432              		.loc 1 997 0
 2433 00c4 0523     		movs	r3, #5
 2434              	.L344:
 2435              	.LVL250:
 2436              	.LBE381:
 2437              	.LBE380:
1033:../../lib/STM32F4xx_StdPeriph_Driver/src/stm32f4xx_flash.c ****   status = FLASH_GetStatus();
 2438              		.loc 1 1033 0
 2439 00c6 8DF80730 		strb	r3, [sp, #7]
1038:../../lib/STM32F4xx_StdPeriph_Driver/src/stm32f4xx_flash.c ****   while(status == FLASH_BUSY)
 2440              		.loc 1 1038 0
 2441 00ca 9DF80730 		ldrb	r3, [sp, #7]	@ zero_extendqisi2
 2442              	.LVL251:
 2443 00ce 012B     		cmp	r3, #1
 2444 00d0 15D1     		bne	.L349
 2445              	.LBB385:
 2446              	.LBB386:
 989:../../lib/STM32F4xx_StdPeriph_Driver/src/stm32f4xx_flash.c ****   if((FLASH->SR & FLASH_FLAG_BSY) == FLASH_FLAG_BSY) 
 2447              		.loc 1 989 0
 2448 00d2 1D4A     		ldr	r2, .L391
 2449 00d4 09E0     		b	.L374
 2450              	.LVL252:
 2451              	.L388:
 995:../../lib/STM32F4xx_StdPeriph_Driver/src/stm32f4xx_flash.c ****     if((FLASH->SR & FLASH_FLAG_WRPERR) != (uint32_t)0x00)
 2452              		.loc 1 995 0
 2453 00d6 D368     		ldr	r3, [r2, #12]
 2454 00d8 DB06     		lsls	r3, r3, #27
 2455 00da 18D5     		bpl	.L387
 997:../../lib/STM32F4xx_StdPeriph_Driver/src/stm32f4xx_flash.c ****       flashstatus = FLASH_ERROR_WRP;
 2456              		.loc 1 997 0
 2457 00dc 0523     		movs	r3, #5
 2458              	.L347:
 2459              	.LVL253:
 2460              	.LBE386:
 2461              	.LBE385:
1040:../../lib/STM32F4xx_StdPeriph_Driver/src/stm32f4xx_flash.c ****     status = FLASH_GetStatus();
 2462              		.loc 1 1040 0
 2463 00de 8DF80730 		strb	r3, [sp, #7]
 2464              	.LVL254:
1038:../../lib/STM32F4xx_StdPeriph_Driver/src/stm32f4xx_flash.c ****   while(status == FLASH_BUSY)
 2465              		.loc 1 1038 0
 2466 00e2 9DF80730 		ldrb	r3, [sp, #7]	@ zero_extendqisi2
 2467              	.LVL255:
 2468 00e6 012B     		cmp	r3, #1
 2469 00e8 09D1     		bne	.L349
 2470              	.L374:
 2471              	.LVL256:
 2472              	.LBB391:
 2473              	.LBB389:
 989:../../lib/STM32F4xx_StdPeriph_Driver/src/stm32f4xx_flash.c ****   if((FLASH->SR & FLASH_FLAG_BSY) == FLASH_FLAG_BSY) 
 2474              		.loc 1 989 0
 2475 00ea D368     		ldr	r3, [r2, #12]
 2476              	.LVL257:
 2477 00ec D903     		lsls	r1, r3, #15
 2478 00ee F2D5     		bpl	.L388
 991:../../lib/STM32F4xx_StdPeriph_Driver/src/stm32f4xx_flash.c ****     flashstatus = FLASH_BUSY;
 2479              		.loc 1 991 0
 2480 00f0 0123     		movs	r3, #1
 2481              	.LVL258:
 2482              	.LBE389:
 2483              	.LBE391:
1040:../../lib/STM32F4xx_StdPeriph_Driver/src/stm32f4xx_flash.c ****     status = FLASH_GetStatus();
 2484              		.loc 1 1040 0
 2485 00f2 8DF80730 		strb	r3, [sp, #7]
 2486              	.LVL259:
1038:../../lib/STM32F4xx_StdPeriph_Driver/src/stm32f4xx_flash.c ****   while(status == FLASH_BUSY)
 2487              		.loc 1 1038 0
 2488 00f6 9DF80730 		ldrb	r3, [sp, #7]	@ zero_extendqisi2
 2489              	.LVL260:
 2490 00fa 012B     		cmp	r3, #1
 2491 00fc F5D0     		beq	.L374
 2492              	.LVL261:
 2493              	.L349:
 2494              	.LBE379:
 2495              	.LBE378:
 602:../../lib/STM32F4xx_StdPeriph_Driver/src/stm32f4xx_flash.c ****     FLASH->CR &= (~FLASH_CR_PG);
 2496              		.loc 1 602 0
 2497 00fe 124B     		ldr	r3, .L391
 2498              	.LVL262:
 2499              	.LBB396:
 2500              	.LBB394:
 2501              		.loc 1 1043 0
 2502 0100 9DF80700 		ldrb	r0, [sp, #7]	@ zero_extendqisi2
 2503              	.LVL263:
 2504              	.LBE394:
 2505              	.LBE396:
 602:../../lib/STM32F4xx_StdPeriph_Driver/src/stm32f4xx_flash.c ****     FLASH->CR &= (~FLASH_CR_PG);
 2506              		.loc 1 602 0
 2507 0104 1A69     		ldr	r2, [r3, #16]
 2508 0106 22F00102 		bic	r2, r2, #1
 2509 010a 1A61     		str	r2, [r3, #16]
 2510 010c A7E7     		b	.L340
 2511              	.LVL264:
 2512              	.L387:
 2513              	.LBB397:
 2514              	.LBB395:
 2515              	.LBB392:
 2516              	.LBB390:
1001:../../lib/STM32F4xx_StdPeriph_Driver/src/stm32f4xx_flash.c ****       if((FLASH->SR & (uint32_t)0xEF) != (uint32_t)0x00)
 2517              		.loc 1 1001 0
 2518 010e D368     		ldr	r3, [r2, #12]
 2519 0110 13F0EF0F 		tst	r3, #239
 2520 0114 01D0     		beq	.L389
1003:../../lib/STM32F4xx_StdPeriph_Driver/src/stm32f4xx_flash.c ****         flashstatus = FLASH_ERROR_PROGRAM; 
 2521              		.loc 1 1003 0
 2522 0116 0623     		movs	r3, #6
 2523 0118 E1E7     		b	.L347
 2524              	.L389:
 2525              	.LBB387:
 2526              	.LBB388:
1007:../../lib/STM32F4xx_StdPeriph_Driver/src/stm32f4xx_flash.c ****         if((FLASH->SR & FLASH_FLAG_OPERR) != (uint32_t)0x00)
 2527              		.loc 1 1007 0
 2528 011a D368     		ldr	r3, [r2, #12]
1009:../../lib/STM32F4xx_StdPeriph_Driver/src/stm32f4xx_flash.c ****           flashstatus = FLASH_ERROR_OPERATION;
 2529              		.loc 1 1009 0
 2530 011c 13F0020F 		tst	r3, #2
 2531 0120 0CBF     		ite	eq
 2532 0122 0823     		moveq	r3, #8
 2533 0124 0723     		movne	r3, #7
 2534 0126 DAE7     		b	.L347
 2535              	.LVL265:
 2536              	.L358:
 2537              	.LBE388:
 2538              	.LBE387:
 2539              	.LBE390:
 2540              	.LBE392:
 2541              	.LBB393:
 2542              	.LBB384:
 991:../../lib/STM32F4xx_StdPeriph_Driver/src/stm32f4xx_flash.c ****     flashstatus = FLASH_BUSY;
 2543              		.loc 1 991 0
 2544 0128 0123     		movs	r3, #1
 2545 012a CCE7     		b	.L344
 2546              	.L386:
1001:../../lib/STM32F4xx_StdPeriph_Driver/src/stm32f4xx_flash.c ****       if((FLASH->SR & (uint32_t)0xEF) != (uint32_t)0x00)
 2547              		.loc 1 1001 0
 2548 012c D368     		ldr	r3, [r2, #12]
 2549 012e 13F0EF0F 		tst	r3, #239
 2550 0132 01D0     		beq	.L390
1003:../../lib/STM32F4xx_StdPeriph_Driver/src/stm32f4xx_flash.c ****         flashstatus = FLASH_ERROR_PROGRAM; 
 2551              		.loc 1 1003 0
 2552 0134 0623     		movs	r3, #6
 2553 0136 C6E7     		b	.L344
 2554              	.L390:
 2555              	.LBB382:
 2556              	.LBB383:
1007:../../lib/STM32F4xx_StdPeriph_Driver/src/stm32f4xx_flash.c ****         if((FLASH->SR & FLASH_FLAG_OPERR) != (uint32_t)0x00)
 2557              		.loc 1 1007 0
 2558 0138 D368     		ldr	r3, [r2, #12]
1009:../../lib/STM32F4xx_StdPeriph_Driver/src/stm32f4xx_flash.c ****           flashstatus = FLASH_ERROR_OPERATION;
 2559              		.loc 1 1009 0
 2560 013a 13F0020F 		tst	r3, #2
 2561 013e 0CBF     		ite	eq
 2562 0140 0823     		moveq	r3, #8
 2563 0142 0723     		movne	r3, #7
 2564 0144 BFE7     		b	.L344
 2565              	.L392:
 2566 0146 00BF     		.align	2
 2567              	.L391:
 2568 0148 003C0240 		.word	1073888256
 2569              	.LBE383:
 2570              	.LBE382:
 2571              	.LBE384:
 2572              	.LBE393:
 2573              	.LBE395:
 2574              	.LBE397:
 2575              		.cfi_endproc
 2576              	.LFE123:
 2578              		.section	.text.FLASH_OB_Unlock,"ax",%progbits
 2579              		.align	2
 2580              		.global	FLASH_OB_Unlock
 2581              		.thumb
 2582              		.thumb_func
 2584              	FLASH_OB_Unlock:
 2585              	.LFB124:
 665:../../lib/STM32F4xx_StdPeriph_Driver/src/stm32f4xx_flash.c **** {
 2586              		.loc 1 665 0
 2587              		.cfi_startproc
 2588              		@ args = 0, pretend = 0, frame = 0
 2589              		@ frame_needed = 0, uses_anonymous_args = 0
 2590              		@ link register save eliminated.
 666:../../lib/STM32F4xx_StdPeriph_Driver/src/stm32f4xx_flash.c ****   if((FLASH->OPTCR & FLASH_OPTCR_OPTLOCK) != RESET)
 2591              		.loc 1 666 0
 2592 0000 044B     		ldr	r3, .L398
 2593 0002 5A69     		ldr	r2, [r3, #20]
 2594 0004 D207     		lsls	r2, r2, #31
 2595 0006 04D5     		bpl	.L393
 669:../../lib/STM32F4xx_StdPeriph_Driver/src/stm32f4xx_flash.c ****     FLASH->OPTKEYR = FLASH_OPT_KEY1;
 2596              		.loc 1 669 0
 2597 0008 034A     		ldr	r2, .L398+4
 2598 000a 9A60     		str	r2, [r3, #8]
 670:../../lib/STM32F4xx_StdPeriph_Driver/src/stm32f4xx_flash.c ****     FLASH->OPTKEYR = FLASH_OPT_KEY2;
 2599              		.loc 1 670 0
 2600 000c 02F14432 		add	r2, r2, #1145324612
 2601 0010 9A60     		str	r2, [r3, #8]
 2602              	.L393:
 2603 0012 7047     		bx	lr
 2604              	.L399:
 2605              		.align	2
 2606              	.L398:
 2607 0014 003C0240 		.word	1073888256
 2608 0018 3B2A1908 		.word	135866939
 2609              		.cfi_endproc
 2610              	.LFE124:
 2612              		.section	.text.FLASH_OB_Lock,"ax",%progbits
 2613              		.align	2
 2614              		.global	FLASH_OB_Lock
 2615              		.thumb
 2616              		.thumb_func
 2618              	FLASH_OB_Lock:
 2619              	.LFB125:
 680:../../lib/STM32F4xx_StdPeriph_Driver/src/stm32f4xx_flash.c **** {
 2620              		.loc 1 680 0
 2621              		.cfi_startproc
 2622              		@ args = 0, pretend = 0, frame = 0
 2623              		@ frame_needed = 0, uses_anonymous_args = 0
 2624              		@ link register save eliminated.
 682:../../lib/STM32F4xx_StdPeriph_Driver/src/stm32f4xx_flash.c ****   FLASH->OPTCR |= FLASH_OPTCR_OPTLOCK;
 2625              		.loc 1 682 0
 2626 0000 024B     		ldr	r3, .L401
 2627 0002 5A69     		ldr	r2, [r3, #20]
 2628 0004 42F00102 		orr	r2, r2, #1
 2629 0008 5A61     		str	r2, [r3, #20]
 2630 000a 7047     		bx	lr
 2631              	.L402:
 2632              		.align	2
 2633              	.L401:
 2634 000c 003C0240 		.word	1073888256
 2635              		.cfi_endproc
 2636              	.LFE125:
 2638              		.section	.text.FLASH_OB_WRPConfig,"ax",%progbits
 2639              		.align	2
 2640              		.global	FLASH_OB_WRPConfig
 2641              		.thumb
 2642              		.thumb_func
 2644              	FLASH_OB_WRPConfig:
 2645              	.LFB126:
 696:../../lib/STM32F4xx_StdPeriph_Driver/src/stm32f4xx_flash.c **** { 
 2646              		.loc 1 696 0
 2647              		.cfi_startproc
 2648              		@ args = 0, pretend = 0, frame = 8
 2649              		@ frame_needed = 0, uses_anonymous_args = 0
 2650              		@ link register save eliminated.
 2651              	.LVL266:
 2652 0000 82B0     		sub	sp, sp, #8
 2653              	.LCFI11:
 2654              		.cfi_def_cfa_offset 8
 2655              	.LVL267:
 2656              	.LBB408:
 2657              	.LBB409:
 2658              	.LBB410:
 2659              	.LBB411:
 989:../../lib/STM32F4xx_StdPeriph_Driver/src/stm32f4xx_flash.c ****   if((FLASH->SR & FLASH_FLAG_BSY) == FLASH_FLAG_BSY) 
 2660              		.loc 1 989 0
 2661 0002 2A4B     		ldr	r3, .L435
 2662              	.LBE411:
 2663              	.LBE410:
1030:../../lib/STM32F4xx_StdPeriph_Driver/src/stm32f4xx_flash.c ****   __IO FLASH_Status status = FLASH_COMPLETE;
 2664              		.loc 1 1030 0
 2665 0004 0822     		movs	r2, #8
 2666 0006 8DF80720 		strb	r2, [sp, #7]
 2667              	.LVL268:
 2668              	.LBB418:
 2669              	.LBB414:
 989:../../lib/STM32F4xx_StdPeriph_Driver/src/stm32f4xx_flash.c ****   if((FLASH->SR & FLASH_FLAG_BSY) == FLASH_FLAG_BSY) 
 2670              		.loc 1 989 0
 2671 000a DA68     		ldr	r2, [r3, #12]
 2672 000c D203     		lsls	r2, r2, #15
 2673 000e 38D4     		bmi	.L413
 995:../../lib/STM32F4xx_StdPeriph_Driver/src/stm32f4xx_flash.c ****     if((FLASH->SR & FLASH_FLAG_WRPERR) != (uint32_t)0x00)
 2674              		.loc 1 995 0
 2675 0010 DA68     		ldr	r2, [r3, #12]
 2676 0012 D206     		lsls	r2, r2, #27
 2677 0014 22D5     		bpl	.L428
 997:../../lib/STM32F4xx_StdPeriph_Driver/src/stm32f4xx_flash.c ****       flashstatus = FLASH_ERROR_WRP;
 2678              		.loc 1 997 0
 2679 0016 0523     		movs	r3, #5
 2680              	.L404:
 2681              	.LVL269:
 2682              	.LBE414:
 2683              	.LBE418:
1033:../../lib/STM32F4xx_StdPeriph_Driver/src/stm32f4xx_flash.c ****   status = FLASH_GetStatus();
 2684              		.loc 1 1033 0
 2685 0018 8DF80730 		strb	r3, [sp, #7]
1038:../../lib/STM32F4xx_StdPeriph_Driver/src/stm32f4xx_flash.c ****   while(status == FLASH_BUSY)
 2686              		.loc 1 1038 0
 2687 001c 9DF80730 		ldrb	r3, [sp, #7]	@ zero_extendqisi2
 2688              	.LVL270:
 2689 0020 012B     		cmp	r3, #1
 2690 0022 15D1     		bne	.L411
 2691              	.LBB419:
 2692              	.LBB420:
 989:../../lib/STM32F4xx_StdPeriph_Driver/src/stm32f4xx_flash.c ****   if((FLASH->SR & FLASH_FLAG_BSY) == FLASH_FLAG_BSY) 
 2693              		.loc 1 989 0
 2694 0024 214A     		ldr	r2, .L435
 2695 0026 09E0     		b	.L425
 2696              	.LVL271:
 2697              	.L430:
 995:../../lib/STM32F4xx_StdPeriph_Driver/src/stm32f4xx_flash.c ****     if((FLASH->SR & FLASH_FLAG_WRPERR) != (uint32_t)0x00)
 2698              		.loc 1 995 0
 2699 0028 D368     		ldr	r3, [r2, #12]
 2700 002a DB06     		lsls	r3, r3, #27
 2701 002c 1CD5     		bpl	.L429
 997:../../lib/STM32F4xx_StdPeriph_Driver/src/stm32f4xx_flash.c ****       flashstatus = FLASH_ERROR_WRP;
 2702              		.loc 1 997 0
 2703 002e 0523     		movs	r3, #5
 2704              	.L409:
 2705              	.LVL272:
 2706              	.LBE420:
 2707              	.LBE419:
1040:../../lib/STM32F4xx_StdPeriph_Driver/src/stm32f4xx_flash.c ****     status = FLASH_GetStatus();
 2708              		.loc 1 1040 0
 2709 0030 8DF80730 		strb	r3, [sp, #7]
 2710              	.LVL273:
1038:../../lib/STM32F4xx_StdPeriph_Driver/src/stm32f4xx_flash.c ****   while(status == FLASH_BUSY)
 2711              		.loc 1 1038 0
 2712 0034 9DF80730 		ldrb	r3, [sp, #7]	@ zero_extendqisi2
 2713              	.LVL274:
 2714 0038 012B     		cmp	r3, #1
 2715 003a 09D1     		bne	.L411
 2716              	.L425:
 2717              	.LVL275:
 2718              	.LBB425:
 2719              	.LBB423:
 989:../../lib/STM32F4xx_StdPeriph_Driver/src/stm32f4xx_flash.c ****   if((FLASH->SR & FLASH_FLAG_BSY) == FLASH_FLAG_BSY) 
 2720              		.loc 1 989 0
 2721 003c D368     		ldr	r3, [r2, #12]
 2722              	.LVL276:
 2723 003e DB03     		lsls	r3, r3, #15
 2724 0040 F2D5     		bpl	.L430
 991:../../lib/STM32F4xx_StdPeriph_Driver/src/stm32f4xx_flash.c ****     flashstatus = FLASH_BUSY;
 2725              		.loc 1 991 0
 2726 0042 0123     		movs	r3, #1
 2727              	.LVL277:
 2728              	.LBE423:
 2729              	.LBE425:
1040:../../lib/STM32F4xx_StdPeriph_Driver/src/stm32f4xx_flash.c ****     status = FLASH_GetStatus();
 2730              		.loc 1 1040 0
 2731 0044 8DF80730 		strb	r3, [sp, #7]
 2732              	.LVL278:
1038:../../lib/STM32F4xx_StdPeriph_Driver/src/stm32f4xx_flash.c ****   while(status == FLASH_BUSY)
 2733              		.loc 1 1038 0
 2734 0048 9DF80730 		ldrb	r3, [sp, #7]	@ zero_extendqisi2
 2735              	.LVL279:
 2736 004c 012B     		cmp	r3, #1
 2737 004e F5D0     		beq	.L425
 2738              	.LVL280:
 2739              	.L411:
 2740              		.loc 1 1043 0
 2741 0050 9DF80730 		ldrb	r3, [sp, #7]	@ zero_extendqisi2
 2742              	.LVL281:
 2743              	.LBE409:
 2744              	.LBE408:
 705:../../lib/STM32F4xx_StdPeriph_Driver/src/stm32f4xx_flash.c ****   if(status == FLASH_COMPLETE)
 2745              		.loc 1 705 0
 2746 0054 082B     		cmp	r3, #8
 2747 0056 16D0     		beq	.L431
 2748              	.LVL282:
 2749              	.L403:
 716:../../lib/STM32F4xx_StdPeriph_Driver/src/stm32f4xx_flash.c **** }
 2750              		.loc 1 716 0
 2751 0058 02B0     		add	sp, sp, #8
 2752 005a 7047     		bx	lr
 2753              	.LVL283:
 2754              	.L428:
 2755              	.LBB432:
 2756              	.LBB430:
 2757              	.LBB426:
 2758              	.LBB415:
1001:../../lib/STM32F4xx_StdPeriph_Driver/src/stm32f4xx_flash.c ****       if((FLASH->SR & (uint32_t)0xEF) != (uint32_t)0x00)
 2759              		.loc 1 1001 0
 2760 005c DA68     		ldr	r2, [r3, #12]
 2761 005e 12F0EF0F 		tst	r2, #239
 2762 0062 16D0     		beq	.L432
1003:../../lib/STM32F4xx_StdPeriph_Driver/src/stm32f4xx_flash.c ****         flashstatus = FLASH_ERROR_PROGRAM; 
 2763              		.loc 1 1003 0
 2764 0064 0623     		movs	r3, #6
 2765 0066 D7E7     		b	.L404
 2766              	.LVL284:
 2767              	.L429:
 2768              	.LBE415:
 2769              	.LBE426:
 2770              	.LBB427:
 2771              	.LBB424:
1001:../../lib/STM32F4xx_StdPeriph_Driver/src/stm32f4xx_flash.c ****       if((FLASH->SR & (uint32_t)0xEF) != (uint32_t)0x00)
 2772              		.loc 1 1001 0
 2773 0068 D368     		ldr	r3, [r2, #12]
 2774 006a 13F0EF0F 		tst	r3, #239
 2775 006e 01D0     		beq	.L433
1003:../../lib/STM32F4xx_StdPeriph_Driver/src/stm32f4xx_flash.c ****         flashstatus = FLASH_ERROR_PROGRAM; 
 2776              		.loc 1 1003 0
 2777 0070 0623     		movs	r3, #6
 2778 0072 DDE7     		b	.L409
 2779              	.L433:
 2780              	.LBB421:
 2781              	.LBB422:
1007:../../lib/STM32F4xx_StdPeriph_Driver/src/stm32f4xx_flash.c ****         if((FLASH->SR & FLASH_FLAG_OPERR) != (uint32_t)0x00)
 2782              		.loc 1 1007 0
 2783 0074 D368     		ldr	r3, [r2, #12]
1009:../../lib/STM32F4xx_StdPeriph_Driver/src/stm32f4xx_flash.c ****           flashstatus = FLASH_ERROR_OPERATION;
 2784              		.loc 1 1009 0
 2785 0076 13F0020F 		tst	r3, #2
 2786 007a 0CBF     		ite	eq
 2787 007c 0823     		moveq	r3, #8
 2788 007e 0723     		movne	r3, #7
 2789 0080 D6E7     		b	.L409
 2790              	.LVL285:
 2791              	.L413:
 2792              	.LBE422:
 2793              	.LBE421:
 2794              	.LBE424:
 2795              	.LBE427:
 2796              	.LBB428:
 2797              	.LBB416:
 991:../../lib/STM32F4xx_StdPeriph_Driver/src/stm32f4xx_flash.c ****     flashstatus = FLASH_BUSY;
 2798              		.loc 1 991 0
 2799 0082 0123     		movs	r3, #1
 2800 0084 C8E7     		b	.L404
 2801              	.LVL286:
 2802              	.L431:
 2803              	.LBE416:
 2804              	.LBE428:
 2805              	.LBE430:
 2806              	.LBE432:
 709:../../lib/STM32F4xx_StdPeriph_Driver/src/stm32f4xx_flash.c ****       *(__IO uint16_t*)OPTCR_BYTE2_ADDRESS &= (~OB_WRP);
 2807              		.loc 1 709 0
 2808 0086 0A4B     		ldr	r3, .L435+4
 2809              	.LVL287:
 2810 0088 1A88     		ldrh	r2, [r3, #0]
 707:../../lib/STM32F4xx_StdPeriph_Driver/src/stm32f4xx_flash.c ****     if(NewState != DISABLE)
 2811              		.loc 1 707 0
 2812 008a 49B9     		cbnz	r1, .L434
 713:../../lib/STM32F4xx_StdPeriph_Driver/src/stm32f4xx_flash.c ****       *(__IO uint16_t*)OPTCR_BYTE2_ADDRESS |= (uint16_t)OB_WRP;
 2813              		.loc 1 713 0
 2814 008c 1043     		orrs	r0, r0, r2
 2815              	.LVL288:
 2816 008e 1880     		strh	r0, [r3, #0]	@ movhi
 2817 0090 E2E7     		b	.L403
 2818              	.LVL289:
 2819              	.L432:
 2820              	.LBB433:
 2821              	.LBB431:
 2822              	.LBB429:
 2823              	.LBB417:
 2824              	.LBB412:
 2825              	.LBB413:
1007:../../lib/STM32F4xx_StdPeriph_Driver/src/stm32f4xx_flash.c ****         if((FLASH->SR & FLASH_FLAG_OPERR) != (uint32_t)0x00)
 2826              		.loc 1 1007 0
 2827 0092 DB68     		ldr	r3, [r3, #12]
1009:../../lib/STM32F4xx_StdPeriph_Driver/src/stm32f4xx_flash.c ****           flashstatus = FLASH_ERROR_OPERATION;
 2828              		.loc 1 1009 0
 2829 0094 13F0020F 		tst	r3, #2
 2830 0098 0CBF     		ite	eq
 2831 009a 0823     		moveq	r3, #8
 2832 009c 0723     		movne	r3, #7
 2833 009e BBE7     		b	.L404
 2834              	.LVL290:
 2835              	.L434:
 2836              	.LBE413:
 2837              	.LBE412:
 2838              	.LBE417:
 2839              	.LBE429:
 2840              	.LBE431:
 2841              	.LBE433:
 709:../../lib/STM32F4xx_StdPeriph_Driver/src/stm32f4xx_flash.c ****       *(__IO uint16_t*)OPTCR_BYTE2_ADDRESS &= (~OB_WRP);
 2842              		.loc 1 709 0
 2843 00a0 92B2     		uxth	r2, r2
 2844 00a2 22EA0000 		bic	r0, r2, r0
 2845              	.LVL291:
 2846 00a6 1880     		strh	r0, [r3, #0]	@ movhi
 2847 00a8 D6E7     		b	.L403
 2848              	.L436:
 2849 00aa 00BF     		.align	2
 2850              	.L435:
 2851 00ac 003C0240 		.word	1073888256
 2852 00b0 163C0240 		.word	1073888278
 2853              		.cfi_endproc
 2854              	.LFE126:
 2856              		.section	.text.FLASH_OB_RDPConfig,"ax",%progbits
 2857              		.align	2
 2858              		.global	FLASH_OB_RDPConfig
 2859              		.thumb
 2860              		.thumb_func
 2862              	FLASH_OB_RDPConfig:
 2863              	.LFB127:
 731:../../lib/STM32F4xx_StdPeriph_Driver/src/stm32f4xx_flash.c **** {
 2864              		.loc 1 731 0
 2865              		.cfi_startproc
 2866              		@ args = 0, pretend = 0, frame = 8
 2867              		@ frame_needed = 0, uses_anonymous_args = 0
 2868              		@ link register save eliminated.
 2869              	.LVL292:
 2870 0000 82B0     		sub	sp, sp, #8
 2871              	.LCFI12:
 2872              		.cfi_def_cfa_offset 8
 2873              	.LVL293:
 2874              	.LBB444:
 2875              	.LBB445:
 2876              	.LBB446:
 2877              	.LBB447:
 989:../../lib/STM32F4xx_StdPeriph_Driver/src/stm32f4xx_flash.c ****   if((FLASH->SR & FLASH_FLAG_BSY) == FLASH_FLAG_BSY) 
 2878              		.loc 1 989 0
 2879 0002 254B     		ldr	r3, .L466
 2880              	.LBE447:
 2881              	.LBE446:
1030:../../lib/STM32F4xx_StdPeriph_Driver/src/stm32f4xx_flash.c ****   __IO FLASH_Status status = FLASH_COMPLETE;
 2882              		.loc 1 1030 0
 2883 0004 0822     		movs	r2, #8
 2884 0006 8DF80720 		strb	r2, [sp, #7]
 2885              	.LVL294:
 2886              	.LBB453:
 2887              	.LBB450:
 989:../../lib/STM32F4xx_StdPeriph_Driver/src/stm32f4xx_flash.c ****   if((FLASH->SR & FLASH_FLAG_BSY) == FLASH_FLAG_BSY) 
 2888              		.loc 1 989 0
 2889 000a DA68     		ldr	r2, [r3, #12]
 2890 000c D103     		lsls	r1, r2, #15
 2891 000e 3AD4     		bmi	.L446
 995:../../lib/STM32F4xx_StdPeriph_Driver/src/stm32f4xx_flash.c ****     if((FLASH->SR & FLASH_FLAG_WRPERR) != (uint32_t)0x00)
 2892              		.loc 1 995 0
 2893 0010 DA68     		ldr	r2, [r3, #12]
 2894 0012 D206     		lsls	r2, r2, #27
 2895 0014 24D5     		bpl	.L461
 997:../../lib/STM32F4xx_StdPeriph_Driver/src/stm32f4xx_flash.c ****       flashstatus = FLASH_ERROR_WRP;
 2896              		.loc 1 997 0
 2897 0016 0523     		movs	r3, #5
 2898              	.L438:
 2899              	.LVL295:
 2900              	.LBE450:
 2901              	.LBE453:
1033:../../lib/STM32F4xx_StdPeriph_Driver/src/stm32f4xx_flash.c ****   status = FLASH_GetStatus();
 2902              		.loc 1 1033 0
 2903 0018 8DF80730 		strb	r3, [sp, #7]
1038:../../lib/STM32F4xx_StdPeriph_Driver/src/stm32f4xx_flash.c ****   while(status == FLASH_BUSY)
 2904              		.loc 1 1038 0
 2905 001c 9DF80730 		ldrb	r3, [sp, #7]	@ zero_extendqisi2
 2906              	.LVL296:
 2907 0020 012B     		cmp	r3, #1
 2908 0022 15D1     		bne	.L445
 2909              	.LBB454:
 2910              	.LBB455:
 989:../../lib/STM32F4xx_StdPeriph_Driver/src/stm32f4xx_flash.c ****   if((FLASH->SR & FLASH_FLAG_BSY) == FLASH_FLAG_BSY) 
 2911              		.loc 1 989 0
 2912 0024 1C4A     		ldr	r2, .L466
 2913 0026 09E0     		b	.L458
 2914              	.LVL297:
 2915              	.L463:
 995:../../lib/STM32F4xx_StdPeriph_Driver/src/stm32f4xx_flash.c ****     if((FLASH->SR & FLASH_FLAG_WRPERR) != (uint32_t)0x00)
 2916              		.loc 1 995 0
 2917 0028 D368     		ldr	r3, [r2, #12]
 2918 002a D906     		lsls	r1, r3, #27
 2919 002c 1ED5     		bpl	.L462
 997:../../lib/STM32F4xx_StdPeriph_Driver/src/stm32f4xx_flash.c ****       flashstatus = FLASH_ERROR_WRP;
 2920              		.loc 1 997 0
 2921 002e 0523     		movs	r3, #5
 2922              	.L443:
 2923              	.LVL298:
 2924              	.LBE455:
 2925              	.LBE454:
1040:../../lib/STM32F4xx_StdPeriph_Driver/src/stm32f4xx_flash.c ****     status = FLASH_GetStatus();
